ARM GAS  /tmp/ccJ9ib2V.s 			page 1


   1              		.cpu cortex-m4
   2              		.eabi_attribute 20, 1
   3              		.eabi_attribute 21, 1
   4              		.eabi_attribute 23, 3
   5              		.eabi_attribute 24, 1
   6              		.eabi_attribute 25, 1
   7              		.eabi_attribute 26, 1
   8              		.eabi_attribute 30, 1
   9              		.eabi_attribute 34, 1
  10              		.eabi_attribute 18, 4
  11              		.file	"stm32f4xx_exti.c"
  12              		.text
  13              	.Ltext0:
  14              		.cfi_sections	.debug_frame
  15              		.section	.text.EXTI_DeInit,"ax",%progbits
  16              		.align	1
  17              		.global	EXTI_DeInit
  18              		.syntax unified
  19              		.thumb
  20              		.thumb_func
  21              		.fpu softvfp
  23              	EXTI_DeInit:
  24              	.LFB112:
  25              		.file 1 "FWLIB/src/stm32f4xx_exti.c"
   1:FWLIB/src/stm32f4xx_exti.c **** /**
   2:FWLIB/src/stm32f4xx_exti.c ****   ******************************************************************************
   3:FWLIB/src/stm32f4xx_exti.c ****   * @file    stm32f4xx_exti.c
   4:FWLIB/src/stm32f4xx_exti.c ****   * @author  MCD Application Team
   5:FWLIB/src/stm32f4xx_exti.c ****   * @version V1.4.0
   6:FWLIB/src/stm32f4xx_exti.c ****   * @date    04-August-2014
   7:FWLIB/src/stm32f4xx_exti.c ****   * @brief   This file provides firmware functions to manage the following 
   8:FWLIB/src/stm32f4xx_exti.c ****   *          functionalities of the EXTI peripheral:           
   9:FWLIB/src/stm32f4xx_exti.c ****   *           + Initialization and Configuration
  10:FWLIB/src/stm32f4xx_exti.c ****   *           + Interrupts and flags management
  11:FWLIB/src/stm32f4xx_exti.c ****   *
  12:FWLIB/src/stm32f4xx_exti.c **** @verbatim  
  13:FWLIB/src/stm32f4xx_exti.c **** 
  14:FWLIB/src/stm32f4xx_exti.c ****  ===============================================================================
  15:FWLIB/src/stm32f4xx_exti.c ****                               ##### EXTI features #####
  16:FWLIB/src/stm32f4xx_exti.c ****  ===============================================================================
  17:FWLIB/src/stm32f4xx_exti.c **** 
  18:FWLIB/src/stm32f4xx_exti.c ****  [..] External interrupt/event lines are mapped as following:
  19:FWLIB/src/stm32f4xx_exti.c ****    (#) All available GPIO pins are connected to the 16 external 
  20:FWLIB/src/stm32f4xx_exti.c ****        interrupt/event lines from EXTI0 to EXTI15.
  21:FWLIB/src/stm32f4xx_exti.c ****    (#) EXTI line 16 is connected to the PVD Output
  22:FWLIB/src/stm32f4xx_exti.c ****    (#) EXTI line 17 is connected to the RTC Alarm event
  23:FWLIB/src/stm32f4xx_exti.c ****    (#) EXTI line 18 is connected to the USB OTG FS Wakeup from suspend event
  24:FWLIB/src/stm32f4xx_exti.c ****    (#) EXTI line 19 is connected to the Ethernet Wakeup event
  25:FWLIB/src/stm32f4xx_exti.c ****    (#) EXTI line 20 is connected to the USB OTG HS (configured in FS) Wakeup event 
  26:FWLIB/src/stm32f4xx_exti.c ****    (#) EXTI line 21 is connected to the RTC Tamper and Time Stamp events
  27:FWLIB/src/stm32f4xx_exti.c ****    (#) EXTI line 22 is connected to the RTC Wakeup event
  28:FWLIB/src/stm32f4xx_exti.c **** 
  29:FWLIB/src/stm32f4xx_exti.c ****                        ##### How to use this driver #####
  30:FWLIB/src/stm32f4xx_exti.c ****  ===============================================================================
  31:FWLIB/src/stm32f4xx_exti.c ****  
  32:FWLIB/src/stm32f4xx_exti.c ****  [..] In order to use an I/O pin as an external interrupt source, follow steps 
  33:FWLIB/src/stm32f4xx_exti.c ****       below:
ARM GAS  /tmp/ccJ9ib2V.s 			page 2


  34:FWLIB/src/stm32f4xx_exti.c ****    (#) Configure the I/O in input mode using GPIO_Init()
  35:FWLIB/src/stm32f4xx_exti.c ****    (#) Select the input source pin for the EXTI line using SYSCFG_EXTILineConfig()
  36:FWLIB/src/stm32f4xx_exti.c ****    (#) Select the mode(interrupt, event) and configure the trigger 
  37:FWLIB/src/stm32f4xx_exti.c ****        selection (Rising, falling or both) using EXTI_Init()
  38:FWLIB/src/stm32f4xx_exti.c ****    (#) Configure NVIC IRQ channel mapped to the EXTI line using NVIC_Init()
  39:FWLIB/src/stm32f4xx_exti.c **** 
  40:FWLIB/src/stm32f4xx_exti.c ****  [..]     
  41:FWLIB/src/stm32f4xx_exti.c ****    (@) SYSCFG APB clock must be enabled to get write access to SYSCFG_EXTICRx
  42:FWLIB/src/stm32f4xx_exti.c ****        registers using RCC_APB2PeriphClockCmd(RCC_APB2Periph_SYSCFG, ENABLE);
  43:FWLIB/src/stm32f4xx_exti.c **** 
  44:FWLIB/src/stm32f4xx_exti.c **** @endverbatim
  45:FWLIB/src/stm32f4xx_exti.c ****   *
  46:FWLIB/src/stm32f4xx_exti.c ****   ******************************************************************************
  47:FWLIB/src/stm32f4xx_exti.c ****   * @attention
  48:FWLIB/src/stm32f4xx_exti.c ****   *
  49:FWLIB/src/stm32f4xx_exti.c ****   * <h2><center>&copy; COPYRIGHT 2014 STMicroelectronics</center></h2>
  50:FWLIB/src/stm32f4xx_exti.c ****   *
  51:FWLIB/src/stm32f4xx_exti.c ****   * Licensed under MCD-ST Liberty SW License Agreement V2, (the "License");
  52:FWLIB/src/stm32f4xx_exti.c ****   * You may not use this file except in compliance with the License.
  53:FWLIB/src/stm32f4xx_exti.c ****   * You may obtain a copy of the License at:
  54:FWLIB/src/stm32f4xx_exti.c ****   *
  55:FWLIB/src/stm32f4xx_exti.c ****   *        http://www.st.com/software_license_agreement_liberty_v2
  56:FWLIB/src/stm32f4xx_exti.c ****   *
  57:FWLIB/src/stm32f4xx_exti.c ****   * Unless required by applicable law or agreed to in writing, software 
  58:FWLIB/src/stm32f4xx_exti.c ****   * distributed under the License is distributed on an "AS IS" BASIS, 
  59:FWLIB/src/stm32f4xx_exti.c ****   * WITHOUT WARRANTIES OR CONDITIONS OF ANY KIND, either express or implied.
  60:FWLIB/src/stm32f4xx_exti.c ****   * See the License for the specific language governing permissions and
  61:FWLIB/src/stm32f4xx_exti.c ****   * limitations under the License.
  62:FWLIB/src/stm32f4xx_exti.c ****   *
  63:FWLIB/src/stm32f4xx_exti.c ****   ******************************************************************************
  64:FWLIB/src/stm32f4xx_exti.c ****   */
  65:FWLIB/src/stm32f4xx_exti.c **** 
  66:FWLIB/src/stm32f4xx_exti.c **** /* Includes ------------------------------------------------------------------*/
  67:FWLIB/src/stm32f4xx_exti.c **** #include "stm32f4xx_exti.h"
  68:FWLIB/src/stm32f4xx_exti.c **** 
  69:FWLIB/src/stm32f4xx_exti.c **** /** @addtogroup STM32F4xx_StdPeriph_Driver
  70:FWLIB/src/stm32f4xx_exti.c ****   * @{
  71:FWLIB/src/stm32f4xx_exti.c ****   */
  72:FWLIB/src/stm32f4xx_exti.c **** 
  73:FWLIB/src/stm32f4xx_exti.c **** /** @defgroup EXTI 
  74:FWLIB/src/stm32f4xx_exti.c ****   * @brief EXTI driver modules
  75:FWLIB/src/stm32f4xx_exti.c ****   * @{
  76:FWLIB/src/stm32f4xx_exti.c ****   */
  77:FWLIB/src/stm32f4xx_exti.c **** 
  78:FWLIB/src/stm32f4xx_exti.c **** /* Private typedef -----------------------------------------------------------*/
  79:FWLIB/src/stm32f4xx_exti.c **** /* Private define ------------------------------------------------------------*/
  80:FWLIB/src/stm32f4xx_exti.c **** 
  81:FWLIB/src/stm32f4xx_exti.c **** #define EXTI_LINENONE    ((uint32_t)0x00000)  /* No interrupt selected */
  82:FWLIB/src/stm32f4xx_exti.c **** 
  83:FWLIB/src/stm32f4xx_exti.c **** /* Private macro -------------------------------------------------------------*/
  84:FWLIB/src/stm32f4xx_exti.c **** /* Private variables ---------------------------------------------------------*/
  85:FWLIB/src/stm32f4xx_exti.c **** /* Private function prototypes -----------------------------------------------*/
  86:FWLIB/src/stm32f4xx_exti.c **** /* Private functions ---------------------------------------------------------*/
  87:FWLIB/src/stm32f4xx_exti.c **** 
  88:FWLIB/src/stm32f4xx_exti.c **** /** @defgroup EXTI_Private_Functions
  89:FWLIB/src/stm32f4xx_exti.c ****   * @{
  90:FWLIB/src/stm32f4xx_exti.c ****   */
ARM GAS  /tmp/ccJ9ib2V.s 			page 3


  91:FWLIB/src/stm32f4xx_exti.c **** 
  92:FWLIB/src/stm32f4xx_exti.c **** /** @defgroup EXTI_Group1 Initialization and Configuration functions
  93:FWLIB/src/stm32f4xx_exti.c ****  *  @brief   Initialization and Configuration functions 
  94:FWLIB/src/stm32f4xx_exti.c ****  *
  95:FWLIB/src/stm32f4xx_exti.c **** @verbatim   
  96:FWLIB/src/stm32f4xx_exti.c ****  ===============================================================================
  97:FWLIB/src/stm32f4xx_exti.c ****              ##### Initialization and Configuration functions #####
  98:FWLIB/src/stm32f4xx_exti.c ****  ===============================================================================
  99:FWLIB/src/stm32f4xx_exti.c **** 
 100:FWLIB/src/stm32f4xx_exti.c **** @endverbatim
 101:FWLIB/src/stm32f4xx_exti.c ****   * @{
 102:FWLIB/src/stm32f4xx_exti.c ****   */
 103:FWLIB/src/stm32f4xx_exti.c **** 
 104:FWLIB/src/stm32f4xx_exti.c **** /**
 105:FWLIB/src/stm32f4xx_exti.c ****   * @brief  Deinitializes the EXTI peripheral registers to their default reset values.
 106:FWLIB/src/stm32f4xx_exti.c ****   * @param  None
 107:FWLIB/src/stm32f4xx_exti.c ****   * @retval None
 108:FWLIB/src/stm32f4xx_exti.c ****   */
 109:FWLIB/src/stm32f4xx_exti.c **** void EXTI_DeInit(void)
 110:FWLIB/src/stm32f4xx_exti.c **** {
  26              		.loc 1 110 0
  27              		.cfi_startproc
  28              		@ args = 0, pretend = 0, frame = 0
  29              		@ frame_needed = 0, uses_anonymous_args = 0
  30              		@ link register save eliminated.
 111:FWLIB/src/stm32f4xx_exti.c ****   EXTI->IMR = 0x00000000;
  31              		.loc 1 111 0
  32 0000 044B     		ldr	r3, .L2
  33 0002 0022     		movs	r2, #0
  34 0004 1A60     		str	r2, [r3]
 112:FWLIB/src/stm32f4xx_exti.c ****   EXTI->EMR = 0x00000000;
  35              		.loc 1 112 0
  36 0006 5A60     		str	r2, [r3, #4]
 113:FWLIB/src/stm32f4xx_exti.c ****   EXTI->RTSR = 0x00000000;
  37              		.loc 1 113 0
  38 0008 9A60     		str	r2, [r3, #8]
 114:FWLIB/src/stm32f4xx_exti.c ****   EXTI->FTSR = 0x00000000;
  39              		.loc 1 114 0
  40 000a DA60     		str	r2, [r3, #12]
 115:FWLIB/src/stm32f4xx_exti.c ****   EXTI->PR = 0x007FFFFF;
  41              		.loc 1 115 0
  42 000c 024A     		ldr	r2, .L2+4
  43 000e 5A61     		str	r2, [r3, #20]
  44 0010 7047     		bx	lr
  45              	.L3:
  46 0012 00BF     		.align	2
  47              	.L2:
  48 0014 003C0140 		.word	1073822720
  49 0018 FFFF7F00 		.word	8388607
  50              		.cfi_endproc
  51              	.LFE112:
  53              		.section	.text.EXTI_Init,"ax",%progbits
  54              		.align	1
  55              		.global	EXTI_Init
  56              		.syntax unified
  57              		.thumb
  58              		.thumb_func
ARM GAS  /tmp/ccJ9ib2V.s 			page 4


  59              		.fpu softvfp
  61              	EXTI_Init:
  62              	.LFB113:
 116:FWLIB/src/stm32f4xx_exti.c **** }
 117:FWLIB/src/stm32f4xx_exti.c **** 
 118:FWLIB/src/stm32f4xx_exti.c **** /**
 119:FWLIB/src/stm32f4xx_exti.c ****   * @brief  Initializes the EXTI peripheral according to the specified
 120:FWLIB/src/stm32f4xx_exti.c ****   *         parameters in the EXTI_InitStruct.
 121:FWLIB/src/stm32f4xx_exti.c ****   * @param  EXTI_InitStruct: pointer to a EXTI_InitTypeDef structure
 122:FWLIB/src/stm32f4xx_exti.c ****   *         that contains the configuration information for the EXTI peripheral.
 123:FWLIB/src/stm32f4xx_exti.c ****   * @retval None
 124:FWLIB/src/stm32f4xx_exti.c ****   */
 125:FWLIB/src/stm32f4xx_exti.c **** void EXTI_Init(EXTI_InitTypeDef* EXTI_InitStruct)
 126:FWLIB/src/stm32f4xx_exti.c **** {
  63              		.loc 1 126 0
  64              		.cfi_startproc
  65              		@ args = 0, pretend = 0, frame = 0
  66              		@ frame_needed = 0, uses_anonymous_args = 0
  67              		@ link register save eliminated.
  68              	.LVL0:
 127:FWLIB/src/stm32f4xx_exti.c ****   uint32_t tmp = 0;
 128:FWLIB/src/stm32f4xx_exti.c **** 
 129:FWLIB/src/stm32f4xx_exti.c ****   /* Check the parameters */
 130:FWLIB/src/stm32f4xx_exti.c ****   assert_param(IS_EXTI_MODE(EXTI_InitStruct->EXTI_Mode));
 131:FWLIB/src/stm32f4xx_exti.c ****   assert_param(IS_EXTI_TRIGGER(EXTI_InitStruct->EXTI_Trigger));
 132:FWLIB/src/stm32f4xx_exti.c ****   assert_param(IS_EXTI_LINE(EXTI_InitStruct->EXTI_Line));  
 133:FWLIB/src/stm32f4xx_exti.c ****   assert_param(IS_FUNCTIONAL_STATE(EXTI_InitStruct->EXTI_LineCmd));
 134:FWLIB/src/stm32f4xx_exti.c **** 
 135:FWLIB/src/stm32f4xx_exti.c ****   tmp = (uint32_t)EXTI_BASE;
 136:FWLIB/src/stm32f4xx_exti.c ****      
 137:FWLIB/src/stm32f4xx_exti.c ****   if (EXTI_InitStruct->EXTI_LineCmd != DISABLE)
  69              		.loc 1 137 0
  70 0000 8379     		ldrb	r3, [r0, #6]	@ zero_extendqisi2
  71 0002 002B     		cmp	r3, #0
  72 0004 35D0     		beq	.L5
 126:FWLIB/src/stm32f4xx_exti.c ****   uint32_t tmp = 0;
  73              		.loc 1 126 0
  74 0006 10B4     		push	{r4}
  75              	.LCFI0:
  76              		.cfi_def_cfa_offset 4
  77              		.cfi_offset 4, -4
 138:FWLIB/src/stm32f4xx_exti.c ****   {
 139:FWLIB/src/stm32f4xx_exti.c ****     /* Clear EXTI line configuration */
 140:FWLIB/src/stm32f4xx_exti.c ****     EXTI->IMR &= ~EXTI_InitStruct->EXTI_Line;
  78              		.loc 1 140 0
  79 0008 1F4B     		ldr	r3, .L13
  80 000a 1A68     		ldr	r2, [r3]
  81 000c 0168     		ldr	r1, [r0]
  82 000e 22EA0102 		bic	r2, r2, r1
  83 0012 1A60     		str	r2, [r3]
 141:FWLIB/src/stm32f4xx_exti.c ****     EXTI->EMR &= ~EXTI_InitStruct->EXTI_Line;
  84              		.loc 1 141 0
  85 0014 5A68     		ldr	r2, [r3, #4]
  86 0016 0168     		ldr	r1, [r0]
  87 0018 22EA0102 		bic	r2, r2, r1
  88 001c 5A60     		str	r2, [r3, #4]
 142:FWLIB/src/stm32f4xx_exti.c ****     
ARM GAS  /tmp/ccJ9ib2V.s 			page 5


 143:FWLIB/src/stm32f4xx_exti.c ****     tmp += EXTI_InitStruct->EXTI_Mode;
  89              		.loc 1 143 0
  90 001e 0279     		ldrb	r2, [r0, #4]	@ zero_extendqisi2
  91 0020 02F18042 		add	r2, r2, #1073741824
  92 0024 02F59E32 		add	r2, r2, #80896
  93              	.LVL1:
 144:FWLIB/src/stm32f4xx_exti.c **** 
 145:FWLIB/src/stm32f4xx_exti.c ****     *(__IO uint32_t *) tmp |= EXTI_InitStruct->EXTI_Line;
  94              		.loc 1 145 0
  95 0028 1168     		ldr	r1, [r2]
  96 002a 0468     		ldr	r4, [r0]
  97 002c 2143     		orrs	r1, r1, r4
  98 002e 1160     		str	r1, [r2]
 146:FWLIB/src/stm32f4xx_exti.c **** 
 147:FWLIB/src/stm32f4xx_exti.c ****     /* Clear Rising Falling edge configuration */
 148:FWLIB/src/stm32f4xx_exti.c ****     EXTI->RTSR &= ~EXTI_InitStruct->EXTI_Line;
  99              		.loc 1 148 0
 100 0030 9A68     		ldr	r2, [r3, #8]
 101              	.LVL2:
 102 0032 0168     		ldr	r1, [r0]
 103 0034 22EA0102 		bic	r2, r2, r1
 104 0038 9A60     		str	r2, [r3, #8]
 149:FWLIB/src/stm32f4xx_exti.c ****     EXTI->FTSR &= ~EXTI_InitStruct->EXTI_Line;
 105              		.loc 1 149 0
 106 003a DA68     		ldr	r2, [r3, #12]
 107 003c 0168     		ldr	r1, [r0]
 108 003e 22EA0102 		bic	r2, r2, r1
 109 0042 DA60     		str	r2, [r3, #12]
 150:FWLIB/src/stm32f4xx_exti.c ****     
 151:FWLIB/src/stm32f4xx_exti.c ****     /* Select the trigger for the selected external interrupts */
 152:FWLIB/src/stm32f4xx_exti.c ****     if (EXTI_InitStruct->EXTI_Trigger == EXTI_Trigger_Rising_Falling)
 110              		.loc 1 152 0
 111 0044 4379     		ldrb	r3, [r0, #5]	@ zero_extendqisi2
 112 0046 102B     		cmp	r3, #16
 113 0048 09D0     		beq	.L12
 114              	.LVL3:
 153:FWLIB/src/stm32f4xx_exti.c ****     {
 154:FWLIB/src/stm32f4xx_exti.c ****       /* Rising Falling edge */
 155:FWLIB/src/stm32f4xx_exti.c ****       EXTI->RTSR |= EXTI_InitStruct->EXTI_Line;
 156:FWLIB/src/stm32f4xx_exti.c ****       EXTI->FTSR |= EXTI_InitStruct->EXTI_Line;
 157:FWLIB/src/stm32f4xx_exti.c ****     }
 158:FWLIB/src/stm32f4xx_exti.c ****     else
 159:FWLIB/src/stm32f4xx_exti.c ****     {
 160:FWLIB/src/stm32f4xx_exti.c ****       tmp = (uint32_t)EXTI_BASE;
 161:FWLIB/src/stm32f4xx_exti.c ****       tmp += EXTI_InitStruct->EXTI_Trigger;
 115              		.loc 1 161 0
 116 004a 03F18043 		add	r3, r3, #1073741824
 117 004e 03F59E33 		add	r3, r3, #80896
 118              	.LVL4:
 162:FWLIB/src/stm32f4xx_exti.c **** 
 163:FWLIB/src/stm32f4xx_exti.c ****       *(__IO uint32_t *) tmp |= EXTI_InitStruct->EXTI_Line;
 119              		.loc 1 163 0
 120 0052 1A68     		ldr	r2, [r3]
 121 0054 0168     		ldr	r1, [r0]
 122 0056 0A43     		orrs	r2, r2, r1
 123 0058 1A60     		str	r2, [r3]
 124              	.LVL5:
ARM GAS  /tmp/ccJ9ib2V.s 			page 6


 125              	.L4:
 164:FWLIB/src/stm32f4xx_exti.c ****     }
 165:FWLIB/src/stm32f4xx_exti.c ****   }
 166:FWLIB/src/stm32f4xx_exti.c ****   else
 167:FWLIB/src/stm32f4xx_exti.c ****   {
 168:FWLIB/src/stm32f4xx_exti.c ****     tmp += EXTI_InitStruct->EXTI_Mode;
 169:FWLIB/src/stm32f4xx_exti.c **** 
 170:FWLIB/src/stm32f4xx_exti.c ****     /* Disable the selected external lines */
 171:FWLIB/src/stm32f4xx_exti.c ****     *(__IO uint32_t *) tmp &= ~EXTI_InitStruct->EXTI_Line;
 172:FWLIB/src/stm32f4xx_exti.c ****   }
 173:FWLIB/src/stm32f4xx_exti.c **** }
 126              		.loc 1 173 0
 127 005a 10BC     		pop	{r4}
 128              	.LCFI1:
 129              		.cfi_remember_state
 130              		.cfi_restore 4
 131              		.cfi_def_cfa_offset 0
 132 005c 7047     		bx	lr
 133              	.L12:
 134              	.LCFI2:
 135              		.cfi_restore_state
 155:FWLIB/src/stm32f4xx_exti.c ****       EXTI->FTSR |= EXTI_InitStruct->EXTI_Line;
 136              		.loc 1 155 0
 137 005e 0A4B     		ldr	r3, .L13
 138 0060 9A68     		ldr	r2, [r3, #8]
 139 0062 0168     		ldr	r1, [r0]
 140 0064 0A43     		orrs	r2, r2, r1
 141 0066 9A60     		str	r2, [r3, #8]
 156:FWLIB/src/stm32f4xx_exti.c ****     }
 142              		.loc 1 156 0
 143 0068 DA68     		ldr	r2, [r3, #12]
 144 006a 0168     		ldr	r1, [r0]
 145 006c 0A43     		orrs	r2, r2, r1
 146 006e DA60     		str	r2, [r3, #12]
 147 0070 F3E7     		b	.L4
 148              	.LVL6:
 149              	.L5:
 150              	.LCFI3:
 151              		.cfi_def_cfa_offset 0
 152              		.cfi_restore 4
 168:FWLIB/src/stm32f4xx_exti.c **** 
 153              		.loc 1 168 0
 154 0072 0379     		ldrb	r3, [r0, #4]	@ zero_extendqisi2
 155 0074 03F18043 		add	r3, r3, #1073741824
 156 0078 03F59E33 		add	r3, r3, #80896
 157              	.LVL7:
 171:FWLIB/src/stm32f4xx_exti.c ****   }
 158              		.loc 1 171 0
 159 007c 1A68     		ldr	r2, [r3]
 160 007e 0168     		ldr	r1, [r0]
 161 0080 22EA0102 		bic	r2, r2, r1
 162 0084 1A60     		str	r2, [r3]
 163              		.loc 1 173 0
 164 0086 7047     		bx	lr
 165              	.L14:
 166              		.align	2
 167              	.L13:
ARM GAS  /tmp/ccJ9ib2V.s 			page 7


 168 0088 003C0140 		.word	1073822720
 169              		.cfi_endproc
 170              	.LFE113:
 172              		.section	.text.EXTI_StructInit,"ax",%progbits
 173              		.align	1
 174              		.global	EXTI_StructInit
 175              		.syntax unified
 176              		.thumb
 177              		.thumb_func
 178              		.fpu softvfp
 180              	EXTI_StructInit:
 181              	.LFB114:
 174:FWLIB/src/stm32f4xx_exti.c **** 
 175:FWLIB/src/stm32f4xx_exti.c **** /**
 176:FWLIB/src/stm32f4xx_exti.c ****   * @brief  Fills each EXTI_InitStruct member with its reset value.
 177:FWLIB/src/stm32f4xx_exti.c ****   * @param  EXTI_InitStruct: pointer to a EXTI_InitTypeDef structure which will
 178:FWLIB/src/stm32f4xx_exti.c ****   *         be initialized.
 179:FWLIB/src/stm32f4xx_exti.c ****   * @retval None
 180:FWLIB/src/stm32f4xx_exti.c ****   */
 181:FWLIB/src/stm32f4xx_exti.c **** void EXTI_StructInit(EXTI_InitTypeDef* EXTI_InitStruct)
 182:FWLIB/src/stm32f4xx_exti.c **** {
 182              		.loc 1 182 0
 183              		.cfi_startproc
 184              		@ args = 0, pretend = 0, frame = 0
 185              		@ frame_needed = 0, uses_anonymous_args = 0
 186              		@ link register save eliminated.
 187              	.LVL8:
 183:FWLIB/src/stm32f4xx_exti.c ****   EXTI_InitStruct->EXTI_Line = EXTI_LINENONE;
 188              		.loc 1 183 0
 189 0000 0023     		movs	r3, #0
 190 0002 0360     		str	r3, [r0]
 184:FWLIB/src/stm32f4xx_exti.c ****   EXTI_InitStruct->EXTI_Mode = EXTI_Mode_Interrupt;
 191              		.loc 1 184 0
 192 0004 0371     		strb	r3, [r0, #4]
 185:FWLIB/src/stm32f4xx_exti.c ****   EXTI_InitStruct->EXTI_Trigger = EXTI_Trigger_Falling;
 193              		.loc 1 185 0
 194 0006 0C22     		movs	r2, #12
 195 0008 4271     		strb	r2, [r0, #5]
 186:FWLIB/src/stm32f4xx_exti.c ****   EXTI_InitStruct->EXTI_LineCmd = DISABLE;
 196              		.loc 1 186 0
 197 000a 8371     		strb	r3, [r0, #6]
 198 000c 7047     		bx	lr
 199              		.cfi_endproc
 200              	.LFE114:
 202              		.section	.text.EXTI_GenerateSWInterrupt,"ax",%progbits
 203              		.align	1
 204              		.global	EXTI_GenerateSWInterrupt
 205              		.syntax unified
 206              		.thumb
 207              		.thumb_func
 208              		.fpu softvfp
 210              	EXTI_GenerateSWInterrupt:
 211              	.LFB115:
 187:FWLIB/src/stm32f4xx_exti.c **** }
 188:FWLIB/src/stm32f4xx_exti.c **** 
 189:FWLIB/src/stm32f4xx_exti.c **** /**
 190:FWLIB/src/stm32f4xx_exti.c ****   * @brief  Generates a Software interrupt on selected EXTI line.
ARM GAS  /tmp/ccJ9ib2V.s 			page 8


 191:FWLIB/src/stm32f4xx_exti.c ****   * @param  EXTI_Line: specifies the EXTI line on which the software interrupt
 192:FWLIB/src/stm32f4xx_exti.c ****   *         will be generated.
 193:FWLIB/src/stm32f4xx_exti.c ****   *         This parameter can be any combination of EXTI_Linex where x can be (0..22)
 194:FWLIB/src/stm32f4xx_exti.c ****   * @retval None
 195:FWLIB/src/stm32f4xx_exti.c ****   */
 196:FWLIB/src/stm32f4xx_exti.c **** void EXTI_GenerateSWInterrupt(uint32_t EXTI_Line)
 197:FWLIB/src/stm32f4xx_exti.c **** {
 212              		.loc 1 197 0
 213              		.cfi_startproc
 214              		@ args = 0, pretend = 0, frame = 0
 215              		@ frame_needed = 0, uses_anonymous_args = 0
 216              		@ link register save eliminated.
 217              	.LVL9:
 198:FWLIB/src/stm32f4xx_exti.c ****   /* Check the parameters */
 199:FWLIB/src/stm32f4xx_exti.c ****   assert_param(IS_EXTI_LINE(EXTI_Line));
 200:FWLIB/src/stm32f4xx_exti.c ****   
 201:FWLIB/src/stm32f4xx_exti.c ****   EXTI->SWIER |= EXTI_Line;
 218              		.loc 1 201 0
 219 0000 024A     		ldr	r2, .L17
 220 0002 1369     		ldr	r3, [r2, #16]
 221 0004 1843     		orrs	r0, r0, r3
 222              	.LVL10:
 223 0006 1061     		str	r0, [r2, #16]
 224 0008 7047     		bx	lr
 225              	.L18:
 226 000a 00BF     		.align	2
 227              	.L17:
 228 000c 003C0140 		.word	1073822720
 229              		.cfi_endproc
 230              	.LFE115:
 232              		.section	.text.EXTI_GetFlagStatus,"ax",%progbits
 233              		.align	1
 234              		.global	EXTI_GetFlagStatus
 235              		.syntax unified
 236              		.thumb
 237              		.thumb_func
 238              		.fpu softvfp
 240              	EXTI_GetFlagStatus:
 241              	.LFB116:
 202:FWLIB/src/stm32f4xx_exti.c **** }
 203:FWLIB/src/stm32f4xx_exti.c **** 
 204:FWLIB/src/stm32f4xx_exti.c **** /**
 205:FWLIB/src/stm32f4xx_exti.c ****   * @}
 206:FWLIB/src/stm32f4xx_exti.c ****   */
 207:FWLIB/src/stm32f4xx_exti.c **** 
 208:FWLIB/src/stm32f4xx_exti.c **** /** @defgroup EXTI_Group2 Interrupts and flags management functions
 209:FWLIB/src/stm32f4xx_exti.c ****  *  @brief   Interrupts and flags management functions 
 210:FWLIB/src/stm32f4xx_exti.c ****  *
 211:FWLIB/src/stm32f4xx_exti.c **** @verbatim   
 212:FWLIB/src/stm32f4xx_exti.c ****  ===============================================================================
 213:FWLIB/src/stm32f4xx_exti.c ****              ##### Interrupts and flags management functions #####
 214:FWLIB/src/stm32f4xx_exti.c ****  ===============================================================================
 215:FWLIB/src/stm32f4xx_exti.c **** 
 216:FWLIB/src/stm32f4xx_exti.c **** @endverbatim
 217:FWLIB/src/stm32f4xx_exti.c ****   * @{
 218:FWLIB/src/stm32f4xx_exti.c ****   */
 219:FWLIB/src/stm32f4xx_exti.c **** 
ARM GAS  /tmp/ccJ9ib2V.s 			page 9


 220:FWLIB/src/stm32f4xx_exti.c **** /**
 221:FWLIB/src/stm32f4xx_exti.c ****   * @brief  Checks whether the specified EXTI line flag is set or not.
 222:FWLIB/src/stm32f4xx_exti.c ****   * @param  EXTI_Line: specifies the EXTI line flag to check.
 223:FWLIB/src/stm32f4xx_exti.c ****   *          This parameter can be EXTI_Linex where x can be(0..22)
 224:FWLIB/src/stm32f4xx_exti.c ****   * @retval The new state of EXTI_Line (SET or RESET).
 225:FWLIB/src/stm32f4xx_exti.c ****   */
 226:FWLIB/src/stm32f4xx_exti.c **** FlagStatus EXTI_GetFlagStatus(uint32_t EXTI_Line)
 227:FWLIB/src/stm32f4xx_exti.c **** {
 242              		.loc 1 227 0
 243              		.cfi_startproc
 244              		@ args = 0, pretend = 0, frame = 0
 245              		@ frame_needed = 0, uses_anonymous_args = 0
 246              		@ link register save eliminated.
 247              	.LVL11:
 228:FWLIB/src/stm32f4xx_exti.c ****   FlagStatus bitstatus = RESET;
 229:FWLIB/src/stm32f4xx_exti.c ****   /* Check the parameters */
 230:FWLIB/src/stm32f4xx_exti.c ****   assert_param(IS_GET_EXTI_LINE(EXTI_Line));
 231:FWLIB/src/stm32f4xx_exti.c ****   
 232:FWLIB/src/stm32f4xx_exti.c ****   if ((EXTI->PR & EXTI_Line) != (uint32_t)RESET)
 248              		.loc 1 232 0
 249 0000 034B     		ldr	r3, .L23
 250 0002 5B69     		ldr	r3, [r3, #20]
 251 0004 0342     		tst	r3, r0
 252 0006 01D1     		bne	.L22
 233:FWLIB/src/stm32f4xx_exti.c ****   {
 234:FWLIB/src/stm32f4xx_exti.c ****     bitstatus = SET;
 235:FWLIB/src/stm32f4xx_exti.c ****   }
 236:FWLIB/src/stm32f4xx_exti.c ****   else
 237:FWLIB/src/stm32f4xx_exti.c ****   {
 238:FWLIB/src/stm32f4xx_exti.c ****     bitstatus = RESET;
 253              		.loc 1 238 0
 254 0008 0020     		movs	r0, #0
 255              	.LVL12:
 239:FWLIB/src/stm32f4xx_exti.c ****   }
 240:FWLIB/src/stm32f4xx_exti.c ****   return bitstatus;
 241:FWLIB/src/stm32f4xx_exti.c **** }
 256              		.loc 1 241 0
 257 000a 7047     		bx	lr
 258              	.LVL13:
 259              	.L22:
 234:FWLIB/src/stm32f4xx_exti.c ****   }
 260              		.loc 1 234 0
 261 000c 0120     		movs	r0, #1
 262              	.LVL14:
 263 000e 7047     		bx	lr
 264              	.L24:
 265              		.align	2
 266              	.L23:
 267 0010 003C0140 		.word	1073822720
 268              		.cfi_endproc
 269              	.LFE116:
 271              		.section	.text.EXTI_ClearFlag,"ax",%progbits
 272              		.align	1
 273              		.global	EXTI_ClearFlag
 274              		.syntax unified
 275              		.thumb
 276              		.thumb_func
ARM GAS  /tmp/ccJ9ib2V.s 			page 10


 277              		.fpu softvfp
 279              	EXTI_ClearFlag:
 280              	.LFB117:
 242:FWLIB/src/stm32f4xx_exti.c **** 
 243:FWLIB/src/stm32f4xx_exti.c **** /**
 244:FWLIB/src/stm32f4xx_exti.c ****   * @brief  Clears the EXTI's line pending flags.
 245:FWLIB/src/stm32f4xx_exti.c ****   * @param  EXTI_Line: specifies the EXTI lines flags to clear.
 246:FWLIB/src/stm32f4xx_exti.c ****   *          This parameter can be any combination of EXTI_Linex where x can be (0..22)
 247:FWLIB/src/stm32f4xx_exti.c ****   * @retval None
 248:FWLIB/src/stm32f4xx_exti.c ****   */
 249:FWLIB/src/stm32f4xx_exti.c **** void EXTI_ClearFlag(uint32_t EXTI_Line)
 250:FWLIB/src/stm32f4xx_exti.c **** {
 281              		.loc 1 250 0
 282              		.cfi_startproc
 283              		@ args = 0, pretend = 0, frame = 0
 284              		@ frame_needed = 0, uses_anonymous_args = 0
 285              		@ link register save eliminated.
 286              	.LVL15:
 251:FWLIB/src/stm32f4xx_exti.c ****   /* Check the parameters */
 252:FWLIB/src/stm32f4xx_exti.c ****   assert_param(IS_EXTI_LINE(EXTI_Line));
 253:FWLIB/src/stm32f4xx_exti.c ****   
 254:FWLIB/src/stm32f4xx_exti.c ****   EXTI->PR = EXTI_Line;
 287              		.loc 1 254 0
 288 0000 014B     		ldr	r3, .L26
 289 0002 5861     		str	r0, [r3, #20]
 290 0004 7047     		bx	lr
 291              	.L27:
 292 0006 00BF     		.align	2
 293              	.L26:
 294 0008 003C0140 		.word	1073822720
 295              		.cfi_endproc
 296              	.LFE117:
 298              		.section	.text.EXTI_GetITStatus,"ax",%progbits
 299              		.align	1
 300              		.global	EXTI_GetITStatus
 301              		.syntax unified
 302              		.thumb
 303              		.thumb_func
 304              		.fpu softvfp
 306              	EXTI_GetITStatus:
 307              	.LFB118:
 255:FWLIB/src/stm32f4xx_exti.c **** }
 256:FWLIB/src/stm32f4xx_exti.c **** 
 257:FWLIB/src/stm32f4xx_exti.c **** /**
 258:FWLIB/src/stm32f4xx_exti.c ****   * @brief  Checks whether the specified EXTI line is asserted or not.
 259:FWLIB/src/stm32f4xx_exti.c ****   * @param  EXTI_Line: specifies the EXTI line to check.
 260:FWLIB/src/stm32f4xx_exti.c ****   *          This parameter can be EXTI_Linex where x can be(0..22)
 261:FWLIB/src/stm32f4xx_exti.c ****   * @retval The new state of EXTI_Line (SET or RESET).
 262:FWLIB/src/stm32f4xx_exti.c ****   */
 263:FWLIB/src/stm32f4xx_exti.c **** ITStatus EXTI_GetITStatus(uint32_t EXTI_Line)
 264:FWLIB/src/stm32f4xx_exti.c **** {
 308              		.loc 1 264 0
 309              		.cfi_startproc
 310              		@ args = 0, pretend = 0, frame = 0
 311              		@ frame_needed = 0, uses_anonymous_args = 0
 312              		@ link register save eliminated.
 313              	.LVL16:
ARM GAS  /tmp/ccJ9ib2V.s 			page 11


 265:FWLIB/src/stm32f4xx_exti.c ****   FlagStatus bitstatus = RESET;
 266:FWLIB/src/stm32f4xx_exti.c ****   /* Check the parameters */
 267:FWLIB/src/stm32f4xx_exti.c ****   assert_param(IS_GET_EXTI_LINE(EXTI_Line));
 268:FWLIB/src/stm32f4xx_exti.c ****   
 269:FWLIB/src/stm32f4xx_exti.c ****   if ((EXTI->PR & EXTI_Line) != (uint32_t)RESET)
 314              		.loc 1 269 0
 315 0000 034B     		ldr	r3, .L32
 316 0002 5B69     		ldr	r3, [r3, #20]
 317 0004 0342     		tst	r3, r0
 318 0006 01D1     		bne	.L31
 270:FWLIB/src/stm32f4xx_exti.c ****   {
 271:FWLIB/src/stm32f4xx_exti.c ****     bitstatus = SET;
 272:FWLIB/src/stm32f4xx_exti.c ****   }
 273:FWLIB/src/stm32f4xx_exti.c ****   else
 274:FWLIB/src/stm32f4xx_exti.c ****   {
 275:FWLIB/src/stm32f4xx_exti.c ****     bitstatus = RESET;
 319              		.loc 1 275 0
 320 0008 0020     		movs	r0, #0
 321              	.LVL17:
 276:FWLIB/src/stm32f4xx_exti.c ****   }
 277:FWLIB/src/stm32f4xx_exti.c ****   return bitstatus;
 278:FWLIB/src/stm32f4xx_exti.c ****   
 279:FWLIB/src/stm32f4xx_exti.c **** }
 322              		.loc 1 279 0
 323 000a 7047     		bx	lr
 324              	.LVL18:
 325              	.L31:
 271:FWLIB/src/stm32f4xx_exti.c ****   }
 326              		.loc 1 271 0
 327 000c 0120     		movs	r0, #1
 328              	.LVL19:
 329 000e 7047     		bx	lr
 330              	.L33:
 331              		.align	2
 332              	.L32:
 333 0010 003C0140 		.word	1073822720
 334              		.cfi_endproc
 335              	.LFE118:
 337              		.section	.text.EXTI_ClearITPendingBit,"ax",%progbits
 338              		.align	1
 339              		.global	EXTI_ClearITPendingBit
 340              		.syntax unified
 341              		.thumb
 342              		.thumb_func
 343              		.fpu softvfp
 345              	EXTI_ClearITPendingBit:
 346              	.LFB119:
 280:FWLIB/src/stm32f4xx_exti.c **** 
 281:FWLIB/src/stm32f4xx_exti.c **** /**
 282:FWLIB/src/stm32f4xx_exti.c ****   * @brief  Clears the EXTI's line pending bits.
 283:FWLIB/src/stm32f4xx_exti.c ****   * @param  EXTI_Line: specifies the EXTI lines to clear.
 284:FWLIB/src/stm32f4xx_exti.c ****   *          This parameter can be any combination of EXTI_Linex where x can be (0..22)
 285:FWLIB/src/stm32f4xx_exti.c ****   * @retval None
 286:FWLIB/src/stm32f4xx_exti.c ****   */
 287:FWLIB/src/stm32f4xx_exti.c **** void EXTI_ClearITPendingBit(uint32_t EXTI_Line)
 288:FWLIB/src/stm32f4xx_exti.c **** {
 347              		.loc 1 288 0
ARM GAS  /tmp/ccJ9ib2V.s 			page 12


 348              		.cfi_startproc
 349              		@ args = 0, pretend = 0, frame = 0
 350              		@ frame_needed = 0, uses_anonymous_args = 0
 351              		@ link register save eliminated.
 352              	.LVL20:
 289:FWLIB/src/stm32f4xx_exti.c ****   /* Check the parameters */
 290:FWLIB/src/stm32f4xx_exti.c ****   assert_param(IS_EXTI_LINE(EXTI_Line));
 291:FWLIB/src/stm32f4xx_exti.c ****   
 292:FWLIB/src/stm32f4xx_exti.c ****   EXTI->PR = EXTI_Line;
 353              		.loc 1 292 0
 354 0000 014B     		ldr	r3, .L35
 355 0002 5861     		str	r0, [r3, #20]
 356 0004 7047     		bx	lr
 357              	.L36:
 358 0006 00BF     		.align	2
 359              	.L35:
 360 0008 003C0140 		.word	1073822720
 361              		.cfi_endproc
 362              	.LFE119:
 364              		.text
 365              	.Letext0:
 366              		.file 2 "/usr/include/newlib/machine/_default_types.h"
 367              		.file 3 "/usr/include/newlib/sys/_stdint.h"
 368              		.file 4 "CORE/core_cm4.h"
 369              		.file 5 "USER/system_stm32f4xx.h"
 370              		.file 6 "USER/stm32f4xx.h"
 371              		.file 7 "FWLIB/inc/stm32f4xx_exti.h"
ARM GAS  /tmp/ccJ9ib2V.s 			page 13

