ARM GAS  /tmp/ccKh9sm1.s 			page 1


   1              		.cpu cortex-m4
   2              		.eabi_attribute 20, 1
   3              		.eabi_attribute 21, 1
   4              		.eabi_attribute 23, 3
   5              		.eabi_attribute 24, 1
   6              		.eabi_attribute 25, 1
   7              		.eabi_attribute 26, 1
   8              		.eabi_attribute 30, 1
   9              		.eabi_attribute 34, 1
  10              		.eabi_attribute 18, 4
  11              		.file	"stm32f4xx_cryp_des.c"
  12              		.text
  13              	.Ltext0:
  14              		.cfi_sections	.debug_frame
  15              		.section	.text.CRYP_DES_ECB,"ax",%progbits
  16              		.align	1
  17              		.global	CRYP_DES_ECB
  18              		.syntax unified
  19              		.thumb
  20              		.thumb_func
  21              		.fpu softvfp
  23              	CRYP_DES_ECB:
  24              	.LFB112:
  25              		.file 1 "FWLIB/src/stm32f4xx_cryp_des.c"
   1:FWLIB/src/stm32f4xx_cryp_des.c **** /**
   2:FWLIB/src/stm32f4xx_cryp_des.c ****   ******************************************************************************
   3:FWLIB/src/stm32f4xx_cryp_des.c ****   * @file    stm32f4xx_cryp_des.c
   4:FWLIB/src/stm32f4xx_cryp_des.c ****   * @author  MCD Application Team
   5:FWLIB/src/stm32f4xx_cryp_des.c ****   * @version V1.4.0
   6:FWLIB/src/stm32f4xx_cryp_des.c ****   * @date    04-August-2014
   7:FWLIB/src/stm32f4xx_cryp_des.c ****   * @brief   This file provides high level functions to encrypt and decrypt an 
   8:FWLIB/src/stm32f4xx_cryp_des.c ****   *          input message using DES in ECB/CBC modes.
   9:FWLIB/src/stm32f4xx_cryp_des.c ****   *          It uses the stm32f4xx_cryp.c/.h drivers to access the STM32F4xx CRYP
  10:FWLIB/src/stm32f4xx_cryp_des.c ****   *          peripheral.
  11:FWLIB/src/stm32f4xx_cryp_des.c ****   *
  12:FWLIB/src/stm32f4xx_cryp_des.c **** @verbatim
  13:FWLIB/src/stm32f4xx_cryp_des.c ****   
  14:FWLIB/src/stm32f4xx_cryp_des.c ****  ===================================================================
  15:FWLIB/src/stm32f4xx_cryp_des.c ****                   ##### How to use this driver #####
  16:FWLIB/src/stm32f4xx_cryp_des.c ****  ===================================================================
  17:FWLIB/src/stm32f4xx_cryp_des.c ****  [..] 
  18:FWLIB/src/stm32f4xx_cryp_des.c ****    (#) Enable The CRYP controller clock using 
  19:FWLIB/src/stm32f4xx_cryp_des.c ****        RCC_AHB2PeriphClockCmd(RCC_AHB2Periph_CRYP, ENABLE); function.
  20:FWLIB/src/stm32f4xx_cryp_des.c ****   
  21:FWLIB/src/stm32f4xx_cryp_des.c ****    (#) Encrypt and decrypt using DES in ECB Mode using CRYP_DES_ECB() function.
  22:FWLIB/src/stm32f4xx_cryp_des.c ****   
  23:FWLIB/src/stm32f4xx_cryp_des.c ****    (#) Encrypt and decrypt using DES in CBC Mode using CRYP_DES_CBC() function.
  24:FWLIB/src/stm32f4xx_cryp_des.c ****   
  25:FWLIB/src/stm32f4xx_cryp_des.c **** @endverbatim
  26:FWLIB/src/stm32f4xx_cryp_des.c ****   *
  27:FWLIB/src/stm32f4xx_cryp_des.c ****   ******************************************************************************
  28:FWLIB/src/stm32f4xx_cryp_des.c ****   * @attention
  29:FWLIB/src/stm32f4xx_cryp_des.c ****   *
  30:FWLIB/src/stm32f4xx_cryp_des.c ****   * <h2><center>&copy; COPYRIGHT 2014 STMicroelectronics</center></h2>
  31:FWLIB/src/stm32f4xx_cryp_des.c ****   *
  32:FWLIB/src/stm32f4xx_cryp_des.c ****   * Licensed under MCD-ST Liberty SW License Agreement V2, (the "License");
  33:FWLIB/src/stm32f4xx_cryp_des.c ****   * You may not use this file except in compliance with the License.
ARM GAS  /tmp/ccKh9sm1.s 			page 2


  34:FWLIB/src/stm32f4xx_cryp_des.c ****   * You may obtain a copy of the License at:
  35:FWLIB/src/stm32f4xx_cryp_des.c ****   *
  36:FWLIB/src/stm32f4xx_cryp_des.c ****   *        http://www.st.com/software_license_agreement_liberty_v2
  37:FWLIB/src/stm32f4xx_cryp_des.c ****   *
  38:FWLIB/src/stm32f4xx_cryp_des.c ****   * Unless required by applicable law or agreed to in writing, software 
  39:FWLIB/src/stm32f4xx_cryp_des.c ****   * distributed under the License is distributed on an "AS IS" BASIS, 
  40:FWLIB/src/stm32f4xx_cryp_des.c ****   * WITHOUT WARRANTIES OR CONDITIONS OF ANY KIND, either express or implied.
  41:FWLIB/src/stm32f4xx_cryp_des.c ****   * See the License for the specific language governing permissions and
  42:FWLIB/src/stm32f4xx_cryp_des.c ****   * limitations under the License.
  43:FWLIB/src/stm32f4xx_cryp_des.c ****   *
  44:FWLIB/src/stm32f4xx_cryp_des.c ****   ******************************************************************************
  45:FWLIB/src/stm32f4xx_cryp_des.c ****   */
  46:FWLIB/src/stm32f4xx_cryp_des.c **** 
  47:FWLIB/src/stm32f4xx_cryp_des.c **** /* Includes ------------------------------------------------------------------*/
  48:FWLIB/src/stm32f4xx_cryp_des.c **** #include "stm32f4xx_cryp.h"
  49:FWLIB/src/stm32f4xx_cryp_des.c **** 
  50:FWLIB/src/stm32f4xx_cryp_des.c **** 
  51:FWLIB/src/stm32f4xx_cryp_des.c **** /** @addtogroup STM32F4xx_StdPeriph_Driver
  52:FWLIB/src/stm32f4xx_cryp_des.c ****   * @{
  53:FWLIB/src/stm32f4xx_cryp_des.c ****   */
  54:FWLIB/src/stm32f4xx_cryp_des.c **** 
  55:FWLIB/src/stm32f4xx_cryp_des.c **** /** @defgroup CRYP 
  56:FWLIB/src/stm32f4xx_cryp_des.c ****   * @brief CRYP driver modules
  57:FWLIB/src/stm32f4xx_cryp_des.c ****   * @{
  58:FWLIB/src/stm32f4xx_cryp_des.c ****   */
  59:FWLIB/src/stm32f4xx_cryp_des.c **** 
  60:FWLIB/src/stm32f4xx_cryp_des.c **** /* Private typedef -----------------------------------------------------------*/
  61:FWLIB/src/stm32f4xx_cryp_des.c **** /* Private define ------------------------------------------------------------*/
  62:FWLIB/src/stm32f4xx_cryp_des.c **** #define DESBUSY_TIMEOUT    ((uint32_t) 0x00010000)
  63:FWLIB/src/stm32f4xx_cryp_des.c **** 
  64:FWLIB/src/stm32f4xx_cryp_des.c **** /* Private macro -------------------------------------------------------------*/
  65:FWLIB/src/stm32f4xx_cryp_des.c **** /* Private variables ---------------------------------------------------------*/
  66:FWLIB/src/stm32f4xx_cryp_des.c **** /* Private function prototypes -----------------------------------------------*/
  67:FWLIB/src/stm32f4xx_cryp_des.c **** /* Private functions ---------------------------------------------------------*/
  68:FWLIB/src/stm32f4xx_cryp_des.c **** 
  69:FWLIB/src/stm32f4xx_cryp_des.c **** 
  70:FWLIB/src/stm32f4xx_cryp_des.c **** /** @defgroup CRYP_Private_Functions
  71:FWLIB/src/stm32f4xx_cryp_des.c ****   * @{
  72:FWLIB/src/stm32f4xx_cryp_des.c ****   */ 
  73:FWLIB/src/stm32f4xx_cryp_des.c **** 
  74:FWLIB/src/stm32f4xx_cryp_des.c **** /** @defgroup CRYP_Group8 High Level DES functions
  75:FWLIB/src/stm32f4xx_cryp_des.c ****  *  @brief   High Level DES functions 
  76:FWLIB/src/stm32f4xx_cryp_des.c ****  *
  77:FWLIB/src/stm32f4xx_cryp_des.c **** @verbatim   
  78:FWLIB/src/stm32f4xx_cryp_des.c ****  ===============================================================================
  79:FWLIB/src/stm32f4xx_cryp_des.c ****                        ##### High Level DES functions #####
  80:FWLIB/src/stm32f4xx_cryp_des.c ****  ===============================================================================
  81:FWLIB/src/stm32f4xx_cryp_des.c **** @endverbatim
  82:FWLIB/src/stm32f4xx_cryp_des.c ****   * @{
  83:FWLIB/src/stm32f4xx_cryp_des.c ****   */
  84:FWLIB/src/stm32f4xx_cryp_des.c **** 
  85:FWLIB/src/stm32f4xx_cryp_des.c **** /**
  86:FWLIB/src/stm32f4xx_cryp_des.c ****   * @brief  Encrypt and decrypt using DES in ECB Mode
  87:FWLIB/src/stm32f4xx_cryp_des.c ****   * @param  Mode: encryption or decryption Mode.
  88:FWLIB/src/stm32f4xx_cryp_des.c ****   *           This parameter can be one of the following values:
  89:FWLIB/src/stm32f4xx_cryp_des.c ****   *            @arg MODE_ENCRYPT: Encryption
  90:FWLIB/src/stm32f4xx_cryp_des.c ****   *            @arg MODE_DECRYPT: Decryption
ARM GAS  /tmp/ccKh9sm1.s 			page 3


  91:FWLIB/src/stm32f4xx_cryp_des.c ****   * @param  Key: Key used for DES algorithm.
  92:FWLIB/src/stm32f4xx_cryp_des.c ****   * @param  Ilength: length of the Input buffer, must be a multiple of 8.
  93:FWLIB/src/stm32f4xx_cryp_des.c ****   * @param  Input: pointer to the Input buffer.
  94:FWLIB/src/stm32f4xx_cryp_des.c ****   * @param  Output: pointer to the returned buffer.
  95:FWLIB/src/stm32f4xx_cryp_des.c ****   * @retval An ErrorStatus enumeration value:
  96:FWLIB/src/stm32f4xx_cryp_des.c ****   *          - SUCCESS: Operation done
  97:FWLIB/src/stm32f4xx_cryp_des.c ****   *          - ERROR: Operation failed
  98:FWLIB/src/stm32f4xx_cryp_des.c ****   */
  99:FWLIB/src/stm32f4xx_cryp_des.c **** ErrorStatus CRYP_DES_ECB(uint8_t Mode, uint8_t Key[8], uint8_t *Input, 
 100:FWLIB/src/stm32f4xx_cryp_des.c ****                          uint32_t Ilength, uint8_t *Output)
 101:FWLIB/src/stm32f4xx_cryp_des.c **** {
  26              		.loc 1 101 0
  27              		.cfi_startproc
  28              		@ args = 4, pretend = 0, frame = 56
  29              		@ frame_needed = 0, uses_anonymous_args = 0
  30              	.LVL0:
  31 0000 2DE9F041 		push	{r4, r5, r6, r7, r8, lr}
  32              	.LCFI0:
  33              		.cfi_def_cfa_offset 24
  34              		.cfi_offset 4, -24
  35              		.cfi_offset 5, -20
  36              		.cfi_offset 6, -16
  37              		.cfi_offset 7, -12
  38              		.cfi_offset 8, -8
  39              		.cfi_offset 14, -4
  40 0004 8EB0     		sub	sp, sp, #56
  41              	.LCFI1:
  42              		.cfi_def_cfa_offset 80
  43 0006 0646     		mov	r6, r0
  44 0008 0D46     		mov	r5, r1
  45 000a 9846     		mov	r8, r3
 102:FWLIB/src/stm32f4xx_cryp_des.c ****   CRYP_InitTypeDef DES_CRYP_InitStructure;
 103:FWLIB/src/stm32f4xx_cryp_des.c ****   CRYP_KeyInitTypeDef DES_CRYP_KeyInitStructure;
 104:FWLIB/src/stm32f4xx_cryp_des.c ****   __IO uint32_t counter = 0;
  46              		.loc 1 104 0
  47 000c 0023     		movs	r3, #0
  48              	.LVL1:
  49 000e 0193     		str	r3, [sp, #4]
  50              	.LVL2:
 105:FWLIB/src/stm32f4xx_cryp_des.c ****   uint32_t busystatus = 0;
 106:FWLIB/src/stm32f4xx_cryp_des.c ****   ErrorStatus status = SUCCESS;
 107:FWLIB/src/stm32f4xx_cryp_des.c ****   uint32_t keyaddr    = (uint32_t)Key;
 108:FWLIB/src/stm32f4xx_cryp_des.c ****   uint32_t inputaddr  = (uint32_t)Input;
  51              		.loc 1 108 0
  52 0010 1446     		mov	r4, r2
  53              	.LVL3:
 109:FWLIB/src/stm32f4xx_cryp_des.c ****   uint32_t outputaddr = (uint32_t)Output;
  54              		.loc 1 109 0
  55 0012 149F     		ldr	r7, [sp, #80]
  56              	.LVL4:
 110:FWLIB/src/stm32f4xx_cryp_des.c ****   uint32_t i = 0;
 111:FWLIB/src/stm32f4xx_cryp_des.c **** 
 112:FWLIB/src/stm32f4xx_cryp_des.c ****   /* Crypto structures initialisation*/
 113:FWLIB/src/stm32f4xx_cryp_des.c ****   CRYP_KeyStructInit(&DES_CRYP_KeyInitStructure);
  57              		.loc 1 113 0
  58 0014 02A8     		add	r0, sp, #8
  59              	.LVL5:
ARM GAS  /tmp/ccKh9sm1.s 			page 4


  60 0016 FFF7FEFF 		bl	CRYP_KeyStructInit
  61              	.LVL6:
 114:FWLIB/src/stm32f4xx_cryp_des.c **** 
 115:FWLIB/src/stm32f4xx_cryp_des.c ****   /* Crypto Init for Encryption process */
 116:FWLIB/src/stm32f4xx_cryp_des.c ****   if( Mode == MODE_ENCRYPT ) /* DES encryption */
  62              		.loc 1 116 0
  63 001a 012E     		cmp	r6, #1
  64 001c 1CD0     		beq	.L14
 117:FWLIB/src/stm32f4xx_cryp_des.c ****   {
 118:FWLIB/src/stm32f4xx_cryp_des.c ****      DES_CRYP_InitStructure.CRYP_AlgoDir  = CRYP_AlgoDir_Encrypt;
 119:FWLIB/src/stm32f4xx_cryp_des.c ****   }
 120:FWLIB/src/stm32f4xx_cryp_des.c ****   else/* if( Mode == MODE_DECRYPT )*/ /* DES decryption */
 121:FWLIB/src/stm32f4xx_cryp_des.c ****   {      
 122:FWLIB/src/stm32f4xx_cryp_des.c ****      DES_CRYP_InitStructure.CRYP_AlgoDir  = CRYP_AlgoDir_Decrypt;
  65              		.loc 1 122 0
  66 001e 0423     		movs	r3, #4
  67 0020 0A93     		str	r3, [sp, #40]
  68              	.L3:
 123:FWLIB/src/stm32f4xx_cryp_des.c ****   }
 124:FWLIB/src/stm32f4xx_cryp_des.c **** 
 125:FWLIB/src/stm32f4xx_cryp_des.c ****   DES_CRYP_InitStructure.CRYP_AlgoMode = CRYP_AlgoMode_DES_ECB;
  69              		.loc 1 125 0
  70 0022 1023     		movs	r3, #16
  71 0024 0B93     		str	r3, [sp, #44]
 126:FWLIB/src/stm32f4xx_cryp_des.c ****   DES_CRYP_InitStructure.CRYP_DataType = CRYP_DataType_8b;
  72              		.loc 1 126 0
  73 0026 8023     		movs	r3, #128
  74 0028 0C93     		str	r3, [sp, #48]
 127:FWLIB/src/stm32f4xx_cryp_des.c ****   CRYP_Init(&DES_CRYP_InitStructure);
  75              		.loc 1 127 0
  76 002a 0AA8     		add	r0, sp, #40
  77 002c FFF7FEFF 		bl	CRYP_Init
  78              	.LVL7:
 128:FWLIB/src/stm32f4xx_cryp_des.c **** 
 129:FWLIB/src/stm32f4xx_cryp_des.c ****   /* Key Initialisation */
 130:FWLIB/src/stm32f4xx_cryp_des.c ****   DES_CRYP_KeyInitStructure.CRYP_Key1Left = __REV(*(uint32_t*)(keyaddr));
  79              		.loc 1 130 0
  80 0030 2B68     		ldr	r3, [r5]
  81              	.LVL8:
  82              	.LBB14:
  83              	.LBB15:
  84              		.file 2 "CORE/core_cmInstr.h"
   1:CORE/core_cmInstr.h **** /**************************************************************************//**
   2:CORE/core_cmInstr.h ****  * @file     core_cmInstr.h
   3:CORE/core_cmInstr.h ****  * @brief    CMSIS Cortex-M Core Instruction Access Header File
   4:CORE/core_cmInstr.h ****  * @version  V3.20
   5:CORE/core_cmInstr.h ****  * @date     05. March 2013
   6:CORE/core_cmInstr.h ****  *
   7:CORE/core_cmInstr.h ****  * @note
   8:CORE/core_cmInstr.h ****  *
   9:CORE/core_cmInstr.h ****  ******************************************************************************/
  10:CORE/core_cmInstr.h **** /* Copyright (c) 2009 - 2013 ARM LIMITED
  11:CORE/core_cmInstr.h **** 
  12:CORE/core_cmInstr.h ****    All rights reserved.
  13:CORE/core_cmInstr.h ****    Redistribution and use in source and binary forms, with or without
  14:CORE/core_cmInstr.h ****    modification, are permitted provided that the following conditions are met:
  15:CORE/core_cmInstr.h ****    - Redistributions of source code must retain the above copyright
ARM GAS  /tmp/ccKh9sm1.s 			page 5


  16:CORE/core_cmInstr.h ****      notice, this list of conditions and the following disclaimer.
  17:CORE/core_cmInstr.h ****    - Redistributions in binary form must reproduce the above copyright
  18:CORE/core_cmInstr.h ****      notice, this list of conditions and the following disclaimer in the
  19:CORE/core_cmInstr.h ****      documentation and/or other materials provided with the distribution.
  20:CORE/core_cmInstr.h ****    - Neither the name of ARM nor the names of its contributors may be used
  21:CORE/core_cmInstr.h ****      to endorse or promote products derived from this software without
  22:CORE/core_cmInstr.h ****      specific prior written permission.
  23:CORE/core_cmInstr.h ****    *
  24:CORE/core_cmInstr.h ****    THIS SOFTWARE IS PROVIDED BY THE COPYRIGHT HOLDERS AND CONTRIBUTORS "AS IS"
  25:CORE/core_cmInstr.h ****    AND ANY EXPRESS OR IMPLIED WARRANTIES, INCLUDING, BUT NOT LIMITED TO, THE
  26:CORE/core_cmInstr.h ****    IMPLIED WARRANTIES OF MERCHANTABILITY AND FITNESS FOR A PARTICULAR PURPOSE
  27:CORE/core_cmInstr.h ****    ARE DISCLAIMED. IN NO EVENT SHALL COPYRIGHT HOLDERS AND CONTRIBUTORS BE
  28:CORE/core_cmInstr.h ****    LIABLE FOR ANY DIRECT, INDIRECT, INCIDENTAL, SPECIAL, EXEMPLARY, OR
  29:CORE/core_cmInstr.h ****    CONSEQUENTIAL DAMAGES (INCLUDING, BUT NOT LIMITED TO, PROCUREMENT OF
  30:CORE/core_cmInstr.h ****    SUBSTITUTE GOODS OR SERVICES; LOSS OF USE, DATA, OR PROFITS; OR BUSINESS
  31:CORE/core_cmInstr.h ****    INTERRUPTION) HOWEVER CAUSED AND ON ANY THEORY OF LIABILITY, WHETHER IN
  32:CORE/core_cmInstr.h ****    CONTRACT, STRICT LIABILITY, OR TORT (INCLUDING NEGLIGENCE OR OTHERWISE)
  33:CORE/core_cmInstr.h ****    ARISING IN ANY WAY OUT OF THE USE OF THIS SOFTWARE, EVEN IF ADVISED OF THE
  34:CORE/core_cmInstr.h ****    POSSIBILITY OF SUCH DAMAGE.
  35:CORE/core_cmInstr.h ****    ---------------------------------------------------------------------------*/
  36:CORE/core_cmInstr.h **** 
  37:CORE/core_cmInstr.h **** 
  38:CORE/core_cmInstr.h **** #ifndef __CORE_CMINSTR_H
  39:CORE/core_cmInstr.h **** #define __CORE_CMINSTR_H
  40:CORE/core_cmInstr.h **** 
  41:CORE/core_cmInstr.h **** 
  42:CORE/core_cmInstr.h **** /* ##########################  Core Instruction Access  ######################### */
  43:CORE/core_cmInstr.h **** /** \defgroup CMSIS_Core_InstructionInterface CMSIS Core Instruction Interface
  44:CORE/core_cmInstr.h ****   Access to dedicated instructions
  45:CORE/core_cmInstr.h ****   @{
  46:CORE/core_cmInstr.h **** */
  47:CORE/core_cmInstr.h **** 
  48:CORE/core_cmInstr.h **** #if   defined ( __CC_ARM ) /*------------------RealView Compiler -----------------*/
  49:CORE/core_cmInstr.h **** /* ARM armcc specific functions */
  50:CORE/core_cmInstr.h **** 
  51:CORE/core_cmInstr.h **** #if (__ARMCC_VERSION < 400677)
  52:CORE/core_cmInstr.h ****   #error "Please use ARM Compiler Toolchain V4.0.677 or later!"
  53:CORE/core_cmInstr.h **** #endif
  54:CORE/core_cmInstr.h **** 
  55:CORE/core_cmInstr.h **** 
  56:CORE/core_cmInstr.h **** /** \brief  No Operation
  57:CORE/core_cmInstr.h **** 
  58:CORE/core_cmInstr.h ****     No Operation does nothing. This instruction can be used for code alignment purposes.
  59:CORE/core_cmInstr.h ****  */
  60:CORE/core_cmInstr.h **** #define __NOP                             __nop
  61:CORE/core_cmInstr.h **** 
  62:CORE/core_cmInstr.h **** 
  63:CORE/core_cmInstr.h **** /** \brief  Wait For Interrupt
  64:CORE/core_cmInstr.h **** 
  65:CORE/core_cmInstr.h ****     Wait For Interrupt is a hint instruction that suspends execution
  66:CORE/core_cmInstr.h ****     until one of a number of events occurs.
  67:CORE/core_cmInstr.h ****  */
  68:CORE/core_cmInstr.h **** #define __WFI                             __wfi
  69:CORE/core_cmInstr.h **** 
  70:CORE/core_cmInstr.h **** 
  71:CORE/core_cmInstr.h **** /** \brief  Wait For Event
  72:CORE/core_cmInstr.h **** 
ARM GAS  /tmp/ccKh9sm1.s 			page 6


  73:CORE/core_cmInstr.h ****     Wait For Event is a hint instruction that permits the processor to enter
  74:CORE/core_cmInstr.h ****     a low-power state until one of a number of events occurs.
  75:CORE/core_cmInstr.h ****  */
  76:CORE/core_cmInstr.h **** #define __WFE                             __wfe
  77:CORE/core_cmInstr.h **** 
  78:CORE/core_cmInstr.h **** 
  79:CORE/core_cmInstr.h **** /** \brief  Send Event
  80:CORE/core_cmInstr.h **** 
  81:CORE/core_cmInstr.h ****     Send Event is a hint instruction. It causes an event to be signaled to the CPU.
  82:CORE/core_cmInstr.h ****  */
  83:CORE/core_cmInstr.h **** #define __SEV                             __sev
  84:CORE/core_cmInstr.h **** 
  85:CORE/core_cmInstr.h **** 
  86:CORE/core_cmInstr.h **** /** \brief  Instruction Synchronization Barrier
  87:CORE/core_cmInstr.h **** 
  88:CORE/core_cmInstr.h ****     Instruction Synchronization Barrier flushes the pipeline in the processor,
  89:CORE/core_cmInstr.h ****     so that all instructions following the ISB are fetched from cache or
  90:CORE/core_cmInstr.h ****     memory, after the instruction has been completed.
  91:CORE/core_cmInstr.h ****  */
  92:CORE/core_cmInstr.h **** #define __ISB()                           __isb(0xF)
  93:CORE/core_cmInstr.h **** 
  94:CORE/core_cmInstr.h **** 
  95:CORE/core_cmInstr.h **** /** \brief  Data Synchronization Barrier
  96:CORE/core_cmInstr.h **** 
  97:CORE/core_cmInstr.h ****     This function acts as a special kind of Data Memory Barrier.
  98:CORE/core_cmInstr.h ****     It completes when all explicit memory accesses before this instruction complete.
  99:CORE/core_cmInstr.h ****  */
 100:CORE/core_cmInstr.h **** #define __DSB()                           __dsb(0xF)
 101:CORE/core_cmInstr.h **** 
 102:CORE/core_cmInstr.h **** 
 103:CORE/core_cmInstr.h **** /** \brief  Data Memory Barrier
 104:CORE/core_cmInstr.h **** 
 105:CORE/core_cmInstr.h ****     This function ensures the apparent order of the explicit memory operations before
 106:CORE/core_cmInstr.h ****     and after the instruction, without ensuring their completion.
 107:CORE/core_cmInstr.h ****  */
 108:CORE/core_cmInstr.h **** #define __DMB()                           __dmb(0xF)
 109:CORE/core_cmInstr.h **** 
 110:CORE/core_cmInstr.h **** 
 111:CORE/core_cmInstr.h **** /** \brief  Reverse byte order (32 bit)
 112:CORE/core_cmInstr.h **** 
 113:CORE/core_cmInstr.h ****     This function reverses the byte order in integer value.
 114:CORE/core_cmInstr.h **** 
 115:CORE/core_cmInstr.h ****     \param [in]    value  Value to reverse
 116:CORE/core_cmInstr.h ****     \return               Reversed value
 117:CORE/core_cmInstr.h ****  */
 118:CORE/core_cmInstr.h **** #define __REV                             __rev
 119:CORE/core_cmInstr.h **** 
 120:CORE/core_cmInstr.h **** 
 121:CORE/core_cmInstr.h **** /** \brief  Reverse byte order (16 bit)
 122:CORE/core_cmInstr.h **** 
 123:CORE/core_cmInstr.h ****     This function reverses the byte order in two unsigned short values.
 124:CORE/core_cmInstr.h **** 
 125:CORE/core_cmInstr.h ****     \param [in]    value  Value to reverse
 126:CORE/core_cmInstr.h ****     \return               Reversed value
 127:CORE/core_cmInstr.h ****  */
 128:CORE/core_cmInstr.h **** #ifndef __NO_EMBEDDED_ASM
 129:CORE/core_cmInstr.h **** __attribute__((section(".rev16_text"))) __STATIC_INLINE __ASM uint32_t __REV16(uint32_t value)
ARM GAS  /tmp/ccKh9sm1.s 			page 7


 130:CORE/core_cmInstr.h **** {
 131:CORE/core_cmInstr.h ****   rev16 r0, r0
 132:CORE/core_cmInstr.h ****   bx lr
 133:CORE/core_cmInstr.h **** }
 134:CORE/core_cmInstr.h **** #endif
 135:CORE/core_cmInstr.h **** 
 136:CORE/core_cmInstr.h **** /** \brief  Reverse byte order in signed short value
 137:CORE/core_cmInstr.h **** 
 138:CORE/core_cmInstr.h ****     This function reverses the byte order in a signed short value with sign extension to integer.
 139:CORE/core_cmInstr.h **** 
 140:CORE/core_cmInstr.h ****     \param [in]    value  Value to reverse
 141:CORE/core_cmInstr.h ****     \return               Reversed value
 142:CORE/core_cmInstr.h ****  */
 143:CORE/core_cmInstr.h **** #ifndef __NO_EMBEDDED_ASM
 144:CORE/core_cmInstr.h **** __attribute__((section(".revsh_text"))) __STATIC_INLINE __ASM int32_t __REVSH(int32_t value)
 145:CORE/core_cmInstr.h **** {
 146:CORE/core_cmInstr.h ****   revsh r0, r0
 147:CORE/core_cmInstr.h ****   bx lr
 148:CORE/core_cmInstr.h **** }
 149:CORE/core_cmInstr.h **** #endif
 150:CORE/core_cmInstr.h **** 
 151:CORE/core_cmInstr.h **** 
 152:CORE/core_cmInstr.h **** /** \brief  Rotate Right in unsigned value (32 bit)
 153:CORE/core_cmInstr.h **** 
 154:CORE/core_cmInstr.h ****     This function Rotate Right (immediate) provides the value of the contents of a register rotated
 155:CORE/core_cmInstr.h **** 
 156:CORE/core_cmInstr.h ****     \param [in]    value  Value to rotate
 157:CORE/core_cmInstr.h ****     \param [in]    value  Number of Bits to rotate
 158:CORE/core_cmInstr.h ****     \return               Rotated value
 159:CORE/core_cmInstr.h ****  */
 160:CORE/core_cmInstr.h **** #define __ROR                             __ror
 161:CORE/core_cmInstr.h **** 
 162:CORE/core_cmInstr.h **** 
 163:CORE/core_cmInstr.h **** /** \brief  Breakpoint
 164:CORE/core_cmInstr.h **** 
 165:CORE/core_cmInstr.h ****     This function causes the processor to enter Debug state.
 166:CORE/core_cmInstr.h ****     Debug tools can use this to investigate system state when the instruction at a particular addre
 167:CORE/core_cmInstr.h **** 
 168:CORE/core_cmInstr.h ****     \param [in]    value  is ignored by the processor.
 169:CORE/core_cmInstr.h ****                    If required, a debugger can use it to store additional information about the bre
 170:CORE/core_cmInstr.h ****  */
 171:CORE/core_cmInstr.h **** #define __BKPT(value)                       __breakpoint(value)
 172:CORE/core_cmInstr.h **** 
 173:CORE/core_cmInstr.h **** 
 174:CORE/core_cmInstr.h **** #if       (__CORTEX_M >= 0x03)
 175:CORE/core_cmInstr.h **** 
 176:CORE/core_cmInstr.h **** /** \brief  Reverse bit order of value
 177:CORE/core_cmInstr.h **** 
 178:CORE/core_cmInstr.h ****     This function reverses the bit order of the given value.
 179:CORE/core_cmInstr.h **** 
 180:CORE/core_cmInstr.h ****     \param [in]    value  Value to reverse
 181:CORE/core_cmInstr.h ****     \return               Reversed value
 182:CORE/core_cmInstr.h ****  */
 183:CORE/core_cmInstr.h **** #define __RBIT                            __rbit
 184:CORE/core_cmInstr.h **** 
 185:CORE/core_cmInstr.h **** 
 186:CORE/core_cmInstr.h **** /** \brief  LDR Exclusive (8 bit)
ARM GAS  /tmp/ccKh9sm1.s 			page 8


 187:CORE/core_cmInstr.h **** 
 188:CORE/core_cmInstr.h ****     This function performs a exclusive LDR command for 8 bit value.
 189:CORE/core_cmInstr.h **** 
 190:CORE/core_cmInstr.h ****     \param [in]    ptr  Pointer to data
 191:CORE/core_cmInstr.h ****     \return             value of type uint8_t at (*ptr)
 192:CORE/core_cmInstr.h ****  */
 193:CORE/core_cmInstr.h **** #define __LDREXB(ptr)                     ((uint8_t ) __ldrex(ptr))
 194:CORE/core_cmInstr.h **** 
 195:CORE/core_cmInstr.h **** 
 196:CORE/core_cmInstr.h **** /** \brief  LDR Exclusive (16 bit)
 197:CORE/core_cmInstr.h **** 
 198:CORE/core_cmInstr.h ****     This function performs a exclusive LDR command for 16 bit values.
 199:CORE/core_cmInstr.h **** 
 200:CORE/core_cmInstr.h ****     \param [in]    ptr  Pointer to data
 201:CORE/core_cmInstr.h ****     \return        value of type uint16_t at (*ptr)
 202:CORE/core_cmInstr.h ****  */
 203:CORE/core_cmInstr.h **** #define __LDREXH(ptr)                     ((uint16_t) __ldrex(ptr))
 204:CORE/core_cmInstr.h **** 
 205:CORE/core_cmInstr.h **** 
 206:CORE/core_cmInstr.h **** /** \brief  LDR Exclusive (32 bit)
 207:CORE/core_cmInstr.h **** 
 208:CORE/core_cmInstr.h ****     This function performs a exclusive LDR command for 32 bit values.
 209:CORE/core_cmInstr.h **** 
 210:CORE/core_cmInstr.h ****     \param [in]    ptr  Pointer to data
 211:CORE/core_cmInstr.h ****     \return        value of type uint32_t at (*ptr)
 212:CORE/core_cmInstr.h ****  */
 213:CORE/core_cmInstr.h **** #define __LDREXW(ptr)                     ((uint32_t ) __ldrex(ptr))
 214:CORE/core_cmInstr.h **** 
 215:CORE/core_cmInstr.h **** 
 216:CORE/core_cmInstr.h **** /** \brief  STR Exclusive (8 bit)
 217:CORE/core_cmInstr.h **** 
 218:CORE/core_cmInstr.h ****     This function performs a exclusive STR command for 8 bit values.
 219:CORE/core_cmInstr.h **** 
 220:CORE/core_cmInstr.h ****     \param [in]  value  Value to store
 221:CORE/core_cmInstr.h ****     \param [in]    ptr  Pointer to location
 222:CORE/core_cmInstr.h ****     \return          0  Function succeeded
 223:CORE/core_cmInstr.h ****     \return          1  Function failed
 224:CORE/core_cmInstr.h ****  */
 225:CORE/core_cmInstr.h **** #define __STREXB(value, ptr)              __strex(value, ptr)
 226:CORE/core_cmInstr.h **** 
 227:CORE/core_cmInstr.h **** 
 228:CORE/core_cmInstr.h **** /** \brief  STR Exclusive (16 bit)
 229:CORE/core_cmInstr.h **** 
 230:CORE/core_cmInstr.h ****     This function performs a exclusive STR command for 16 bit values.
 231:CORE/core_cmInstr.h **** 
 232:CORE/core_cmInstr.h ****     \param [in]  value  Value to store
 233:CORE/core_cmInstr.h ****     \param [in]    ptr  Pointer to location
 234:CORE/core_cmInstr.h ****     \return          0  Function succeeded
 235:CORE/core_cmInstr.h ****     \return          1  Function failed
 236:CORE/core_cmInstr.h ****  */
 237:CORE/core_cmInstr.h **** #define __STREXH(value, ptr)              __strex(value, ptr)
 238:CORE/core_cmInstr.h **** 
 239:CORE/core_cmInstr.h **** 
 240:CORE/core_cmInstr.h **** /** \brief  STR Exclusive (32 bit)
 241:CORE/core_cmInstr.h **** 
 242:CORE/core_cmInstr.h ****     This function performs a exclusive STR command for 32 bit values.
 243:CORE/core_cmInstr.h **** 
ARM GAS  /tmp/ccKh9sm1.s 			page 9


 244:CORE/core_cmInstr.h ****     \param [in]  value  Value to store
 245:CORE/core_cmInstr.h ****     \param [in]    ptr  Pointer to location
 246:CORE/core_cmInstr.h ****     \return          0  Function succeeded
 247:CORE/core_cmInstr.h ****     \return          1  Function failed
 248:CORE/core_cmInstr.h ****  */
 249:CORE/core_cmInstr.h **** #define __STREXW(value, ptr)              __strex(value, ptr)
 250:CORE/core_cmInstr.h **** 
 251:CORE/core_cmInstr.h **** 
 252:CORE/core_cmInstr.h **** /** \brief  Remove the exclusive lock
 253:CORE/core_cmInstr.h **** 
 254:CORE/core_cmInstr.h ****     This function removes the exclusive lock which is created by LDREX.
 255:CORE/core_cmInstr.h **** 
 256:CORE/core_cmInstr.h ****  */
 257:CORE/core_cmInstr.h **** #define __CLREX                           __clrex
 258:CORE/core_cmInstr.h **** 
 259:CORE/core_cmInstr.h **** 
 260:CORE/core_cmInstr.h **** /** \brief  Signed Saturate
 261:CORE/core_cmInstr.h **** 
 262:CORE/core_cmInstr.h ****     This function saturates a signed value.
 263:CORE/core_cmInstr.h **** 
 264:CORE/core_cmInstr.h ****     \param [in]  value  Value to be saturated
 265:CORE/core_cmInstr.h ****     \param [in]    sat  Bit position to saturate to (1..32)
 266:CORE/core_cmInstr.h ****     \return             Saturated value
 267:CORE/core_cmInstr.h ****  */
 268:CORE/core_cmInstr.h **** #define __SSAT                            __ssat
 269:CORE/core_cmInstr.h **** 
 270:CORE/core_cmInstr.h **** 
 271:CORE/core_cmInstr.h **** /** \brief  Unsigned Saturate
 272:CORE/core_cmInstr.h **** 
 273:CORE/core_cmInstr.h ****     This function saturates an unsigned value.
 274:CORE/core_cmInstr.h **** 
 275:CORE/core_cmInstr.h ****     \param [in]  value  Value to be saturated
 276:CORE/core_cmInstr.h ****     \param [in]    sat  Bit position to saturate to (0..31)
 277:CORE/core_cmInstr.h ****     \return             Saturated value
 278:CORE/core_cmInstr.h ****  */
 279:CORE/core_cmInstr.h **** #define __USAT                            __usat
 280:CORE/core_cmInstr.h **** 
 281:CORE/core_cmInstr.h **** 
 282:CORE/core_cmInstr.h **** /** \brief  Count leading zeros
 283:CORE/core_cmInstr.h **** 
 284:CORE/core_cmInstr.h ****     This function counts the number of leading zeros of a data value.
 285:CORE/core_cmInstr.h **** 
 286:CORE/core_cmInstr.h ****     \param [in]  value  Value to count the leading zeros
 287:CORE/core_cmInstr.h ****     \return             number of leading zeros in value
 288:CORE/core_cmInstr.h ****  */
 289:CORE/core_cmInstr.h **** #define __CLZ                             __clz
 290:CORE/core_cmInstr.h **** 
 291:CORE/core_cmInstr.h **** #endif /* (__CORTEX_M >= 0x03) */
 292:CORE/core_cmInstr.h **** 
 293:CORE/core_cmInstr.h **** 
 294:CORE/core_cmInstr.h **** 
 295:CORE/core_cmInstr.h **** #elif defined ( __ICCARM__ ) /*------------------ ICC Compiler -------------------*/
 296:CORE/core_cmInstr.h **** /* IAR iccarm specific functions */
 297:CORE/core_cmInstr.h **** 
 298:CORE/core_cmInstr.h **** #include <cmsis_iar.h>
 299:CORE/core_cmInstr.h **** 
 300:CORE/core_cmInstr.h **** 
ARM GAS  /tmp/ccKh9sm1.s 			page 10


 301:CORE/core_cmInstr.h **** #elif defined ( __TMS470__ ) /*---------------- TI CCS Compiler ------------------*/
 302:CORE/core_cmInstr.h **** /* TI CCS specific functions */
 303:CORE/core_cmInstr.h **** 
 304:CORE/core_cmInstr.h **** #include <cmsis_ccs.h>
 305:CORE/core_cmInstr.h **** 
 306:CORE/core_cmInstr.h **** 
 307:CORE/core_cmInstr.h **** #elif defined ( __GNUC__ ) /*------------------ GNU Compiler ---------------------*/
 308:CORE/core_cmInstr.h **** /* GNU gcc specific functions */
 309:CORE/core_cmInstr.h **** 
 310:CORE/core_cmInstr.h **** /* Define macros for porting to both thumb1 and thumb2.
 311:CORE/core_cmInstr.h ****  * For thumb1, use low register (r0-r7), specified by constrant "l"
 312:CORE/core_cmInstr.h ****  * Otherwise, use general registers, specified by constrant "r" */
 313:CORE/core_cmInstr.h **** #if defined (__thumb__) && !defined (__thumb2__)
 314:CORE/core_cmInstr.h **** #define __CMSIS_GCC_OUT_REG(r) "=l" (r)
 315:CORE/core_cmInstr.h **** #define __CMSIS_GCC_USE_REG(r) "l" (r)
 316:CORE/core_cmInstr.h **** #else
 317:CORE/core_cmInstr.h **** #define __CMSIS_GCC_OUT_REG(r) "=r" (r)
 318:CORE/core_cmInstr.h **** #define __CMSIS_GCC_USE_REG(r) "r" (r)
 319:CORE/core_cmInstr.h **** #endif
 320:CORE/core_cmInstr.h **** 
 321:CORE/core_cmInstr.h **** /** \brief  No Operation
 322:CORE/core_cmInstr.h **** 
 323:CORE/core_cmInstr.h ****     No Operation does nothing. This instruction can be used for code alignment purposes.
 324:CORE/core_cmInstr.h ****  */
 325:CORE/core_cmInstr.h **** __attribute__( ( always_inline ) ) __STATIC_INLINE void __NOP(void)
 326:CORE/core_cmInstr.h **** {
 327:CORE/core_cmInstr.h ****   __ASM volatile ("nop");
 328:CORE/core_cmInstr.h **** }
 329:CORE/core_cmInstr.h **** 
 330:CORE/core_cmInstr.h **** 
 331:CORE/core_cmInstr.h **** /** \brief  Wait For Interrupt
 332:CORE/core_cmInstr.h **** 
 333:CORE/core_cmInstr.h ****     Wait For Interrupt is a hint instruction that suspends execution
 334:CORE/core_cmInstr.h ****     until one of a number of events occurs.
 335:CORE/core_cmInstr.h ****  */
 336:CORE/core_cmInstr.h **** __attribute__( ( always_inline ) ) __STATIC_INLINE void __WFI(void)
 337:CORE/core_cmInstr.h **** {
 338:CORE/core_cmInstr.h ****   __ASM volatile ("wfi");
 339:CORE/core_cmInstr.h **** }
 340:CORE/core_cmInstr.h **** 
 341:CORE/core_cmInstr.h **** 
 342:CORE/core_cmInstr.h **** /** \brief  Wait For Event
 343:CORE/core_cmInstr.h **** 
 344:CORE/core_cmInstr.h ****     Wait For Event is a hint instruction that permits the processor to enter
 345:CORE/core_cmInstr.h ****     a low-power state until one of a number of events occurs.
 346:CORE/core_cmInstr.h ****  */
 347:CORE/core_cmInstr.h **** __attribute__( ( always_inline ) ) __STATIC_INLINE void __WFE(void)
 348:CORE/core_cmInstr.h **** {
 349:CORE/core_cmInstr.h ****   __ASM volatile ("wfe");
 350:CORE/core_cmInstr.h **** }
 351:CORE/core_cmInstr.h **** 
 352:CORE/core_cmInstr.h **** 
 353:CORE/core_cmInstr.h **** /** \brief  Send Event
 354:CORE/core_cmInstr.h **** 
 355:CORE/core_cmInstr.h ****     Send Event is a hint instruction. It causes an event to be signaled to the CPU.
 356:CORE/core_cmInstr.h ****  */
 357:CORE/core_cmInstr.h **** __attribute__( ( always_inline ) ) __STATIC_INLINE void __SEV(void)
ARM GAS  /tmp/ccKh9sm1.s 			page 11


 358:CORE/core_cmInstr.h **** {
 359:CORE/core_cmInstr.h ****   __ASM volatile ("sev");
 360:CORE/core_cmInstr.h **** }
 361:CORE/core_cmInstr.h **** 
 362:CORE/core_cmInstr.h **** 
 363:CORE/core_cmInstr.h **** /** \brief  Instruction Synchronization Barrier
 364:CORE/core_cmInstr.h **** 
 365:CORE/core_cmInstr.h ****     Instruction Synchronization Barrier flushes the pipeline in the processor,
 366:CORE/core_cmInstr.h ****     so that all instructions following the ISB are fetched from cache or
 367:CORE/core_cmInstr.h ****     memory, after the instruction has been completed.
 368:CORE/core_cmInstr.h ****  */
 369:CORE/core_cmInstr.h **** __attribute__( ( always_inline ) ) __STATIC_INLINE void __ISB(void)
 370:CORE/core_cmInstr.h **** {
 371:CORE/core_cmInstr.h ****   __ASM volatile ("isb");
 372:CORE/core_cmInstr.h **** }
 373:CORE/core_cmInstr.h **** 
 374:CORE/core_cmInstr.h **** 
 375:CORE/core_cmInstr.h **** /** \brief  Data Synchronization Barrier
 376:CORE/core_cmInstr.h **** 
 377:CORE/core_cmInstr.h ****     This function acts as a special kind of Data Memory Barrier.
 378:CORE/core_cmInstr.h ****     It completes when all explicit memory accesses before this instruction complete.
 379:CORE/core_cmInstr.h ****  */
 380:CORE/core_cmInstr.h **** __attribute__( ( always_inline ) ) __STATIC_INLINE void __DSB(void)
 381:CORE/core_cmInstr.h **** {
 382:CORE/core_cmInstr.h ****   __ASM volatile ("dsb");
 383:CORE/core_cmInstr.h **** }
 384:CORE/core_cmInstr.h **** 
 385:CORE/core_cmInstr.h **** 
 386:CORE/core_cmInstr.h **** /** \brief  Data Memory Barrier
 387:CORE/core_cmInstr.h **** 
 388:CORE/core_cmInstr.h ****     This function ensures the apparent order of the explicit memory operations before
 389:CORE/core_cmInstr.h ****     and after the instruction, without ensuring their completion.
 390:CORE/core_cmInstr.h ****  */
 391:CORE/core_cmInstr.h **** __attribute__( ( always_inline ) ) __STATIC_INLINE void __DMB(void)
 392:CORE/core_cmInstr.h **** {
 393:CORE/core_cmInstr.h ****   __ASM volatile ("dmb");
 394:CORE/core_cmInstr.h **** }
 395:CORE/core_cmInstr.h **** 
 396:CORE/core_cmInstr.h **** 
 397:CORE/core_cmInstr.h **** /** \brief  Reverse byte order (32 bit)
 398:CORE/core_cmInstr.h **** 
 399:CORE/core_cmInstr.h ****     This function reverses the byte order in integer value.
 400:CORE/core_cmInstr.h **** 
 401:CORE/core_cmInstr.h ****     \param [in]    value  Value to reverse
 402:CORE/core_cmInstr.h ****     \return               Reversed value
 403:CORE/core_cmInstr.h ****  */
 404:CORE/core_cmInstr.h **** __attribute__( ( always_inline ) ) __STATIC_INLINE uint32_t __REV(uint32_t value)
 405:CORE/core_cmInstr.h **** {
 406:CORE/core_cmInstr.h **** #if (__GNUC__ > 4) || (__GNUC__ == 4 && __GNUC_MINOR__ >= 5)
 407:CORE/core_cmInstr.h ****   return __builtin_bswap32(value);
  85              		.loc 2 407 0
  86 0032 1BBA     		rev	r3, r3
  87              	.LVL9:
  88              	.LBE15:
  89              	.LBE14:
  90              		.loc 1 130 0
  91 0034 0493     		str	r3, [sp, #16]
ARM GAS  /tmp/ccKh9sm1.s 			page 12


  92              	.LVL10:
 131:FWLIB/src/stm32f4xx_cryp_des.c ****   keyaddr+=4;
 132:FWLIB/src/stm32f4xx_cryp_des.c ****   DES_CRYP_KeyInitStructure.CRYP_Key1Right= __REV(*(uint32_t*)(keyaddr));
  93              		.loc 1 132 0
  94 0036 6B68     		ldr	r3, [r5, #4]
  95              	.LVL11:
  96              	.LBB16:
  97              	.LBB17:
  98              		.loc 2 407 0
  99 0038 1BBA     		rev	r3, r3
 100              	.LVL12:
 101              	.LBE17:
 102              	.LBE16:
 103              		.loc 1 132 0
 104 003a 0593     		str	r3, [sp, #20]
 133:FWLIB/src/stm32f4xx_cryp_des.c ****   CRYP_KeyInit(& DES_CRYP_KeyInitStructure);
 105              		.loc 1 133 0
 106 003c 02A8     		add	r0, sp, #8
 107 003e FFF7FEFF 		bl	CRYP_KeyInit
 108              	.LVL13:
 134:FWLIB/src/stm32f4xx_cryp_des.c **** 
 135:FWLIB/src/stm32f4xx_cryp_des.c ****   /* Flush IN/OUT FIFO */
 136:FWLIB/src/stm32f4xx_cryp_des.c ****   CRYP_FIFOFlush();
 109              		.loc 1 136 0
 110 0042 FFF7FEFF 		bl	CRYP_FIFOFlush
 111              	.LVL14:
 137:FWLIB/src/stm32f4xx_cryp_des.c **** 
 138:FWLIB/src/stm32f4xx_cryp_des.c ****   /* Enable Crypto processor */
 139:FWLIB/src/stm32f4xx_cryp_des.c ****   CRYP_Cmd(ENABLE);
 112              		.loc 1 139 0
 113 0046 0120     		movs	r0, #1
 114 0048 FFF7FEFF 		bl	CRYP_Cmd
 115              	.LVL15:
 140:FWLIB/src/stm32f4xx_cryp_des.c **** 
 141:FWLIB/src/stm32f4xx_cryp_des.c ****   if(CRYP_GetCmdStatus() == DISABLE)
 116              		.loc 1 141 0
 117 004c FFF7FEFF 		bl	CRYP_GetCmdStatus
 118              	.LVL16:
 119 0050 88B3     		cbz	r0, .L11
 120 0052 0025     		movs	r5, #0
 121              	.LVL17:
 122 0054 0126     		movs	r6, #1
 123 0056 05E0     		b	.L5
 124              	.LVL18:
 125              	.L14:
 118:FWLIB/src/stm32f4xx_cryp_des.c ****   }
 126              		.loc 1 118 0
 127 0058 0023     		movs	r3, #0
 128 005a 0A93     		str	r3, [sp, #40]
 129 005c E1E7     		b	.L3
 130              	.LVL19:
 131              	.L6:
 142:FWLIB/src/stm32f4xx_cryp_des.c ****   {
 143:FWLIB/src/stm32f4xx_cryp_des.c ****     /* The CRYP peripheral clock is not enabled or the device doesn't embedd 
 144:FWLIB/src/stm32f4xx_cryp_des.c ****        the CRYP peripheral (please check the device sales type. */
 145:FWLIB/src/stm32f4xx_cryp_des.c ****     return(ERROR);
 146:FWLIB/src/stm32f4xx_cryp_des.c ****   }
ARM GAS  /tmp/ccKh9sm1.s 			page 13


 147:FWLIB/src/stm32f4xx_cryp_des.c ****   for(i=0; ((i<Ilength) && (status != ERROR)); i+=8)
 148:FWLIB/src/stm32f4xx_cryp_des.c ****   {
 149:FWLIB/src/stm32f4xx_cryp_des.c **** 
 150:FWLIB/src/stm32f4xx_cryp_des.c ****     /* Write the Input block in the Input FIFO */
 151:FWLIB/src/stm32f4xx_cryp_des.c ****     CRYP_DataIn(*(uint32_t*)(inputaddr));
 152:FWLIB/src/stm32f4xx_cryp_des.c ****     inputaddr+=4;
 153:FWLIB/src/stm32f4xx_cryp_des.c ****     CRYP_DataIn(*(uint32_t*)(inputaddr));
 154:FWLIB/src/stm32f4xx_cryp_des.c ****     inputaddr+=4;
 155:FWLIB/src/stm32f4xx_cryp_des.c **** 
 156:FWLIB/src/stm32f4xx_cryp_des.c **** /* Wait until the complete message has been processed */
 157:FWLIB/src/stm32f4xx_cryp_des.c ****     counter = 0;
 158:FWLIB/src/stm32f4xx_cryp_des.c ****     do
 159:FWLIB/src/stm32f4xx_cryp_des.c ****     {
 160:FWLIB/src/stm32f4xx_cryp_des.c ****       busystatus = CRYP_GetFlagStatus(CRYP_FLAG_BUSY);
 161:FWLIB/src/stm32f4xx_cryp_des.c ****       counter++;
 162:FWLIB/src/stm32f4xx_cryp_des.c ****     }while ((counter != DESBUSY_TIMEOUT) && (busystatus != RESET));
 163:FWLIB/src/stm32f4xx_cryp_des.c **** 
 164:FWLIB/src/stm32f4xx_cryp_des.c ****     if (busystatus != RESET)
 132              		.loc 1 164 0
 133 005e DAB1     		cbz	r2, .L15
 165:FWLIB/src/stm32f4xx_cryp_des.c ****    {
 166:FWLIB/src/stm32f4xx_cryp_des.c ****        status = ERROR;
 134              		.loc 1 166 0
 135 0060 0026     		movs	r6, #0
 136              	.LVL20:
 137              	.L8:
 147:FWLIB/src/stm32f4xx_cryp_des.c ****   {
 138              		.loc 1 147 0 discriminator 2
 139 0062 0835     		adds	r5, r5, #8
 140              	.LVL21:
 141              	.L5:
 147:FWLIB/src/stm32f4xx_cryp_des.c ****   {
 142              		.loc 1 147 0 is_stmt 0 discriminator 1
 143 0064 4545     		cmp	r5, r8
 144 0066 1FD2     		bcs	.L9
 147:FWLIB/src/stm32f4xx_cryp_des.c ****   {
 145              		.loc 1 147 0 discriminator 3
 146 0068 F6B1     		cbz	r6, .L9
 151:FWLIB/src/stm32f4xx_cryp_des.c ****     inputaddr+=4;
 147              		.loc 1 151 0 is_stmt 1
 148 006a 2068     		ldr	r0, [r4]
 149 006c FFF7FEFF 		bl	CRYP_DataIn
 150              	.LVL22:
 153:FWLIB/src/stm32f4xx_cryp_des.c ****     inputaddr+=4;
 151              		.loc 1 153 0
 152 0070 6068     		ldr	r0, [r4, #4]
 153 0072 FFF7FEFF 		bl	CRYP_DataIn
 154              	.LVL23:
 154:FWLIB/src/stm32f4xx_cryp_des.c **** 
 155              		.loc 1 154 0
 156 0076 0834     		adds	r4, r4, #8
 157              	.LVL24:
 157:FWLIB/src/stm32f4xx_cryp_des.c ****     do
 158              		.loc 1 157 0
 159 0078 0023     		movs	r3, #0
 160 007a 0193     		str	r3, [sp, #4]
 161              	.L7:
ARM GAS  /tmp/ccKh9sm1.s 			page 14


 160:FWLIB/src/stm32f4xx_cryp_des.c ****       counter++;
 162              		.loc 1 160 0 discriminator 2
 163 007c 1020     		movs	r0, #16
 164 007e FFF7FEFF 		bl	CRYP_GetFlagStatus
 165              	.LVL25:
 166 0082 0246     		mov	r2, r0
 167              	.LVL26:
 161:FWLIB/src/stm32f4xx_cryp_des.c ****     }while ((counter != DESBUSY_TIMEOUT) && (busystatus != RESET));
 168              		.loc 1 161 0 discriminator 2
 169 0084 019B     		ldr	r3, [sp, #4]
 170 0086 0133     		adds	r3, r3, #1
 171 0088 0193     		str	r3, [sp, #4]
 162:FWLIB/src/stm32f4xx_cryp_des.c **** 
 172              		.loc 1 162 0 discriminator 2
 173 008a 019B     		ldr	r3, [sp, #4]
 174 008c B3F5803F 		cmp	r3, #65536
 175 0090 E5D0     		beq	.L6
 162:FWLIB/src/stm32f4xx_cryp_des.c **** 
 176              		.loc 1 162 0 is_stmt 0 discriminator 1
 177 0092 0028     		cmp	r0, #0
 178 0094 F2D1     		bne	.L7
 179 0096 E2E7     		b	.L6
 180              	.L15:
 167:FWLIB/src/stm32f4xx_cryp_des.c ****     }
 168:FWLIB/src/stm32f4xx_cryp_des.c ****     else
 169:FWLIB/src/stm32f4xx_cryp_des.c ****     {
 170:FWLIB/src/stm32f4xx_cryp_des.c **** 
 171:FWLIB/src/stm32f4xx_cryp_des.c ****       /* Read the Output block from the Output FIFO */
 172:FWLIB/src/stm32f4xx_cryp_des.c ****       *(uint32_t*)(outputaddr) = CRYP_DataOut();
 181              		.loc 1 172 0 is_stmt 1
 182 0098 FFF7FEFF 		bl	CRYP_DataOut
 183              	.LVL27:
 184 009c 3860     		str	r0, [r7]
 185              	.LVL28:
 173:FWLIB/src/stm32f4xx_cryp_des.c ****       outputaddr+=4;
 174:FWLIB/src/stm32f4xx_cryp_des.c ****       *(uint32_t*)(outputaddr) = CRYP_DataOut();
 186              		.loc 1 174 0
 187 009e FFF7FEFF 		bl	CRYP_DataOut
 188              	.LVL29:
 189 00a2 7860     		str	r0, [r7, #4]
 175:FWLIB/src/stm32f4xx_cryp_des.c ****       outputaddr+=4;
 190              		.loc 1 175 0
 191 00a4 0837     		adds	r7, r7, #8
 192              	.LVL30:
 193 00a6 DCE7     		b	.L8
 194              	.L9:
 176:FWLIB/src/stm32f4xx_cryp_des.c ****     }
 177:FWLIB/src/stm32f4xx_cryp_des.c ****   }
 178:FWLIB/src/stm32f4xx_cryp_des.c **** 
 179:FWLIB/src/stm32f4xx_cryp_des.c ****   /* Disable Crypto */
 180:FWLIB/src/stm32f4xx_cryp_des.c ****   CRYP_Cmd(DISABLE);
 195              		.loc 1 180 0
 196 00a8 0020     		movs	r0, #0
 197 00aa FFF7FEFF 		bl	CRYP_Cmd
 198              	.LVL31:
 199              	.L4:
 181:FWLIB/src/stm32f4xx_cryp_des.c **** 
ARM GAS  /tmp/ccKh9sm1.s 			page 15


 182:FWLIB/src/stm32f4xx_cryp_des.c ****   return status; 
 183:FWLIB/src/stm32f4xx_cryp_des.c **** }
 200              		.loc 1 183 0
 201 00ae 3046     		mov	r0, r6
 202 00b0 0EB0     		add	sp, sp, #56
 203              	.LCFI2:
 204              		.cfi_remember_state
 205              		.cfi_def_cfa_offset 24
 206              		@ sp needed
 207 00b2 BDE8F081 		pop	{r4, r5, r6, r7, r8, pc}
 208              	.LVL32:
 209              	.L11:
 210              	.LCFI3:
 211              		.cfi_restore_state
 145:FWLIB/src/stm32f4xx_cryp_des.c ****   }
 212              		.loc 1 145 0
 213 00b6 0026     		movs	r6, #0
 214 00b8 F9E7     		b	.L4
 215              		.cfi_endproc
 216              	.LFE112:
 218              		.section	.text.CRYP_DES_CBC,"ax",%progbits
 219              		.align	1
 220              		.global	CRYP_DES_CBC
 221              		.syntax unified
 222              		.thumb
 223              		.thumb_func
 224              		.fpu softvfp
 226              	CRYP_DES_CBC:
 227              	.LFB113:
 184:FWLIB/src/stm32f4xx_cryp_des.c **** 
 185:FWLIB/src/stm32f4xx_cryp_des.c **** /**
 186:FWLIB/src/stm32f4xx_cryp_des.c ****   * @brief  Encrypt and decrypt using DES in CBC Mode
 187:FWLIB/src/stm32f4xx_cryp_des.c ****   * @param  Mode: encryption or decryption Mode.
 188:FWLIB/src/stm32f4xx_cryp_des.c ****   *          This parameter can be one of the following values:
 189:FWLIB/src/stm32f4xx_cryp_des.c ****   *            @arg MODE_ENCRYPT: Encryption
 190:FWLIB/src/stm32f4xx_cryp_des.c ****   *            @arg MODE_DECRYPT: Decryption
 191:FWLIB/src/stm32f4xx_cryp_des.c ****   * @param  Key: Key used for DES algorithm.
 192:FWLIB/src/stm32f4xx_cryp_des.c ****   * @param  InitVectors: Initialisation Vectors used for DES algorithm.
 193:FWLIB/src/stm32f4xx_cryp_des.c ****   * @param  Ilength: length of the Input buffer, must be a multiple of 8.
 194:FWLIB/src/stm32f4xx_cryp_des.c ****   * @param  Input: pointer to the Input buffer.
 195:FWLIB/src/stm32f4xx_cryp_des.c ****   * @param  Output: pointer to the returned buffer.
 196:FWLIB/src/stm32f4xx_cryp_des.c ****   * @retval An ErrorStatus enumeration value:
 197:FWLIB/src/stm32f4xx_cryp_des.c ****   *          - SUCCESS: Operation done
 198:FWLIB/src/stm32f4xx_cryp_des.c ****   *          - ERROR: Operation failed
 199:FWLIB/src/stm32f4xx_cryp_des.c ****   */
 200:FWLIB/src/stm32f4xx_cryp_des.c **** ErrorStatus CRYP_DES_CBC(uint8_t Mode, uint8_t Key[8], uint8_t InitVectors[8],
 201:FWLIB/src/stm32f4xx_cryp_des.c ****                          uint8_t *Input, uint32_t Ilength, uint8_t *Output)
 202:FWLIB/src/stm32f4xx_cryp_des.c **** {
 228              		.loc 1 202 0
 229              		.cfi_startproc
 230              		@ args = 8, pretend = 0, frame = 72
 231              		@ frame_needed = 0, uses_anonymous_args = 0
 232              	.LVL33:
 233 0000 2DE9F043 		push	{r4, r5, r6, r7, r8, r9, lr}
 234              	.LCFI4:
 235              		.cfi_def_cfa_offset 28
 236              		.cfi_offset 4, -28
ARM GAS  /tmp/ccKh9sm1.s 			page 16


 237              		.cfi_offset 5, -24
 238              		.cfi_offset 6, -20
 239              		.cfi_offset 7, -16
 240              		.cfi_offset 8, -12
 241              		.cfi_offset 9, -8
 242              		.cfi_offset 14, -4
 243 0004 93B0     		sub	sp, sp, #76
 244              	.LCFI5:
 245              		.cfi_def_cfa_offset 104
 246 0006 8146     		mov	r9, r0
 247 0008 0E46     		mov	r6, r1
 248 000a 1546     		mov	r5, r2
 249 000c DDF86880 		ldr	r8, [sp, #104]
 203:FWLIB/src/stm32f4xx_cryp_des.c ****   CRYP_InitTypeDef DES_CRYP_InitStructure;
 204:FWLIB/src/stm32f4xx_cryp_des.c ****   CRYP_KeyInitTypeDef DES_CRYP_KeyInitStructure;
 205:FWLIB/src/stm32f4xx_cryp_des.c ****   CRYP_IVInitTypeDef DES_CRYP_IVInitStructure;
 206:FWLIB/src/stm32f4xx_cryp_des.c ****   __IO uint32_t counter = 0;
 250              		.loc 1 206 0
 251 0010 0022     		movs	r2, #0
 252              	.LVL34:
 253 0012 0192     		str	r2, [sp, #4]
 254              	.LVL35:
 207:FWLIB/src/stm32f4xx_cryp_des.c ****   uint32_t busystatus = 0;
 208:FWLIB/src/stm32f4xx_cryp_des.c ****   ErrorStatus status = SUCCESS;
 209:FWLIB/src/stm32f4xx_cryp_des.c ****   uint32_t keyaddr    = (uint32_t)Key;
 210:FWLIB/src/stm32f4xx_cryp_des.c ****   uint32_t inputaddr  = (uint32_t)Input;
 255              		.loc 1 210 0
 256 0014 1C46     		mov	r4, r3
 257              	.LVL36:
 211:FWLIB/src/stm32f4xx_cryp_des.c ****   uint32_t outputaddr = (uint32_t)Output;
 258              		.loc 1 211 0
 259 0016 1B9F     		ldr	r7, [sp, #108]
 260              	.LVL37:
 212:FWLIB/src/stm32f4xx_cryp_des.c ****   uint32_t ivaddr     = (uint32_t)InitVectors;
 213:FWLIB/src/stm32f4xx_cryp_des.c ****   uint32_t i = 0;
 214:FWLIB/src/stm32f4xx_cryp_des.c **** 
 215:FWLIB/src/stm32f4xx_cryp_des.c ****   /* Crypto structures initialisation*/
 216:FWLIB/src/stm32f4xx_cryp_des.c ****   CRYP_KeyStructInit(&DES_CRYP_KeyInitStructure);
 261              		.loc 1 216 0
 262 0018 06A8     		add	r0, sp, #24
 263              	.LVL38:
 264 001a FFF7FEFF 		bl	CRYP_KeyStructInit
 265              	.LVL39:
 217:FWLIB/src/stm32f4xx_cryp_des.c **** 
 218:FWLIB/src/stm32f4xx_cryp_des.c ****   /* Crypto Init for Encryption process */
 219:FWLIB/src/stm32f4xx_cryp_des.c ****   if(Mode == MODE_ENCRYPT) /* DES encryption */
 266              		.loc 1 219 0
 267 001e B9F1010F 		cmp	r9, #1
 268 0022 25D0     		beq	.L29
 220:FWLIB/src/stm32f4xx_cryp_des.c ****   {
 221:FWLIB/src/stm32f4xx_cryp_des.c ****      DES_CRYP_InitStructure.CRYP_AlgoDir  = CRYP_AlgoDir_Encrypt;
 222:FWLIB/src/stm32f4xx_cryp_des.c ****   }
 223:FWLIB/src/stm32f4xx_cryp_des.c ****   else /*if(Mode == MODE_DECRYPT)*/ /* DES decryption */
 224:FWLIB/src/stm32f4xx_cryp_des.c ****   {
 225:FWLIB/src/stm32f4xx_cryp_des.c ****      DES_CRYP_InitStructure.CRYP_AlgoDir  = CRYP_AlgoDir_Decrypt;
 269              		.loc 1 225 0
 270 0024 0423     		movs	r3, #4
ARM GAS  /tmp/ccKh9sm1.s 			page 17


 271 0026 0E93     		str	r3, [sp, #56]
 272              	.L18:
 226:FWLIB/src/stm32f4xx_cryp_des.c ****   }
 227:FWLIB/src/stm32f4xx_cryp_des.c **** 
 228:FWLIB/src/stm32f4xx_cryp_des.c ****   DES_CRYP_InitStructure.CRYP_AlgoMode = CRYP_AlgoMode_DES_CBC;
 273              		.loc 1 228 0
 274 0028 1823     		movs	r3, #24
 275 002a 0F93     		str	r3, [sp, #60]
 229:FWLIB/src/stm32f4xx_cryp_des.c ****   DES_CRYP_InitStructure.CRYP_DataType = CRYP_DataType_8b;
 276              		.loc 1 229 0
 277 002c 8023     		movs	r3, #128
 278 002e 1093     		str	r3, [sp, #64]
 230:FWLIB/src/stm32f4xx_cryp_des.c ****   CRYP_Init(&DES_CRYP_InitStructure);
 279              		.loc 1 230 0
 280 0030 0EA8     		add	r0, sp, #56
 281 0032 FFF7FEFF 		bl	CRYP_Init
 282              	.LVL40:
 231:FWLIB/src/stm32f4xx_cryp_des.c **** 
 232:FWLIB/src/stm32f4xx_cryp_des.c ****   /* Key Initialisation */
 233:FWLIB/src/stm32f4xx_cryp_des.c ****   DES_CRYP_KeyInitStructure.CRYP_Key1Left = __REV(*(uint32_t*)(keyaddr));
 283              		.loc 1 233 0
 284 0036 3368     		ldr	r3, [r6]
 285              	.LVL41:
 286              	.LBB18:
 287              	.LBB19:
 288              		.loc 2 407 0
 289 0038 1BBA     		rev	r3, r3
 290              	.LVL42:
 291              	.LBE19:
 292              	.LBE18:
 293              		.loc 1 233 0
 294 003a 0893     		str	r3, [sp, #32]
 295              	.LVL43:
 234:FWLIB/src/stm32f4xx_cryp_des.c ****   keyaddr+=4;
 235:FWLIB/src/stm32f4xx_cryp_des.c ****   DES_CRYP_KeyInitStructure.CRYP_Key1Right= __REV(*(uint32_t*)(keyaddr));
 296              		.loc 1 235 0
 297 003c 7368     		ldr	r3, [r6, #4]
 298              	.LVL44:
 299              	.LBB20:
 300              	.LBB21:
 301              		.loc 2 407 0
 302 003e 1BBA     		rev	r3, r3
 303              	.LVL45:
 304              	.LBE21:
 305              	.LBE20:
 306              		.loc 1 235 0
 307 0040 0993     		str	r3, [sp, #36]
 236:FWLIB/src/stm32f4xx_cryp_des.c ****   CRYP_KeyInit(& DES_CRYP_KeyInitStructure);
 308              		.loc 1 236 0
 309 0042 06A8     		add	r0, sp, #24
 310 0044 FFF7FEFF 		bl	CRYP_KeyInit
 311              	.LVL46:
 237:FWLIB/src/stm32f4xx_cryp_des.c **** 
 238:FWLIB/src/stm32f4xx_cryp_des.c ****   /* Initialization Vectors */
 239:FWLIB/src/stm32f4xx_cryp_des.c ****   DES_CRYP_IVInitStructure.CRYP_IV0Left = __REV(*(uint32_t*)(ivaddr));
 312              		.loc 1 239 0
 313 0048 2B68     		ldr	r3, [r5]
ARM GAS  /tmp/ccKh9sm1.s 			page 18


 314              	.LVL47:
 315              	.LBB22:
 316              	.LBB23:
 317              		.loc 2 407 0
 318 004a 1BBA     		rev	r3, r3
 319              	.LVL48:
 320              	.LBE23:
 321              	.LBE22:
 322              		.loc 1 239 0
 323 004c 0293     		str	r3, [sp, #8]
 324              	.LVL49:
 240:FWLIB/src/stm32f4xx_cryp_des.c ****   ivaddr+=4;
 241:FWLIB/src/stm32f4xx_cryp_des.c ****   DES_CRYP_IVInitStructure.CRYP_IV0Right= __REV(*(uint32_t*)(ivaddr));
 325              		.loc 1 241 0
 326 004e 6B68     		ldr	r3, [r5, #4]
 327              	.LVL50:
 328              	.LBB24:
 329              	.LBB25:
 330              		.loc 2 407 0
 331 0050 1BBA     		rev	r3, r3
 332              	.LVL51:
 333              	.LBE25:
 334              	.LBE24:
 335              		.loc 1 241 0
 336 0052 0393     		str	r3, [sp, #12]
 242:FWLIB/src/stm32f4xx_cryp_des.c ****   CRYP_IVInit(&DES_CRYP_IVInitStructure);
 337              		.loc 1 242 0
 338 0054 02A8     		add	r0, sp, #8
 339 0056 FFF7FEFF 		bl	CRYP_IVInit
 340              	.LVL52:
 243:FWLIB/src/stm32f4xx_cryp_des.c **** 
 244:FWLIB/src/stm32f4xx_cryp_des.c ****   /* Flush IN/OUT FIFO */
 245:FWLIB/src/stm32f4xx_cryp_des.c ****   CRYP_FIFOFlush();
 341              		.loc 1 245 0
 342 005a FFF7FEFF 		bl	CRYP_FIFOFlush
 343              	.LVL53:
 246:FWLIB/src/stm32f4xx_cryp_des.c ****   
 247:FWLIB/src/stm32f4xx_cryp_des.c ****   /* Enable Crypto processor */
 248:FWLIB/src/stm32f4xx_cryp_des.c ****   CRYP_Cmd(ENABLE);
 344              		.loc 1 248 0
 345 005e 0120     		movs	r0, #1
 346 0060 FFF7FEFF 		bl	CRYP_Cmd
 347              	.LVL54:
 249:FWLIB/src/stm32f4xx_cryp_des.c **** 
 250:FWLIB/src/stm32f4xx_cryp_des.c ****   if(CRYP_GetCmdStatus() == DISABLE)
 348              		.loc 1 250 0
 349 0064 FFF7FEFF 		bl	CRYP_GetCmdStatus
 350              	.LVL55:
 351 0068 88B3     		cbz	r0, .L26
 352 006a 0025     		movs	r5, #0
 353              	.LVL56:
 354 006c 0126     		movs	r6, #1
 355              	.LVL57:
 356 006e 05E0     		b	.L20
 357              	.LVL58:
 358              	.L29:
 221:FWLIB/src/stm32f4xx_cryp_des.c ****   }
ARM GAS  /tmp/ccKh9sm1.s 			page 19


 359              		.loc 1 221 0
 360 0070 0023     		movs	r3, #0
 361 0072 0E93     		str	r3, [sp, #56]
 362 0074 D8E7     		b	.L18
 363              	.LVL59:
 364              	.L21:
 251:FWLIB/src/stm32f4xx_cryp_des.c ****   {
 252:FWLIB/src/stm32f4xx_cryp_des.c ****     /* The CRYP peripheral clock is not enabled or the device doesn't embedd 
 253:FWLIB/src/stm32f4xx_cryp_des.c ****        the CRYP peripheral (please check the device sales type. */
 254:FWLIB/src/stm32f4xx_cryp_des.c ****     return(ERROR);
 255:FWLIB/src/stm32f4xx_cryp_des.c ****   }
 256:FWLIB/src/stm32f4xx_cryp_des.c ****   for(i=0; ((i<Ilength) && (status != ERROR)); i+=8)
 257:FWLIB/src/stm32f4xx_cryp_des.c ****   {
 258:FWLIB/src/stm32f4xx_cryp_des.c ****     /* Write the Input block in the Input FIFO */
 259:FWLIB/src/stm32f4xx_cryp_des.c ****     CRYP_DataIn(*(uint32_t*)(inputaddr));
 260:FWLIB/src/stm32f4xx_cryp_des.c ****     inputaddr+=4;
 261:FWLIB/src/stm32f4xx_cryp_des.c ****     CRYP_DataIn(*(uint32_t*)(inputaddr));
 262:FWLIB/src/stm32f4xx_cryp_des.c ****     inputaddr+=4;
 263:FWLIB/src/stm32f4xx_cryp_des.c **** 
 264:FWLIB/src/stm32f4xx_cryp_des.c ****     /* Wait until the complete message has been processed */
 265:FWLIB/src/stm32f4xx_cryp_des.c ****     counter = 0;
 266:FWLIB/src/stm32f4xx_cryp_des.c ****     do
 267:FWLIB/src/stm32f4xx_cryp_des.c ****     {
 268:FWLIB/src/stm32f4xx_cryp_des.c ****       busystatus = CRYP_GetFlagStatus(CRYP_FLAG_BUSY);
 269:FWLIB/src/stm32f4xx_cryp_des.c ****       counter++;
 270:FWLIB/src/stm32f4xx_cryp_des.c ****     }while ((counter != DESBUSY_TIMEOUT) && (busystatus != RESET));
 271:FWLIB/src/stm32f4xx_cryp_des.c **** 
 272:FWLIB/src/stm32f4xx_cryp_des.c ****     if (busystatus != RESET)
 365              		.loc 1 272 0
 366 0076 DAB1     		cbz	r2, .L30
 273:FWLIB/src/stm32f4xx_cryp_des.c ****    {
 274:FWLIB/src/stm32f4xx_cryp_des.c ****        status = ERROR;
 367              		.loc 1 274 0
 368 0078 0026     		movs	r6, #0
 369              	.LVL60:
 370              	.L23:
 256:FWLIB/src/stm32f4xx_cryp_des.c ****   {
 371              		.loc 1 256 0 discriminator 2
 372 007a 0835     		adds	r5, r5, #8
 373              	.LVL61:
 374              	.L20:
 256:FWLIB/src/stm32f4xx_cryp_des.c ****   {
 375              		.loc 1 256 0 is_stmt 0 discriminator 1
 376 007c 4545     		cmp	r5, r8
 377 007e 1FD2     		bcs	.L24
 256:FWLIB/src/stm32f4xx_cryp_des.c ****   {
 378              		.loc 1 256 0 discriminator 3
 379 0080 F6B1     		cbz	r6, .L24
 259:FWLIB/src/stm32f4xx_cryp_des.c ****     inputaddr+=4;
 380              		.loc 1 259 0 is_stmt 1
 381 0082 2068     		ldr	r0, [r4]
 382 0084 FFF7FEFF 		bl	CRYP_DataIn
 383              	.LVL62:
 261:FWLIB/src/stm32f4xx_cryp_des.c ****     inputaddr+=4;
 384              		.loc 1 261 0
 385 0088 6068     		ldr	r0, [r4, #4]
 386 008a FFF7FEFF 		bl	CRYP_DataIn
ARM GAS  /tmp/ccKh9sm1.s 			page 20


 387              	.LVL63:
 262:FWLIB/src/stm32f4xx_cryp_des.c **** 
 388              		.loc 1 262 0
 389 008e 0834     		adds	r4, r4, #8
 390              	.LVL64:
 265:FWLIB/src/stm32f4xx_cryp_des.c ****     do
 391              		.loc 1 265 0
 392 0090 0023     		movs	r3, #0
 393 0092 0193     		str	r3, [sp, #4]
 394              	.L22:
 268:FWLIB/src/stm32f4xx_cryp_des.c ****       counter++;
 395              		.loc 1 268 0 discriminator 2
 396 0094 1020     		movs	r0, #16
 397 0096 FFF7FEFF 		bl	CRYP_GetFlagStatus
 398              	.LVL65:
 399 009a 0246     		mov	r2, r0
 400              	.LVL66:
 269:FWLIB/src/stm32f4xx_cryp_des.c ****     }while ((counter != DESBUSY_TIMEOUT) && (busystatus != RESET));
 401              		.loc 1 269 0 discriminator 2
 402 009c 019B     		ldr	r3, [sp, #4]
 403 009e 0133     		adds	r3, r3, #1
 404 00a0 0193     		str	r3, [sp, #4]
 270:FWLIB/src/stm32f4xx_cryp_des.c **** 
 405              		.loc 1 270 0 discriminator 2
 406 00a2 019B     		ldr	r3, [sp, #4]
 407 00a4 B3F5803F 		cmp	r3, #65536
 408 00a8 E5D0     		beq	.L21
 270:FWLIB/src/stm32f4xx_cryp_des.c **** 
 409              		.loc 1 270 0 is_stmt 0 discriminator 1
 410 00aa 0028     		cmp	r0, #0
 411 00ac F2D1     		bne	.L22
 412 00ae E2E7     		b	.L21
 413              	.L30:
 275:FWLIB/src/stm32f4xx_cryp_des.c ****     }
 276:FWLIB/src/stm32f4xx_cryp_des.c ****     else
 277:FWLIB/src/stm32f4xx_cryp_des.c ****     {
 278:FWLIB/src/stm32f4xx_cryp_des.c ****       /* Read the Output block from the Output FIFO */
 279:FWLIB/src/stm32f4xx_cryp_des.c ****       *(uint32_t*)(outputaddr) = CRYP_DataOut();
 414              		.loc 1 279 0 is_stmt 1
 415 00b0 FFF7FEFF 		bl	CRYP_DataOut
 416              	.LVL67:
 417 00b4 3860     		str	r0, [r7]
 418              	.LVL68:
 280:FWLIB/src/stm32f4xx_cryp_des.c ****       outputaddr+=4;
 281:FWLIB/src/stm32f4xx_cryp_des.c ****       *(uint32_t*)(outputaddr) = CRYP_DataOut();
 419              		.loc 1 281 0
 420 00b6 FFF7FEFF 		bl	CRYP_DataOut
 421              	.LVL69:
 422 00ba 7860     		str	r0, [r7, #4]
 282:FWLIB/src/stm32f4xx_cryp_des.c ****       outputaddr+=4;
 423              		.loc 1 282 0
 424 00bc 0837     		adds	r7, r7, #8
 425              	.LVL70:
 426 00be DCE7     		b	.L23
 427              	.L24:
 283:FWLIB/src/stm32f4xx_cryp_des.c ****     }
 284:FWLIB/src/stm32f4xx_cryp_des.c ****   }
ARM GAS  /tmp/ccKh9sm1.s 			page 21


 285:FWLIB/src/stm32f4xx_cryp_des.c **** 
 286:FWLIB/src/stm32f4xx_cryp_des.c ****   /* Disable Crypto */
 287:FWLIB/src/stm32f4xx_cryp_des.c ****   CRYP_Cmd(DISABLE);
 428              		.loc 1 287 0
 429 00c0 0020     		movs	r0, #0
 430 00c2 FFF7FEFF 		bl	CRYP_Cmd
 431              	.LVL71:
 432              	.L19:
 288:FWLIB/src/stm32f4xx_cryp_des.c **** 
 289:FWLIB/src/stm32f4xx_cryp_des.c ****   return status; 
 290:FWLIB/src/stm32f4xx_cryp_des.c **** }
 433              		.loc 1 290 0
 434 00c6 3046     		mov	r0, r6
 435 00c8 13B0     		add	sp, sp, #76
 436              	.LCFI6:
 437              		.cfi_remember_state
 438              		.cfi_def_cfa_offset 28
 439              		@ sp needed
 440 00ca BDE8F083 		pop	{r4, r5, r6, r7, r8, r9, pc}
 441              	.LVL72:
 442              	.L26:
 443              	.LCFI7:
 444              		.cfi_restore_state
 254:FWLIB/src/stm32f4xx_cryp_des.c ****   }
 445              		.loc 1 254 0
 446 00ce 0026     		movs	r6, #0
 447              	.LVL73:
 448 00d0 F9E7     		b	.L19
 449              		.cfi_endproc
 450              	.LFE113:
 452              		.text
 453              	.Letext0:
 454              		.file 3 "/usr/include/newlib/machine/_default_types.h"
 455              		.file 4 "/usr/include/newlib/sys/_stdint.h"
 456              		.file 5 "CORE/core_cm4.h"
 457              		.file 6 "USER/system_stm32f4xx.h"
 458              		.file 7 "USER/stm32f4xx.h"
 459              		.file 8 "FWLIB/inc/stm32f4xx_cryp.h"
ARM GAS  /tmp/ccKh9sm1.s 			page 22

