ARM GAS  /tmp/cc4wW0jD.s 			page 1


   1              		.cpu cortex-m3
   2              		.eabi_attribute 20, 1
   3              		.eabi_attribute 21, 1
   4              		.eabi_attribute 23, 3
   5              		.eabi_attribute 24, 1
   6              		.eabi_attribute 25, 1
   7              		.eabi_attribute 26, 1
   8              		.eabi_attribute 30, 1
   9              		.eabi_attribute 34, 1
  10              		.eabi_attribute 18, 4
  11              		.file	"bsp_debug_usart.c"
  12              		.text
  13              	.Ltext0:
  14              		.cfi_sections	.debug_frame
  15              		.section	.text.DEBUG_USART_Config,"ax",%progbits
  16              		.align	1
  17              		.global	DEBUG_USART_Config
  18              		.arch armv7-m
  19              		.syntax unified
  20              		.thumb
  21              		.thumb_func
  22              		.fpu softvfp
  24              	DEBUG_USART_Config:
  25              	.LFB68:
  26              		.file 1 "Src/bsp_debug_usart.c"
   1:Src/bsp_debug_usart.c **** /**
   2:Src/bsp_debug_usart.c ****  ******************************************************************************
   3:Src/bsp_debug_usart.c ****  * @file    bsp_debug_usart.c
   4:Src/bsp_debug_usart.c ****  * @author  fire
   5:Src/bsp_debug_usart.c ****  * @version V1.0
   6:Src/bsp_debug_usart.c ****  * @date    2016-xx-xx
   7:Src/bsp_debug_usart.c ****  * @brief   使用串口1，重定向c库printf函数到usart端口，中断接收模式
   8:Src/bsp_debug_usart.c ****  ******************************************************************************
   9:Src/bsp_debug_usart.c ****  * @attention
  10:Src/bsp_debug_usart.c ****  *
  11:Src/bsp_debug_usart.c ****  * 实验平台:野火 STM32 F103 开发板
  12:Src/bsp_debug_usart.c ****  * 论坛    :http://www.firebbs.cn
  13:Src/bsp_debug_usart.c ****  * 淘宝    :http://firestm32.taobao.com
  14:Src/bsp_debug_usart.c ****  *
  15:Src/bsp_debug_usart.c ****  ******************************************************************************
  16:Src/bsp_debug_usart.c ****  */
  17:Src/bsp_debug_usart.c **** 
  18:Src/bsp_debug_usart.c **** #include "bsp_debug_usart.h"
  19:Src/bsp_debug_usart.c **** 
  20:Src/bsp_debug_usart.c **** UART_HandleTypeDef UartHandle;
  21:Src/bsp_debug_usart.c **** // extern uint8_t ucTemp;
  22:Src/bsp_debug_usart.c **** 
  23:Src/bsp_debug_usart.c **** /**
  24:Src/bsp_debug_usart.c ****  * @brief  DEBUG_USART GPIO 配置,工作模式配置。115200 8-N-1
  25:Src/bsp_debug_usart.c ****  * @param  无
  26:Src/bsp_debug_usart.c ****  * @retval 无
  27:Src/bsp_debug_usart.c ****  */
  28:Src/bsp_debug_usart.c **** void DEBUG_USART_Config(void)
  29:Src/bsp_debug_usart.c **** {
  27              		.loc 1 29 1 view -0
  28              		.cfi_startproc
  29              		@ args = 0, pretend = 0, frame = 0
ARM GAS  /tmp/cc4wW0jD.s 			page 2


  30              		@ frame_needed = 0, uses_anonymous_args = 0
  31 0000 08B5     		push	{r3, lr}
  32              	.LCFI0:
  33              		.cfi_def_cfa_offset 8
  34              		.cfi_offset 3, -8
  35              		.cfi_offset 14, -4
  30:Src/bsp_debug_usart.c **** 
  31:Src/bsp_debug_usart.c ****   UartHandle.Instance = DEBUG_USART;
  36              		.loc 1 31 3 view .LVU1
  37              		.loc 1 31 23 is_stmt 0 view .LVU2
  38 0002 0848     		ldr	r0, .L3
  39 0004 084B     		ldr	r3, .L3+4
  40 0006 0360     		str	r3, [r0]
  32:Src/bsp_debug_usart.c **** 
  33:Src/bsp_debug_usart.c ****   UartHandle.Init.BaudRate = DEBUG_USART_BAUDRATE;
  41              		.loc 1 33 3 is_stmt 1 view .LVU3
  42              		.loc 1 33 28 is_stmt 0 view .LVU4
  43 0008 4FF4E133 		mov	r3, #115200
  44 000c 4360     		str	r3, [r0, #4]
  34:Src/bsp_debug_usart.c ****   UartHandle.Init.WordLength = UART_WORDLENGTH_8B;
  45              		.loc 1 34 3 is_stmt 1 view .LVU5
  46              		.loc 1 34 30 is_stmt 0 view .LVU6
  47 000e 0023     		movs	r3, #0
  48 0010 8360     		str	r3, [r0, #8]
  35:Src/bsp_debug_usart.c ****   UartHandle.Init.StopBits = UART_STOPBITS_1;
  49              		.loc 1 35 3 is_stmt 1 view .LVU7
  50              		.loc 1 35 28 is_stmt 0 view .LVU8
  51 0012 C360     		str	r3, [r0, #12]
  36:Src/bsp_debug_usart.c ****   UartHandle.Init.Parity = UART_PARITY_NONE;
  52              		.loc 1 36 3 is_stmt 1 view .LVU9
  53              		.loc 1 36 26 is_stmt 0 view .LVU10
  54 0014 0361     		str	r3, [r0, #16]
  37:Src/bsp_debug_usart.c ****   UartHandle.Init.HwFlowCtl = UART_HWCONTROL_NONE;
  55              		.loc 1 37 3 is_stmt 1 view .LVU11
  56              		.loc 1 37 29 is_stmt 0 view .LVU12
  57 0016 8361     		str	r3, [r0, #24]
  38:Src/bsp_debug_usart.c ****   UartHandle.Init.Mode = UART_MODE_TX_RX;
  58              		.loc 1 38 3 is_stmt 1 view .LVU13
  59              		.loc 1 38 24 is_stmt 0 view .LVU14
  60 0018 0C23     		movs	r3, #12
  61 001a 4361     		str	r3, [r0, #20]
  39:Src/bsp_debug_usart.c **** 
  40:Src/bsp_debug_usart.c ****   HAL_UART_Init(&UartHandle);
  62              		.loc 1 40 3 is_stmt 1 view .LVU15
  63 001c FFF7FEFF 		bl	HAL_UART_Init
  64              	.LVL0:
  41:Src/bsp_debug_usart.c **** 
  42:Src/bsp_debug_usart.c ****   // /*使能串口接收断 */
  43:Src/bsp_debug_usart.c ****   //  __HAL_UART_ENABLE_IT(&UartHandle,UART_IT_RXNE);
  44:Src/bsp_debug_usart.c **** }
  65              		.loc 1 44 1 is_stmt 0 view .LVU16
  66 0020 08BD     		pop	{r3, pc}
  67              	.L4:
  68 0022 00BF     		.align	2
  69              	.L3:
  70 0024 00000000 		.word	UartHandle
  71 0028 00380140 		.word	1073821696
ARM GAS  /tmp/cc4wW0jD.s 			page 3


  72              		.cfi_endproc
  73              	.LFE68:
  75              		.section	.text.HAL_UART_MspInit,"ax",%progbits
  76              		.align	1
  77              		.global	HAL_UART_MspInit
  78              		.syntax unified
  79              		.thumb
  80              		.thumb_func
  81              		.fpu softvfp
  83              	HAL_UART_MspInit:
  84              	.LVL1:
  85              	.LFB69:
  45:Src/bsp_debug_usart.c **** 
  46:Src/bsp_debug_usart.c **** /**
  47:Src/bsp_debug_usart.c ****  * @brief UART MSP 初始化
  48:Src/bsp_debug_usart.c ****  * @param huart: UART handle
  49:Src/bsp_debug_usart.c ****  * @retval 无
  50:Src/bsp_debug_usart.c ****  */
  51:Src/bsp_debug_usart.c **** void HAL_UART_MspInit(UART_HandleTypeDef *huart)
  52:Src/bsp_debug_usart.c **** {
  86              		.loc 1 52 1 is_stmt 1 view -0
  87              		.cfi_startproc
  88              		@ args = 0, pretend = 0, frame = 32
  89              		@ frame_needed = 0, uses_anonymous_args = 0
  90              		.loc 1 52 1 is_stmt 0 view .LVU18
  91 0000 10B5     		push	{r4, lr}
  92              	.LCFI1:
  93              		.cfi_def_cfa_offset 8
  94              		.cfi_offset 4, -8
  95              		.cfi_offset 14, -4
  96 0002 88B0     		sub	sp, sp, #32
  97              	.LCFI2:
  98              		.cfi_def_cfa_offset 40
  53:Src/bsp_debug_usart.c ****   GPIO_InitTypeDef GPIO_InitStruct;
  99              		.loc 1 53 3 is_stmt 1 view .LVU19
  54:Src/bsp_debug_usart.c **** 
  55:Src/bsp_debug_usart.c ****   DEBUG_USART_CLK_ENABLE();
 100              		.loc 1 55 3 view .LVU20
 101              	.LBB2:
 102              		.loc 1 55 3 view .LVU21
 103              		.loc 1 55 3 view .LVU22
 104 0004 1A4B     		ldr	r3, .L7
 105 0006 9A69     		ldr	r2, [r3, #24]
 106 0008 42F48042 		orr	r2, r2, #16384
 107 000c 9A61     		str	r2, [r3, #24]
 108              		.loc 1 55 3 view .LVU23
 109 000e 9A69     		ldr	r2, [r3, #24]
 110 0010 02F48042 		and	r2, r2, #16384
 111 0014 0192     		str	r2, [sp, #4]
 112              		.loc 1 55 3 view .LVU24
 113 0016 019A     		ldr	r2, [sp, #4]
 114              	.LBE2:
 115              		.loc 1 55 3 view .LVU25
 116              		.loc 1 55 27 view .LVU26
  56:Src/bsp_debug_usart.c **** 
  57:Src/bsp_debug_usart.c ****   DEBUG_USART_RX_GPIO_CLK_ENABLE();
 117              		.loc 1 57 3 view .LVU27
ARM GAS  /tmp/cc4wW0jD.s 			page 4


 118              	.LBB3:
 119              		.loc 1 57 3 view .LVU28
 120              		.loc 1 57 3 view .LVU29
 121 0018 9A69     		ldr	r2, [r3, #24]
 122 001a 42F00402 		orr	r2, r2, #4
 123 001e 9A61     		str	r2, [r3, #24]
 124              		.loc 1 57 3 view .LVU30
 125 0020 9A69     		ldr	r2, [r3, #24]
 126 0022 02F00402 		and	r2, r2, #4
 127 0026 0292     		str	r2, [sp, #8]
 128              		.loc 1 57 3 view .LVU31
 129 0028 029A     		ldr	r2, [sp, #8]
 130              	.LBE3:
 131              		.loc 1 57 3 view .LVU32
  58:Src/bsp_debug_usart.c ****   DEBUG_USART_TX_GPIO_CLK_ENABLE();
 132              		.loc 1 58 3 view .LVU33
 133              	.LBB4:
 134              		.loc 1 58 3 view .LVU34
 135              		.loc 1 58 3 view .LVU35
 136 002a 9A69     		ldr	r2, [r3, #24]
 137 002c 42F00402 		orr	r2, r2, #4
 138 0030 9A61     		str	r2, [r3, #24]
 139              		.loc 1 58 3 view .LVU36
 140 0032 9B69     		ldr	r3, [r3, #24]
 141 0034 03F00403 		and	r3, r3, #4
 142 0038 0393     		str	r3, [sp, #12]
 143              		.loc 1 58 3 view .LVU37
 144 003a 039B     		ldr	r3, [sp, #12]
 145              	.LBE4:
 146              		.loc 1 58 3 view .LVU38
  59:Src/bsp_debug_usart.c **** 
  60:Src/bsp_debug_usart.c ****   /**USART1 GPIO Configuration
  61:Src/bsp_debug_usart.c ****     PA9     ------> USART1_TX
  62:Src/bsp_debug_usart.c ****     PA10    ------> USART1_RX
  63:Src/bsp_debug_usart.c ****     */
  64:Src/bsp_debug_usart.c ****   /* 配置Tx引脚为复用功能  */
  65:Src/bsp_debug_usart.c ****   GPIO_InitStruct.Pin = DEBUG_USART_TX_PIN;
 147              		.loc 1 65 3 view .LVU39
 148              		.loc 1 65 23 is_stmt 0 view .LVU40
 149 003c 4FF40073 		mov	r3, #512
 150 0040 0493     		str	r3, [sp, #16]
  66:Src/bsp_debug_usart.c ****   GPIO_InitStruct.Mode = GPIO_MODE_AF_PP;
 151              		.loc 1 66 3 is_stmt 1 view .LVU41
 152              		.loc 1 66 24 is_stmt 0 view .LVU42
 153 0042 0223     		movs	r3, #2
 154 0044 0593     		str	r3, [sp, #20]
  67:Src/bsp_debug_usart.c ****   GPIO_InitStruct.Pull = GPIO_PULLUP;
 155              		.loc 1 67 3 is_stmt 1 view .LVU43
 156              		.loc 1 67 24 is_stmt 0 view .LVU44
 157 0046 0123     		movs	r3, #1
 158 0048 0693     		str	r3, [sp, #24]
  68:Src/bsp_debug_usart.c ****   GPIO_InitStruct.Speed = GPIO_SPEED_FREQ_HIGH;
 159              		.loc 1 68 3 is_stmt 1 view .LVU45
 160              		.loc 1 68 25 is_stmt 0 view .LVU46
 161 004a 0323     		movs	r3, #3
 162 004c 0793     		str	r3, [sp, #28]
  69:Src/bsp_debug_usart.c ****   HAL_GPIO_Init(DEBUG_USART_TX_GPIO_PORT, &GPIO_InitStruct);
ARM GAS  /tmp/cc4wW0jD.s 			page 5


 163              		.loc 1 69 3 is_stmt 1 view .LVU47
 164 004e 094C     		ldr	r4, .L7+4
 165 0050 04A9     		add	r1, sp, #16
 166 0052 2046     		mov	r0, r4
 167              	.LVL2:
 168              		.loc 1 69 3 is_stmt 0 view .LVU48
 169 0054 FFF7FEFF 		bl	HAL_GPIO_Init
 170              	.LVL3:
  70:Src/bsp_debug_usart.c **** 
  71:Src/bsp_debug_usart.c ****   /* 配置Rx引脚为复用功能 */
  72:Src/bsp_debug_usart.c ****   GPIO_InitStruct.Pin = DEBUG_USART_RX_PIN;
 171              		.loc 1 72 3 is_stmt 1 view .LVU49
 172              		.loc 1 72 23 is_stmt 0 view .LVU50
 173 0058 4FF48063 		mov	r3, #1024
 174 005c 0493     		str	r3, [sp, #16]
  73:Src/bsp_debug_usart.c ****   GPIO_InitStruct.Mode = GPIO_MODE_AF_INPUT; //模式要设置为复用输入模式！
 175              		.loc 1 73 3 is_stmt 1 view .LVU51
 176              		.loc 1 73 24 is_stmt 0 view .LVU52
 177 005e 0023     		movs	r3, #0
 178 0060 0593     		str	r3, [sp, #20]
  74:Src/bsp_debug_usart.c ****   HAL_GPIO_Init(DEBUG_USART_RX_GPIO_PORT, &GPIO_InitStruct);
 179              		.loc 1 74 3 is_stmt 1 view .LVU53
 180 0062 04A9     		add	r1, sp, #16
 181 0064 2046     		mov	r0, r4
 182 0066 FFF7FEFF 		bl	HAL_GPIO_Init
 183              	.LVL4:
  75:Src/bsp_debug_usart.c **** 
  76:Src/bsp_debug_usart.c ****   //  HAL_NVIC_SetPriority(DEBUG_USART_IRQ ,0,1);	//抢占优先级0，子优先级1
  77:Src/bsp_debug_usart.c ****   //  HAL_NVIC_EnableIRQ(DEBUG_USART_IRQ );		    //使能USART1中断通道
  78:Src/bsp_debug_usart.c **** }
 184              		.loc 1 78 1 is_stmt 0 view .LVU54
 185 006a 08B0     		add	sp, sp, #32
 186              	.LCFI3:
 187              		.cfi_def_cfa_offset 8
 188              		@ sp needed
 189 006c 10BD     		pop	{r4, pc}
 190              	.L8:
 191 006e 00BF     		.align	2
 192              	.L7:
 193 0070 00100240 		.word	1073876992
 194 0074 00080140 		.word	1073809408
 195              		.cfi_endproc
 196              	.LFE69:
 198              		.section	.text.Usart_SendString,"ax",%progbits
 199              		.align	1
 200              		.global	Usart_SendString
 201              		.syntax unified
 202              		.thumb
 203              		.thumb_func
 204              		.fpu softvfp
 206              	Usart_SendString:
 207              	.LVL5:
 208              	.LFB70:
  79:Src/bsp_debug_usart.c **** 
  80:Src/bsp_debug_usart.c **** /*****************  发送字符串 **********************/
  81:Src/bsp_debug_usart.c **** void Usart_SendString(uint8_t *str)
  82:Src/bsp_debug_usart.c **** {
ARM GAS  /tmp/cc4wW0jD.s 			page 6


 209              		.loc 1 82 1 is_stmt 1 view -0
 210              		.cfi_startproc
 211              		@ args = 0, pretend = 0, frame = 0
 212              		@ frame_needed = 0, uses_anonymous_args = 0
 213              		.loc 1 82 1 is_stmt 0 view .LVU56
 214 0000 38B5     		push	{r3, r4, r5, lr}
 215              	.LCFI4:
 216              		.cfi_def_cfa_offset 16
 217              		.cfi_offset 3, -16
 218              		.cfi_offset 4, -12
 219              		.cfi_offset 5, -8
 220              		.cfi_offset 14, -4
 221 0002 0546     		mov	r5, r0
  83:Src/bsp_debug_usart.c ****   unsigned int k = 0;
 222              		.loc 1 83 3 is_stmt 1 view .LVU57
 223              	.LVL6:
 224              		.loc 1 83 16 is_stmt 0 view .LVU58
 225 0004 0024     		movs	r4, #0
 226              	.LVL7:
 227              	.L10:
  84:Src/bsp_debug_usart.c ****   do
 228              		.loc 1 84 3 is_stmt 1 discriminator 1 view .LVU59
  85:Src/bsp_debug_usart.c ****   {
  86:Src/bsp_debug_usart.c ****     HAL_UART_Transmit(&UartHandle, (uint8_t *)(str + k), 1, 1000);
 229              		.loc 1 86 5 discriminator 1 view .LVU60
 230 0006 4FF47A73 		mov	r3, #1000
 231 000a 0122     		movs	r2, #1
 232 000c 2919     		adds	r1, r5, r4
 233 000e 0448     		ldr	r0, .L12
 234 0010 FFF7FEFF 		bl	HAL_UART_Transmit
 235              	.LVL8:
  87:Src/bsp_debug_usart.c ****     k++;
 236              		.loc 1 87 5 discriminator 1 view .LVU61
 237              		.loc 1 87 6 is_stmt 0 discriminator 1 view .LVU62
 238 0014 0134     		adds	r4, r4, #1
 239              	.LVL9:
  88:Src/bsp_debug_usart.c ****   } while (*(str + k) != '\0');
 240              		.loc 1 88 11 is_stmt 1 discriminator 1 view .LVU63
 241              		.loc 1 88 12 is_stmt 0 discriminator 1 view .LVU64
 242 0016 2B5D     		ldrb	r3, [r5, r4]	@ zero_extendqisi2
 243              		.loc 1 88 3 discriminator 1 view .LVU65
 244 0018 002B     		cmp	r3, #0
 245 001a F4D1     		bne	.L10
  89:Src/bsp_debug_usart.c **** }
 246              		.loc 1 89 1 view .LVU66
 247 001c 38BD     		pop	{r3, r4, r5, pc}
 248              	.LVL10:
 249              	.L13:
 250              		.loc 1 89 1 view .LVU67
 251 001e 00BF     		.align	2
 252              	.L12:
 253 0020 00000000 		.word	UartHandle
 254              		.cfi_endproc
 255              	.LFE70:
 257              		.section	.text.fputc,"ax",%progbits
 258              		.align	1
 259              		.global	fputc
ARM GAS  /tmp/cc4wW0jD.s 			page 7


 260              		.syntax unified
 261              		.thumb
 262              		.thumb_func
 263              		.fpu softvfp
 265              	fputc:
 266              	.LVL11:
 267              	.LFB71:
  90:Src/bsp_debug_usart.c **** //重定向c库函数printf到串口DEBUG_USART，重定向后可使用printf函数
  91:Src/bsp_debug_usart.c **** int fputc(int ch, FILE *f)
  92:Src/bsp_debug_usart.c **** {
 268              		.loc 1 92 1 is_stmt 1 view -0
 269              		.cfi_startproc
 270              		@ args = 0, pretend = 0, frame = 8
 271              		@ frame_needed = 0, uses_anonymous_args = 0
 272              		.loc 1 92 1 is_stmt 0 view .LVU69
 273 0000 00B5     		push	{lr}
 274              	.LCFI5:
 275              		.cfi_def_cfa_offset 4
 276              		.cfi_offset 14, -4
 277 0002 83B0     		sub	sp, sp, #12
 278              	.LCFI6:
 279              		.cfi_def_cfa_offset 16
 280 0004 0190     		str	r0, [sp, #4]
  93:Src/bsp_debug_usart.c ****   /* 发送一个字节数据到串口DEBUG_USART */
  94:Src/bsp_debug_usart.c ****   HAL_UART_Transmit(&UartHandle, (uint8_t *)&ch, 1, 1000);
 281              		.loc 1 94 3 is_stmt 1 view .LVU70
 282 0006 4FF47A73 		mov	r3, #1000
 283 000a 0122     		movs	r2, #1
 284 000c 01A9     		add	r1, sp, #4
 285              	.LVL12:
 286              		.loc 1 94 3 is_stmt 0 view .LVU71
 287 000e 0348     		ldr	r0, .L16
 288              	.LVL13:
 289              		.loc 1 94 3 view .LVU72
 290 0010 FFF7FEFF 		bl	HAL_UART_Transmit
 291              	.LVL14:
  95:Src/bsp_debug_usart.c **** 
  96:Src/bsp_debug_usart.c ****   return (ch);
 292              		.loc 1 96 3 is_stmt 1 view .LVU73
  97:Src/bsp_debug_usart.c **** }
 293              		.loc 1 97 1 is_stmt 0 view .LVU74
 294 0014 0198     		ldr	r0, [sp, #4]
 295 0016 03B0     		add	sp, sp, #12
 296              	.LCFI7:
 297              		.cfi_def_cfa_offset 4
 298              		@ sp needed
 299 0018 5DF804FB 		ldr	pc, [sp], #4
 300              	.L17:
 301              		.align	2
 302              	.L16:
 303 001c 00000000 		.word	UartHandle
 304              		.cfi_endproc
 305              	.LFE71:
 307              		.section	.text.fgetc,"ax",%progbits
 308              		.align	1
 309              		.global	fgetc
 310              		.syntax unified
ARM GAS  /tmp/cc4wW0jD.s 			page 8


 311              		.thumb
 312              		.thumb_func
 313              		.fpu softvfp
 315              	fgetc:
 316              	.LVL15:
 317              	.LFB72:
  98:Src/bsp_debug_usart.c **** 
  99:Src/bsp_debug_usart.c **** //重定向c库函数scanf到串口DEBUG_USART，重写向后可使用scanf、getchar等函数
 100:Src/bsp_debug_usart.c **** int fgetc(FILE *f)
 101:Src/bsp_debug_usart.c **** {
 318              		.loc 1 101 1 is_stmt 1 view -0
 319              		.cfi_startproc
 320              		@ args = 0, pretend = 0, frame = 8
 321              		@ frame_needed = 0, uses_anonymous_args = 0
 322              		.loc 1 101 1 is_stmt 0 view .LVU76
 323 0000 00B5     		push	{lr}
 324              	.LCFI8:
 325              		.cfi_def_cfa_offset 4
 326              		.cfi_offset 14, -4
 327 0002 83B0     		sub	sp, sp, #12
 328              	.LCFI9:
 329              		.cfi_def_cfa_offset 16
 102:Src/bsp_debug_usart.c ****   int ch;
 330              		.loc 1 102 3 is_stmt 1 view .LVU77
 103:Src/bsp_debug_usart.c ****   HAL_UART_Receive(&UartHandle, (uint8_t *)&ch, 1, 1000);
 331              		.loc 1 103 3 view .LVU78
 332 0004 4FF47A73 		mov	r3, #1000
 333 0008 0122     		movs	r2, #1
 334 000a 01A9     		add	r1, sp, #4
 335 000c 0348     		ldr	r0, .L20
 336              	.LVL16:
 337              		.loc 1 103 3 is_stmt 0 view .LVU79
 338 000e FFF7FEFF 		bl	HAL_UART_Receive
 339              	.LVL17:
 104:Src/bsp_debug_usart.c ****   return (ch);
 340              		.loc 1 104 3 is_stmt 1 view .LVU80
 105:Src/bsp_debug_usart.c **** }
 341              		.loc 1 105 1 is_stmt 0 view .LVU81
 342 0012 0198     		ldr	r0, [sp, #4]
 343 0014 03B0     		add	sp, sp, #12
 344              	.LCFI10:
 345              		.cfi_def_cfa_offset 4
 346              		@ sp needed
 347 0016 5DF804FB 		ldr	pc, [sp], #4
 348              	.L21:
 349 001a 00BF     		.align	2
 350              	.L20:
 351 001c 00000000 		.word	UartHandle
 352              		.cfi_endproc
 353              	.LFE72:
 355              		.comm	UartHandle,64,4
 356              		.text
 357              	.Letext0:
 358              		.file 2 "/usr/lib/gcc/arm-none-eabi/9.2.1/include/stdint.h"
 359              		.file 3 "Drivers/CMSIS/Include/core_cm3.h"
 360              		.file 4 "Drivers/CMSIS/Device/ST/STM32F1xx/Include/system_stm32f1xx.h"
 361              		.file 5 "Drivers/CMSIS/Device/ST/STM32F1xx/Include/stm32f103xe.h"
ARM GAS  /tmp/cc4wW0jD.s 			page 9


 362              		.file 6 "Drivers/STM32F1xx_HAL_Driver/Inc/stm32f1xx_hal_def.h"
 363              		.file 7 "Drivers/STM32F1xx_HAL_Driver/Inc/stm32f1xx_hal_gpio.h"
 364              		.file 8 "Drivers/STM32F1xx_HAL_Driver/Inc/stm32f1xx_hal_dma.h"
 365              		.file 9 "Drivers/STM32F1xx_HAL_Driver/Inc/stm32f1xx_hal_uart.h"
 366              		.file 10 "Drivers/STM32F1xx_HAL_Driver/Inc/stm32f1xx_hal.h"
 367              		.file 11 "/usr/lib/gcc/arm-none-eabi/9.2.1/include/stddef.h"
 368              		.file 12 "/usr/include/newlib/sys/_types.h"
 369              		.file 13 "/usr/include/newlib/sys/reent.h"
 370              		.file 14 "/usr/include/newlib/sys/lock.h"
 371              		.file 15 "/usr/include/newlib/stdio.h"
 372              		.file 16 "Inc/bsp_debug_usart.h"
ARM GAS  /tmp/cc4wW0jD.s 			page 10

