ARM GAS  /tmp/ccMmQP8f.s 			page 1


   1              		.cpu cortex-m3
   2              		.eabi_attribute 20, 1
   3              		.eabi_attribute 21, 1
   4              		.eabi_attribute 23, 3
   5              		.eabi_attribute 24, 1
   6              		.eabi_attribute 25, 1
   7              		.eabi_attribute 26, 1
   8              		.eabi_attribute 30, 1
   9              		.eabi_attribute 34, 1
  10              		.eabi_attribute 18, 4
  11              		.file	"stm32f1xx_hal_dac.c"
  12              		.text
  13              	.Ltext0:
  14              		.cfi_sections	.debug_frame
  15              		.section	.text.HAL_DAC_MspInit,"ax",%progbits
  16              		.align	1
  17              		.weak	HAL_DAC_MspInit
  18              		.arch armv7-m
  19              		.syntax unified
  20              		.thumb
  21              		.thumb_func
  22              		.fpu softvfp
  24              	HAL_DAC_MspInit:
  25              	.LVL0:
  26              	.LFB67:
  27              		.file 1 "Drivers/STM32F1xx_HAL_Driver/Src/stm32f1xx_hal_dac.c"
   1:Drivers/STM32F1xx_HAL_Driver/Src/stm32f1xx_hal_dac.c **** /**
   2:Drivers/STM32F1xx_HAL_Driver/Src/stm32f1xx_hal_dac.c ****   ******************************************************************************
   3:Drivers/STM32F1xx_HAL_Driver/Src/stm32f1xx_hal_dac.c ****   * @file    stm32f1xx_hal_dac.c
   4:Drivers/STM32F1xx_HAL_Driver/Src/stm32f1xx_hal_dac.c ****   * @author  MCD Application Team
   5:Drivers/STM32F1xx_HAL_Driver/Src/stm32f1xx_hal_dac.c ****   * @brief   DAC HAL module driver.
   6:Drivers/STM32F1xx_HAL_Driver/Src/stm32f1xx_hal_dac.c ****   *         This file provides firmware functions to manage the following
   7:Drivers/STM32F1xx_HAL_Driver/Src/stm32f1xx_hal_dac.c ****   *         functionalities of the Digital to Analog Converter (DAC) peripheral:
   8:Drivers/STM32F1xx_HAL_Driver/Src/stm32f1xx_hal_dac.c ****   *           + Initialization and de-initialization functions
   9:Drivers/STM32F1xx_HAL_Driver/Src/stm32f1xx_hal_dac.c ****   *           + IO operation functions
  10:Drivers/STM32F1xx_HAL_Driver/Src/stm32f1xx_hal_dac.c ****   *           + Peripheral Control functions
  11:Drivers/STM32F1xx_HAL_Driver/Src/stm32f1xx_hal_dac.c ****   *           + Peripheral State and Errors functions
  12:Drivers/STM32F1xx_HAL_Driver/Src/stm32f1xx_hal_dac.c ****   *
  13:Drivers/STM32F1xx_HAL_Driver/Src/stm32f1xx_hal_dac.c ****   *
  14:Drivers/STM32F1xx_HAL_Driver/Src/stm32f1xx_hal_dac.c ****   @verbatim
  15:Drivers/STM32F1xx_HAL_Driver/Src/stm32f1xx_hal_dac.c ****   ==============================================================================
  16:Drivers/STM32F1xx_HAL_Driver/Src/stm32f1xx_hal_dac.c ****                       ##### DAC Peripheral features #####
  17:Drivers/STM32F1xx_HAL_Driver/Src/stm32f1xx_hal_dac.c ****   ==============================================================================
  18:Drivers/STM32F1xx_HAL_Driver/Src/stm32f1xx_hal_dac.c ****     [..]
  19:Drivers/STM32F1xx_HAL_Driver/Src/stm32f1xx_hal_dac.c ****       *** DAC Channels ***
  20:Drivers/STM32F1xx_HAL_Driver/Src/stm32f1xx_hal_dac.c ****       ====================
  21:Drivers/STM32F1xx_HAL_Driver/Src/stm32f1xx_hal_dac.c ****     [..]
  22:Drivers/STM32F1xx_HAL_Driver/Src/stm32f1xx_hal_dac.c ****     STM32F1 devices integrate two 12-bit Digital Analog Converters
  23:Drivers/STM32F1xx_HAL_Driver/Src/stm32f1xx_hal_dac.c **** 
  24:Drivers/STM32F1xx_HAL_Driver/Src/stm32f1xx_hal_dac.c ****     The 2 converters (i.e. channel1 & channel2)
  25:Drivers/STM32F1xx_HAL_Driver/Src/stm32f1xx_hal_dac.c ****     can be used independently or simultaneously (dual mode):
  26:Drivers/STM32F1xx_HAL_Driver/Src/stm32f1xx_hal_dac.c ****       (#) DAC channel1 with DAC_OUT1 (PA4) as output or connected to on-chip
  27:Drivers/STM32F1xx_HAL_Driver/Src/stm32f1xx_hal_dac.c ****           peripherals (ex. timers).
  28:Drivers/STM32F1xx_HAL_Driver/Src/stm32f1xx_hal_dac.c ****       (#) DAC channel2 with DAC_OUT2 (PA5) as output or connected to on-chip
  29:Drivers/STM32F1xx_HAL_Driver/Src/stm32f1xx_hal_dac.c ****           peripherals (ex. timers).
  30:Drivers/STM32F1xx_HAL_Driver/Src/stm32f1xx_hal_dac.c **** 
  31:Drivers/STM32F1xx_HAL_Driver/Src/stm32f1xx_hal_dac.c ****       *** DAC Triggers ***
ARM GAS  /tmp/ccMmQP8f.s 			page 2


  32:Drivers/STM32F1xx_HAL_Driver/Src/stm32f1xx_hal_dac.c ****       ====================
  33:Drivers/STM32F1xx_HAL_Driver/Src/stm32f1xx_hal_dac.c ****     [..]
  34:Drivers/STM32F1xx_HAL_Driver/Src/stm32f1xx_hal_dac.c ****     Digital to Analog conversion can be non-triggered using DAC_TRIGGER_NONE
  35:Drivers/STM32F1xx_HAL_Driver/Src/stm32f1xx_hal_dac.c ****     and DAC_OUT1/DAC_OUT2 is available once writing to DHRx register.
  36:Drivers/STM32F1xx_HAL_Driver/Src/stm32f1xx_hal_dac.c ****     [..]
  37:Drivers/STM32F1xx_HAL_Driver/Src/stm32f1xx_hal_dac.c ****     Digital to Analog conversion can be triggered by:
  38:Drivers/STM32F1xx_HAL_Driver/Src/stm32f1xx_hal_dac.c ****       (#) External event: EXTI Line 9 (any GPIOx_PIN_9) using DAC_TRIGGER_EXT_IT9.
  39:Drivers/STM32F1xx_HAL_Driver/Src/stm32f1xx_hal_dac.c ****           The used pin (GPIOx_PIN_9) must be configured in input mode.
  40:Drivers/STM32F1xx_HAL_Driver/Src/stm32f1xx_hal_dac.c **** 
  41:Drivers/STM32F1xx_HAL_Driver/Src/stm32f1xx_hal_dac.c ****       (#) Timers TRGO: TIM2, TIM4, TIM6, TIM7
  42:Drivers/STM32F1xx_HAL_Driver/Src/stm32f1xx_hal_dac.c ****           For STM32F10x connectivity line devices and STM32F100x devices: TIM3
  43:Drivers/STM32F1xx_HAL_Driver/Src/stm32f1xx_hal_dac.c ****           For STM32F10x high-density and XL-density devices: TIM8
  44:Drivers/STM32F1xx_HAL_Driver/Src/stm32f1xx_hal_dac.c ****           For STM32F100x high-density value line devices: TIM15 as
  45:Drivers/STM32F1xx_HAL_Driver/Src/stm32f1xx_hal_dac.c ****           replacement of TIM5.
  46:Drivers/STM32F1xx_HAL_Driver/Src/stm32f1xx_hal_dac.c ****           (DAC_TRIGGER_T2_TRGO, DAC_TRIGGER_T4_TRGO...)
  47:Drivers/STM32F1xx_HAL_Driver/Src/stm32f1xx_hal_dac.c ****   
  48:Drivers/STM32F1xx_HAL_Driver/Src/stm32f1xx_hal_dac.c ****       (#) Software using DAC_TRIGGER_SOFTWARE
  49:Drivers/STM32F1xx_HAL_Driver/Src/stm32f1xx_hal_dac.c **** 
  50:Drivers/STM32F1xx_HAL_Driver/Src/stm32f1xx_hal_dac.c ****       *** DAC Buffer mode feature ***
  51:Drivers/STM32F1xx_HAL_Driver/Src/stm32f1xx_hal_dac.c ****       ===============================
  52:Drivers/STM32F1xx_HAL_Driver/Src/stm32f1xx_hal_dac.c ****       [..]
  53:Drivers/STM32F1xx_HAL_Driver/Src/stm32f1xx_hal_dac.c ****       Each DAC channel integrates an output buffer that can be used to
  54:Drivers/STM32F1xx_HAL_Driver/Src/stm32f1xx_hal_dac.c ****       reduce the output impedance, and to drive external loads directly
  55:Drivers/STM32F1xx_HAL_Driver/Src/stm32f1xx_hal_dac.c ****       without having to add an external operational amplifier.
  56:Drivers/STM32F1xx_HAL_Driver/Src/stm32f1xx_hal_dac.c ****       To enable, the output buffer use
  57:Drivers/STM32F1xx_HAL_Driver/Src/stm32f1xx_hal_dac.c ****       sConfig.DAC_OutputBuffer = DAC_OUTPUTBUFFER_ENABLE;
  58:Drivers/STM32F1xx_HAL_Driver/Src/stm32f1xx_hal_dac.c ****       [..]
  59:Drivers/STM32F1xx_HAL_Driver/Src/stm32f1xx_hal_dac.c ****       (@) Refer to the device datasheet for more details about output
  60:Drivers/STM32F1xx_HAL_Driver/Src/stm32f1xx_hal_dac.c ****           impedance value with and without output buffer.
  61:Drivers/STM32F1xx_HAL_Driver/Src/stm32f1xx_hal_dac.c **** 
  62:Drivers/STM32F1xx_HAL_Driver/Src/stm32f1xx_hal_dac.c ****       *** DAC connect feature ***
  63:Drivers/STM32F1xx_HAL_Driver/Src/stm32f1xx_hal_dac.c ****       ===============================
  64:Drivers/STM32F1xx_HAL_Driver/Src/stm32f1xx_hal_dac.c ****       [..]
  65:Drivers/STM32F1xx_HAL_Driver/Src/stm32f1xx_hal_dac.c ****       Each DAC channel can be connected internally.
  66:Drivers/STM32F1xx_HAL_Driver/Src/stm32f1xx_hal_dac.c ****       To connect, use
  67:Drivers/STM32F1xx_HAL_Driver/Src/stm32f1xx_hal_dac.c ****       sConfig.DAC_ConnectOnChipPeripheral = DAC_CHIPCONNECT_ENABLE;
  68:Drivers/STM32F1xx_HAL_Driver/Src/stm32f1xx_hal_dac.c **** 
  69:Drivers/STM32F1xx_HAL_Driver/Src/stm32f1xx_hal_dac.c ****       *** GPIO configurations guidelines ***
  70:Drivers/STM32F1xx_HAL_Driver/Src/stm32f1xx_hal_dac.c ****       =====================
  71:Drivers/STM32F1xx_HAL_Driver/Src/stm32f1xx_hal_dac.c ****       [..]
  72:Drivers/STM32F1xx_HAL_Driver/Src/stm32f1xx_hal_dac.c ****       When a DAC channel is used (ex channel1 on PA4) and the other is not
  73:Drivers/STM32F1xx_HAL_Driver/Src/stm32f1xx_hal_dac.c ****       (ex channel2 on PA5 is configured in Analog and disabled).
  74:Drivers/STM32F1xx_HAL_Driver/Src/stm32f1xx_hal_dac.c ****       Channel1 may disturb channel2 as coupling effect.
  75:Drivers/STM32F1xx_HAL_Driver/Src/stm32f1xx_hal_dac.c ****       Note that there is no coupling on channel2 as soon as channel2 is turned on.
  76:Drivers/STM32F1xx_HAL_Driver/Src/stm32f1xx_hal_dac.c ****       Coupling on adjacent channel could be avoided as follows:
  77:Drivers/STM32F1xx_HAL_Driver/Src/stm32f1xx_hal_dac.c ****       when unused PA5 is configured as INPUT PULL-UP or DOWN.
  78:Drivers/STM32F1xx_HAL_Driver/Src/stm32f1xx_hal_dac.c ****       PA5 is configured in ANALOG just before it is turned on.
  79:Drivers/STM32F1xx_HAL_Driver/Src/stm32f1xx_hal_dac.c **** 
  80:Drivers/STM32F1xx_HAL_Driver/Src/stm32f1xx_hal_dac.c ****        *** DAC wave generation feature ***
  81:Drivers/STM32F1xx_HAL_Driver/Src/stm32f1xx_hal_dac.c ****        ===================================
  82:Drivers/STM32F1xx_HAL_Driver/Src/stm32f1xx_hal_dac.c ****        [..]
  83:Drivers/STM32F1xx_HAL_Driver/Src/stm32f1xx_hal_dac.c ****        Both DAC channels can be used to generate
  84:Drivers/STM32F1xx_HAL_Driver/Src/stm32f1xx_hal_dac.c ****          (#) Noise wave
  85:Drivers/STM32F1xx_HAL_Driver/Src/stm32f1xx_hal_dac.c ****          (#) Triangle wave
  86:Drivers/STM32F1xx_HAL_Driver/Src/stm32f1xx_hal_dac.c **** 
  87:Drivers/STM32F1xx_HAL_Driver/Src/stm32f1xx_hal_dac.c ****        *** DAC data format ***
  88:Drivers/STM32F1xx_HAL_Driver/Src/stm32f1xx_hal_dac.c ****        =======================
ARM GAS  /tmp/ccMmQP8f.s 			page 3


  89:Drivers/STM32F1xx_HAL_Driver/Src/stm32f1xx_hal_dac.c ****        [..]
  90:Drivers/STM32F1xx_HAL_Driver/Src/stm32f1xx_hal_dac.c ****        The DAC data format can be:
  91:Drivers/STM32F1xx_HAL_Driver/Src/stm32f1xx_hal_dac.c ****          (#) 8-bit right alignment using DAC_ALIGN_8B_R
  92:Drivers/STM32F1xx_HAL_Driver/Src/stm32f1xx_hal_dac.c ****          (#) 12-bit left alignment using DAC_ALIGN_12B_L
  93:Drivers/STM32F1xx_HAL_Driver/Src/stm32f1xx_hal_dac.c ****          (#) 12-bit right alignment using DAC_ALIGN_12B_R
  94:Drivers/STM32F1xx_HAL_Driver/Src/stm32f1xx_hal_dac.c **** 
  95:Drivers/STM32F1xx_HAL_Driver/Src/stm32f1xx_hal_dac.c ****        *** DAC data value to voltage correspondence ***
  96:Drivers/STM32F1xx_HAL_Driver/Src/stm32f1xx_hal_dac.c ****        ================================================
  97:Drivers/STM32F1xx_HAL_Driver/Src/stm32f1xx_hal_dac.c ****        [..]
  98:Drivers/STM32F1xx_HAL_Driver/Src/stm32f1xx_hal_dac.c ****        The analog output voltage on each DAC channel pin is determined
  99:Drivers/STM32F1xx_HAL_Driver/Src/stm32f1xx_hal_dac.c ****        by the following equation:
 100:Drivers/STM32F1xx_HAL_Driver/Src/stm32f1xx_hal_dac.c ****        [..]
 101:Drivers/STM32F1xx_HAL_Driver/Src/stm32f1xx_hal_dac.c ****        DAC_OUTx = VREF+ * DOR / 4095
 102:Drivers/STM32F1xx_HAL_Driver/Src/stm32f1xx_hal_dac.c ****        (+) with  DOR is the Data Output Register
 103:Drivers/STM32F1xx_HAL_Driver/Src/stm32f1xx_hal_dac.c ****        [..]
 104:Drivers/STM32F1xx_HAL_Driver/Src/stm32f1xx_hal_dac.c ****           VEF+ is the input voltage reference (refer to the device datasheet)
 105:Drivers/STM32F1xx_HAL_Driver/Src/stm32f1xx_hal_dac.c ****        [..]
 106:Drivers/STM32F1xx_HAL_Driver/Src/stm32f1xx_hal_dac.c ****         e.g. To set DAC_OUT1 to 0.7V, use
 107:Drivers/STM32F1xx_HAL_Driver/Src/stm32f1xx_hal_dac.c ****        (+) Assuming that VREF+ = 3.3V, DAC_OUT1 = (3.3 * 868) / 4095 = 0.7V
 108:Drivers/STM32F1xx_HAL_Driver/Src/stm32f1xx_hal_dac.c **** 
 109:Drivers/STM32F1xx_HAL_Driver/Src/stm32f1xx_hal_dac.c ****        *** DMA requests ***
 110:Drivers/STM32F1xx_HAL_Driver/Src/stm32f1xx_hal_dac.c ****        =====================
 111:Drivers/STM32F1xx_HAL_Driver/Src/stm32f1xx_hal_dac.c ****        [..]
 112:Drivers/STM32F1xx_HAL_Driver/Src/stm32f1xx_hal_dac.c ****        A DMA request can be generated when an external trigger (but not a software trigger)
 113:Drivers/STM32F1xx_HAL_Driver/Src/stm32f1xx_hal_dac.c ****        occurs if DMA1 requests are enabled using HAL_DAC_Start_DMA().
 114:Drivers/STM32F1xx_HAL_Driver/Src/stm32f1xx_hal_dac.c ****        DMA1 requests are mapped as following:
 115:Drivers/STM32F1xx_HAL_Driver/Src/stm32f1xx_hal_dac.c ****       (#) DAC channel1 mapped on DMA1 channel3
 116:Drivers/STM32F1xx_HAL_Driver/Src/stm32f1xx_hal_dac.c ****           for STM32F100x low-density, medium-density, high-density with DAC
 117:Drivers/STM32F1xx_HAL_Driver/Src/stm32f1xx_hal_dac.c ****           DMA remap:
 118:Drivers/STM32F1xx_HAL_Driver/Src/stm32f1xx_hal_dac.c ****       (#) DAC channel2 mapped on DMA2 channel3
 119:Drivers/STM32F1xx_HAL_Driver/Src/stm32f1xx_hal_dac.c ****           for STM32F100x high-density without DAC DMA remap and other  
 120:Drivers/STM32F1xx_HAL_Driver/Src/stm32f1xx_hal_dac.c ****           STM32F1 devices
 121:Drivers/STM32F1xx_HAL_Driver/Src/stm32f1xx_hal_dac.c **** 
 122:Drivers/STM32F1xx_HAL_Driver/Src/stm32f1xx_hal_dac.c ****      [..]
 123:Drivers/STM32F1xx_HAL_Driver/Src/stm32f1xx_hal_dac.c ****     (@) For Dual mode and specific signal (Triangle and noise) generation please
 124:Drivers/STM32F1xx_HAL_Driver/Src/stm32f1xx_hal_dac.c ****         refer to Extended Features Driver description
 125:Drivers/STM32F1xx_HAL_Driver/Src/stm32f1xx_hal_dac.c **** 
 126:Drivers/STM32F1xx_HAL_Driver/Src/stm32f1xx_hal_dac.c ****                       ##### How to use this driver #####
 127:Drivers/STM32F1xx_HAL_Driver/Src/stm32f1xx_hal_dac.c ****   ==============================================================================
 128:Drivers/STM32F1xx_HAL_Driver/Src/stm32f1xx_hal_dac.c ****     [..]
 129:Drivers/STM32F1xx_HAL_Driver/Src/stm32f1xx_hal_dac.c ****       (+) DAC APB clock must be enabled to get write access to DAC
 130:Drivers/STM32F1xx_HAL_Driver/Src/stm32f1xx_hal_dac.c ****           registers using HAL_DAC_Init()
 131:Drivers/STM32F1xx_HAL_Driver/Src/stm32f1xx_hal_dac.c ****       (+) Configure DAC_OUTx (DAC_OUT1: PA4, DAC_OUT2: PA5) in analog mode.
 132:Drivers/STM32F1xx_HAL_Driver/Src/stm32f1xx_hal_dac.c ****       (+) Configure the DAC channel using HAL_DAC_ConfigChannel() function.
 133:Drivers/STM32F1xx_HAL_Driver/Src/stm32f1xx_hal_dac.c ****       (+) Enable the DAC channel using HAL_DAC_Start() or HAL_DAC_Start_DMA() functions.
 134:Drivers/STM32F1xx_HAL_Driver/Src/stm32f1xx_hal_dac.c **** 
 135:Drivers/STM32F1xx_HAL_Driver/Src/stm32f1xx_hal_dac.c **** 
 136:Drivers/STM32F1xx_HAL_Driver/Src/stm32f1xx_hal_dac.c ****      *** Polling mode IO operation ***
 137:Drivers/STM32F1xx_HAL_Driver/Src/stm32f1xx_hal_dac.c ****      =================================
 138:Drivers/STM32F1xx_HAL_Driver/Src/stm32f1xx_hal_dac.c ****      [..]
 139:Drivers/STM32F1xx_HAL_Driver/Src/stm32f1xx_hal_dac.c ****        (+) Start the DAC peripheral using HAL_DAC_Start()
 140:Drivers/STM32F1xx_HAL_Driver/Src/stm32f1xx_hal_dac.c ****        (+) To read the DAC last data output value, use the HAL_DAC_GetValue() function.
 141:Drivers/STM32F1xx_HAL_Driver/Src/stm32f1xx_hal_dac.c ****        (+) Stop the DAC peripheral using HAL_DAC_Stop()
 142:Drivers/STM32F1xx_HAL_Driver/Src/stm32f1xx_hal_dac.c **** 
 143:Drivers/STM32F1xx_HAL_Driver/Src/stm32f1xx_hal_dac.c ****      *** DMA mode IO operation ***
 144:Drivers/STM32F1xx_HAL_Driver/Src/stm32f1xx_hal_dac.c ****      ==============================
 145:Drivers/STM32F1xx_HAL_Driver/Src/stm32f1xx_hal_dac.c ****      [..]
ARM GAS  /tmp/ccMmQP8f.s 			page 4


 146:Drivers/STM32F1xx_HAL_Driver/Src/stm32f1xx_hal_dac.c ****        (+) Start the DAC peripheral using HAL_DAC_Start_DMA(), at this stage the user specify the l
 147:Drivers/STM32F1xx_HAL_Driver/Src/stm32f1xx_hal_dac.c ****            of data to be transferred at each end of conversion
 148:Drivers/STM32F1xx_HAL_Driver/Src/stm32f1xx_hal_dac.c ****            First issued trigger will start the conversion of the value previously set by HAL_DAC_Se
 149:Drivers/STM32F1xx_HAL_Driver/Src/stm32f1xx_hal_dac.c ****        (+) At the middle of data transfer HAL_DAC_ConvHalfCpltCallbackCh1() or HAL_DACEx_ConvHalfCp
 150:Drivers/STM32F1xx_HAL_Driver/Src/stm32f1xx_hal_dac.c ****            function is executed and user can add his own code by customization of function pointer
 151:Drivers/STM32F1xx_HAL_Driver/Src/stm32f1xx_hal_dac.c ****            HAL_DAC_ConvHalfCpltCallbackCh1() or HAL_DACEx_ConvHalfCpltCallbackCh2()
 152:Drivers/STM32F1xx_HAL_Driver/Src/stm32f1xx_hal_dac.c ****        (+) At The end of data transfer HAL_DAC_ConvCpltCallbackCh1() or HAL_DACEx_ConvHalfCpltCallb
 153:Drivers/STM32F1xx_HAL_Driver/Src/stm32f1xx_hal_dac.c ****            function is executed and user can add his own code by customization of function pointer
 154:Drivers/STM32F1xx_HAL_Driver/Src/stm32f1xx_hal_dac.c ****            HAL_DAC_ConvCpltCallbackCh1() or HAL_DACEx_ConvHalfCpltCallbackCh2()
 155:Drivers/STM32F1xx_HAL_Driver/Src/stm32f1xx_hal_dac.c ****        (+) In case of transfer Error, HAL_DAC_ErrorCallbackCh1() function is executed and user can
 156:Drivers/STM32F1xx_HAL_Driver/Src/stm32f1xx_hal_dac.c ****             add his own code by customization of function pointer HAL_DAC_ErrorCallbackCh1
 157:Drivers/STM32F1xx_HAL_Driver/Src/stm32f1xx_hal_dac.c ****        (+) For STM32F100x devices with specific feature: DMA underrun.             
 158:Drivers/STM32F1xx_HAL_Driver/Src/stm32f1xx_hal_dac.c ****            In case of DMA underrun, DAC interruption triggers and execute internal function HAL_DAC
 159:Drivers/STM32F1xx_HAL_Driver/Src/stm32f1xx_hal_dac.c ****            HAL_DAC_DMAUnderrunCallbackCh1() or HAL_DACEx_DMAUnderrunCallbackCh2()
 160:Drivers/STM32F1xx_HAL_Driver/Src/stm32f1xx_hal_dac.c ****            function is executed and user can add his own code by customization of function pointer
 161:Drivers/STM32F1xx_HAL_Driver/Src/stm32f1xx_hal_dac.c ****            HAL_DAC_DMAUnderrunCallbackCh1() or HAL_DACEx_DMAUnderrunCallbackCh2() and
 162:Drivers/STM32F1xx_HAL_Driver/Src/stm32f1xx_hal_dac.c ****            add his own code by customization of function pointer HAL_DAC_ErrorCallbackCh1()
 163:Drivers/STM32F1xx_HAL_Driver/Src/stm32f1xx_hal_dac.c ****        (+) Stop the DAC peripheral using HAL_DAC_Stop_DMA()
 164:Drivers/STM32F1xx_HAL_Driver/Src/stm32f1xx_hal_dac.c **** 
 165:Drivers/STM32F1xx_HAL_Driver/Src/stm32f1xx_hal_dac.c ****     *** Callback registration ***
 166:Drivers/STM32F1xx_HAL_Driver/Src/stm32f1xx_hal_dac.c ****     =============================================
 167:Drivers/STM32F1xx_HAL_Driver/Src/stm32f1xx_hal_dac.c ****     [..]
 168:Drivers/STM32F1xx_HAL_Driver/Src/stm32f1xx_hal_dac.c ****       The compilation define  USE_HAL_DAC_REGISTER_CALLBACKS when set to 1
 169:Drivers/STM32F1xx_HAL_Driver/Src/stm32f1xx_hal_dac.c ****       allows the user to configure dynamically the driver callbacks.
 170:Drivers/STM32F1xx_HAL_Driver/Src/stm32f1xx_hal_dac.c **** 
 171:Drivers/STM32F1xx_HAL_Driver/Src/stm32f1xx_hal_dac.c ****     Use Functions @ref HAL_DAC_RegisterCallback() to register a user callback,
 172:Drivers/STM32F1xx_HAL_Driver/Src/stm32f1xx_hal_dac.c ****       it allows to register following callbacks:
 173:Drivers/STM32F1xx_HAL_Driver/Src/stm32f1xx_hal_dac.c ****       (+) ConvCpltCallbackCh1     : callback when a half transfer is completed on Ch1.
 174:Drivers/STM32F1xx_HAL_Driver/Src/stm32f1xx_hal_dac.c ****       (+) ConvHalfCpltCallbackCh1 : callback when a transfer is completed on Ch1.
 175:Drivers/STM32F1xx_HAL_Driver/Src/stm32f1xx_hal_dac.c ****       (+) ErrorCallbackCh1        : callback when an error occurs on Ch1.
 176:Drivers/STM32F1xx_HAL_Driver/Src/stm32f1xx_hal_dac.c ****       (+) DMAUnderrunCallbackCh1  : callback when an underrun error occurs on Ch1.
 177:Drivers/STM32F1xx_HAL_Driver/Src/stm32f1xx_hal_dac.c ****       (+) ConvCpltCallbackCh2     : callback when a half transfer is completed on Ch2.
 178:Drivers/STM32F1xx_HAL_Driver/Src/stm32f1xx_hal_dac.c ****       (+) ConvHalfCpltCallbackCh2 : callback when a transfer is completed on Ch2.
 179:Drivers/STM32F1xx_HAL_Driver/Src/stm32f1xx_hal_dac.c ****       (+) ErrorCallbackCh2        : callback when an error occurs on Ch2.
 180:Drivers/STM32F1xx_HAL_Driver/Src/stm32f1xx_hal_dac.c ****       (+) DMAUnderrunCallbackCh2  : callback when an underrun error occurs on Ch2.
 181:Drivers/STM32F1xx_HAL_Driver/Src/stm32f1xx_hal_dac.c ****       (+) MspInitCallback         : DAC MspInit.
 182:Drivers/STM32F1xx_HAL_Driver/Src/stm32f1xx_hal_dac.c ****       (+) MspDeInitCallback       : DAC MspdeInit.
 183:Drivers/STM32F1xx_HAL_Driver/Src/stm32f1xx_hal_dac.c ****       This function takes as parameters the HAL peripheral handle, the Callback ID
 184:Drivers/STM32F1xx_HAL_Driver/Src/stm32f1xx_hal_dac.c ****       and a pointer to the user callback function.
 185:Drivers/STM32F1xx_HAL_Driver/Src/stm32f1xx_hal_dac.c **** 
 186:Drivers/STM32F1xx_HAL_Driver/Src/stm32f1xx_hal_dac.c ****     Use function @ref HAL_DAC_UnRegisterCallback() to reset a callback to the default
 187:Drivers/STM32F1xx_HAL_Driver/Src/stm32f1xx_hal_dac.c ****       weak (surcharged) function. It allows to reset following callbacks:
 188:Drivers/STM32F1xx_HAL_Driver/Src/stm32f1xx_hal_dac.c ****       (+) ConvCpltCallbackCh1     : callback when a half transfer is completed on Ch1.
 189:Drivers/STM32F1xx_HAL_Driver/Src/stm32f1xx_hal_dac.c ****       (+) ConvHalfCpltCallbackCh1 : callback when a transfer is completed on Ch1.
 190:Drivers/STM32F1xx_HAL_Driver/Src/stm32f1xx_hal_dac.c ****       (+) ErrorCallbackCh1        : callback when an error occurs on Ch1.
 191:Drivers/STM32F1xx_HAL_Driver/Src/stm32f1xx_hal_dac.c ****       (+) DMAUnderrunCallbackCh1  : callback when an underrun error occurs on Ch1.
 192:Drivers/STM32F1xx_HAL_Driver/Src/stm32f1xx_hal_dac.c ****       (+) ConvCpltCallbackCh2     : callback when a half transfer is completed on Ch2.
 193:Drivers/STM32F1xx_HAL_Driver/Src/stm32f1xx_hal_dac.c ****       (+) ConvHalfCpltCallbackCh2 : callback when a transfer is completed on Ch2.
 194:Drivers/STM32F1xx_HAL_Driver/Src/stm32f1xx_hal_dac.c ****       (+) ErrorCallbackCh2        : callback when an error occurs on Ch2.
 195:Drivers/STM32F1xx_HAL_Driver/Src/stm32f1xx_hal_dac.c ****       (+) DMAUnderrunCallbackCh2  : callback when an underrun error occurs on Ch2.
 196:Drivers/STM32F1xx_HAL_Driver/Src/stm32f1xx_hal_dac.c ****       (+) MspInitCallback         : DAC MspInit.
 197:Drivers/STM32F1xx_HAL_Driver/Src/stm32f1xx_hal_dac.c ****       (+) MspDeInitCallback       : DAC MspdeInit.
 198:Drivers/STM32F1xx_HAL_Driver/Src/stm32f1xx_hal_dac.c ****       (+) All Callbacks
 199:Drivers/STM32F1xx_HAL_Driver/Src/stm32f1xx_hal_dac.c ****       This function) takes as parameters the HAL peripheral handle and the Callback ID.
 200:Drivers/STM32F1xx_HAL_Driver/Src/stm32f1xx_hal_dac.c **** 
 201:Drivers/STM32F1xx_HAL_Driver/Src/stm32f1xx_hal_dac.c ****       By default, after the @ref HAL_DAC_Init and if the state is HAL_DAC_STATE_RESET
 202:Drivers/STM32F1xx_HAL_Driver/Src/stm32f1xx_hal_dac.c ****       all callbacks are reset to the corresponding legacy weak (surcharged) functions.
ARM GAS  /tmp/ccMmQP8f.s 			page 5


 203:Drivers/STM32F1xx_HAL_Driver/Src/stm32f1xx_hal_dac.c ****       Exception done for MspInit and MspDeInit callbacks that are respectively
 204:Drivers/STM32F1xx_HAL_Driver/Src/stm32f1xx_hal_dac.c ****       reset to the legacy weak (surcharged) functions in the @ref HAL_DAC_Init
 205:Drivers/STM32F1xx_HAL_Driver/Src/stm32f1xx_hal_dac.c ****       and @ref  HAL_DAC_DeInit only when these callbacks are null (not registered beforehand).
 206:Drivers/STM32F1xx_HAL_Driver/Src/stm32f1xx_hal_dac.c ****       If not, MspInit or MspDeInit are not null, the @ref HAL_DAC_Init and @ref HAL_DAC_DeInit
 207:Drivers/STM32F1xx_HAL_Driver/Src/stm32f1xx_hal_dac.c ****       keep and use the user MspInit/MspDeInit callbacks (registered beforehand)
 208:Drivers/STM32F1xx_HAL_Driver/Src/stm32f1xx_hal_dac.c **** 
 209:Drivers/STM32F1xx_HAL_Driver/Src/stm32f1xx_hal_dac.c ****       Callbacks can be registered/unregistered in READY state only.
 210:Drivers/STM32F1xx_HAL_Driver/Src/stm32f1xx_hal_dac.c ****       Exception done for MspInit/MspDeInit callbacks that can be registered/unregistered
 211:Drivers/STM32F1xx_HAL_Driver/Src/stm32f1xx_hal_dac.c ****       in READY or RESET state, thus registered (user) MspInit/DeInit callbacks can be used
 212:Drivers/STM32F1xx_HAL_Driver/Src/stm32f1xx_hal_dac.c ****       during the Init/DeInit.
 213:Drivers/STM32F1xx_HAL_Driver/Src/stm32f1xx_hal_dac.c ****       In that case first register the MspInit/MspDeInit user callbacks
 214:Drivers/STM32F1xx_HAL_Driver/Src/stm32f1xx_hal_dac.c ****       using @ref HAL_DAC_RegisterCallback before calling @ref HAL_DAC_DeInit
 215:Drivers/STM32F1xx_HAL_Driver/Src/stm32f1xx_hal_dac.c ****       or @ref HAL_DAC_Init function.
 216:Drivers/STM32F1xx_HAL_Driver/Src/stm32f1xx_hal_dac.c **** 
 217:Drivers/STM32F1xx_HAL_Driver/Src/stm32f1xx_hal_dac.c ****       When The compilation define USE_HAL_DAC_REGISTER_CALLBACKS is set to 0 or
 218:Drivers/STM32F1xx_HAL_Driver/Src/stm32f1xx_hal_dac.c ****       not defined, the callback registering feature is not available
 219:Drivers/STM32F1xx_HAL_Driver/Src/stm32f1xx_hal_dac.c ****       and weak (surcharged) callbacks are used.
 220:Drivers/STM32F1xx_HAL_Driver/Src/stm32f1xx_hal_dac.c **** 
 221:Drivers/STM32F1xx_HAL_Driver/Src/stm32f1xx_hal_dac.c ****      *** DAC HAL driver macros list ***
 222:Drivers/STM32F1xx_HAL_Driver/Src/stm32f1xx_hal_dac.c ****      =============================================
 223:Drivers/STM32F1xx_HAL_Driver/Src/stm32f1xx_hal_dac.c ****      [..]
 224:Drivers/STM32F1xx_HAL_Driver/Src/stm32f1xx_hal_dac.c ****        Below the list of most used macros in DAC HAL driver.
 225:Drivers/STM32F1xx_HAL_Driver/Src/stm32f1xx_hal_dac.c **** 
 226:Drivers/STM32F1xx_HAL_Driver/Src/stm32f1xx_hal_dac.c ****       (+) __HAL_DAC_ENABLE : Enable the DAC peripheral (For STM32F100x devices with specific featur
 227:Drivers/STM32F1xx_HAL_Driver/Src/stm32f1xx_hal_dac.c ****       (+) __HAL_DAC_DISABLE : Disable the DAC peripheral (For STM32F100x devices with specific feat
 228:Drivers/STM32F1xx_HAL_Driver/Src/stm32f1xx_hal_dac.c ****       (+) __HAL_DAC_CLEAR_FLAG: Clear the DAC's pending flags (For STM32F100x devices with specific
 229:Drivers/STM32F1xx_HAL_Driver/Src/stm32f1xx_hal_dac.c ****       (+) __HAL_DAC_GET_FLAG: Get the selected DAC's flag status (For STM32F100x devices with speci
 230:Drivers/STM32F1xx_HAL_Driver/Src/stm32f1xx_hal_dac.c **** 
 231:Drivers/STM32F1xx_HAL_Driver/Src/stm32f1xx_hal_dac.c ****      [..]
 232:Drivers/STM32F1xx_HAL_Driver/Src/stm32f1xx_hal_dac.c ****       (@) You can refer to the DAC HAL driver header file for more useful macros
 233:Drivers/STM32F1xx_HAL_Driver/Src/stm32f1xx_hal_dac.c **** 
 234:Drivers/STM32F1xx_HAL_Driver/Src/stm32f1xx_hal_dac.c ****  @endverbatim
 235:Drivers/STM32F1xx_HAL_Driver/Src/stm32f1xx_hal_dac.c ****   ******************************************************************************
 236:Drivers/STM32F1xx_HAL_Driver/Src/stm32f1xx_hal_dac.c ****   * @attention
 237:Drivers/STM32F1xx_HAL_Driver/Src/stm32f1xx_hal_dac.c ****   *
 238:Drivers/STM32F1xx_HAL_Driver/Src/stm32f1xx_hal_dac.c ****   * <h2><center>&copy; Copyright (c) 2016 STMicroelectronics.
 239:Drivers/STM32F1xx_HAL_Driver/Src/stm32f1xx_hal_dac.c ****   * All rights reserved.</center></h2>
 240:Drivers/STM32F1xx_HAL_Driver/Src/stm32f1xx_hal_dac.c ****   *
 241:Drivers/STM32F1xx_HAL_Driver/Src/stm32f1xx_hal_dac.c ****   * This software component is licensed by ST under BSD 3-Clause license,
 242:Drivers/STM32F1xx_HAL_Driver/Src/stm32f1xx_hal_dac.c ****   * the "License"; You may not use this file except in compliance with the
 243:Drivers/STM32F1xx_HAL_Driver/Src/stm32f1xx_hal_dac.c ****   * License. You may obtain a copy of the License at:
 244:Drivers/STM32F1xx_HAL_Driver/Src/stm32f1xx_hal_dac.c ****   *                        opensource.org/licenses/BSD-3-Clause
 245:Drivers/STM32F1xx_HAL_Driver/Src/stm32f1xx_hal_dac.c ****   *
 246:Drivers/STM32F1xx_HAL_Driver/Src/stm32f1xx_hal_dac.c ****   ******************************************************************************
 247:Drivers/STM32F1xx_HAL_Driver/Src/stm32f1xx_hal_dac.c ****   */
 248:Drivers/STM32F1xx_HAL_Driver/Src/stm32f1xx_hal_dac.c **** 
 249:Drivers/STM32F1xx_HAL_Driver/Src/stm32f1xx_hal_dac.c **** /* Includes ------------------------------------------------------------------*/
 250:Drivers/STM32F1xx_HAL_Driver/Src/stm32f1xx_hal_dac.c **** #include "stm32f1xx_hal.h"
 251:Drivers/STM32F1xx_HAL_Driver/Src/stm32f1xx_hal_dac.c **** 
 252:Drivers/STM32F1xx_HAL_Driver/Src/stm32f1xx_hal_dac.c **** /** @addtogroup STM32F1xx_HAL_Driver
 253:Drivers/STM32F1xx_HAL_Driver/Src/stm32f1xx_hal_dac.c ****   * @{
 254:Drivers/STM32F1xx_HAL_Driver/Src/stm32f1xx_hal_dac.c ****   */
 255:Drivers/STM32F1xx_HAL_Driver/Src/stm32f1xx_hal_dac.c **** 
 256:Drivers/STM32F1xx_HAL_Driver/Src/stm32f1xx_hal_dac.c **** #ifdef HAL_DAC_MODULE_ENABLED
 257:Drivers/STM32F1xx_HAL_Driver/Src/stm32f1xx_hal_dac.c **** #if defined(DAC)
 258:Drivers/STM32F1xx_HAL_Driver/Src/stm32f1xx_hal_dac.c **** 
 259:Drivers/STM32F1xx_HAL_Driver/Src/stm32f1xx_hal_dac.c **** /** @defgroup DAC DAC
ARM GAS  /tmp/ccMmQP8f.s 			page 6


 260:Drivers/STM32F1xx_HAL_Driver/Src/stm32f1xx_hal_dac.c ****   * @brief DAC driver modules
 261:Drivers/STM32F1xx_HAL_Driver/Src/stm32f1xx_hal_dac.c ****   * @{
 262:Drivers/STM32F1xx_HAL_Driver/Src/stm32f1xx_hal_dac.c ****   */
 263:Drivers/STM32F1xx_HAL_Driver/Src/stm32f1xx_hal_dac.c **** 
 264:Drivers/STM32F1xx_HAL_Driver/Src/stm32f1xx_hal_dac.c **** /* Private typedef -----------------------------------------------------------*/
 265:Drivers/STM32F1xx_HAL_Driver/Src/stm32f1xx_hal_dac.c **** /* Private define ------------------------------------------------------------*/
 266:Drivers/STM32F1xx_HAL_Driver/Src/stm32f1xx_hal_dac.c **** /* Private constants ---------------------------------------------------------*/
 267:Drivers/STM32F1xx_HAL_Driver/Src/stm32f1xx_hal_dac.c **** /* Private macro -------------------------------------------------------------*/
 268:Drivers/STM32F1xx_HAL_Driver/Src/stm32f1xx_hal_dac.c **** /* Private variables ---------------------------------------------------------*/
 269:Drivers/STM32F1xx_HAL_Driver/Src/stm32f1xx_hal_dac.c **** /* Private function prototypes -----------------------------------------------*/
 270:Drivers/STM32F1xx_HAL_Driver/Src/stm32f1xx_hal_dac.c **** /* Exported functions -------------------------------------------------------*/
 271:Drivers/STM32F1xx_HAL_Driver/Src/stm32f1xx_hal_dac.c **** 
 272:Drivers/STM32F1xx_HAL_Driver/Src/stm32f1xx_hal_dac.c **** /** @defgroup DAC_Exported_Functions DAC Exported Functions
 273:Drivers/STM32F1xx_HAL_Driver/Src/stm32f1xx_hal_dac.c ****   * @{
 274:Drivers/STM32F1xx_HAL_Driver/Src/stm32f1xx_hal_dac.c ****   */
 275:Drivers/STM32F1xx_HAL_Driver/Src/stm32f1xx_hal_dac.c **** 
 276:Drivers/STM32F1xx_HAL_Driver/Src/stm32f1xx_hal_dac.c **** /** @defgroup DAC_Exported_Functions_Group1 Initialization and de-initialization functions
 277:Drivers/STM32F1xx_HAL_Driver/Src/stm32f1xx_hal_dac.c ****   *  @brief    Initialization and Configuration functions
 278:Drivers/STM32F1xx_HAL_Driver/Src/stm32f1xx_hal_dac.c ****   *
 279:Drivers/STM32F1xx_HAL_Driver/Src/stm32f1xx_hal_dac.c **** @verbatim
 280:Drivers/STM32F1xx_HAL_Driver/Src/stm32f1xx_hal_dac.c ****   ==============================================================================
 281:Drivers/STM32F1xx_HAL_Driver/Src/stm32f1xx_hal_dac.c ****               ##### Initialization and de-initialization functions #####
 282:Drivers/STM32F1xx_HAL_Driver/Src/stm32f1xx_hal_dac.c ****   ==============================================================================
 283:Drivers/STM32F1xx_HAL_Driver/Src/stm32f1xx_hal_dac.c ****     [..]  This section provides functions allowing to:
 284:Drivers/STM32F1xx_HAL_Driver/Src/stm32f1xx_hal_dac.c ****       (+) Initialize and configure the DAC.
 285:Drivers/STM32F1xx_HAL_Driver/Src/stm32f1xx_hal_dac.c ****       (+) De-initialize the DAC.
 286:Drivers/STM32F1xx_HAL_Driver/Src/stm32f1xx_hal_dac.c **** 
 287:Drivers/STM32F1xx_HAL_Driver/Src/stm32f1xx_hal_dac.c **** @endverbatim
 288:Drivers/STM32F1xx_HAL_Driver/Src/stm32f1xx_hal_dac.c ****   * @{
 289:Drivers/STM32F1xx_HAL_Driver/Src/stm32f1xx_hal_dac.c ****   */
 290:Drivers/STM32F1xx_HAL_Driver/Src/stm32f1xx_hal_dac.c **** 
 291:Drivers/STM32F1xx_HAL_Driver/Src/stm32f1xx_hal_dac.c **** /**
 292:Drivers/STM32F1xx_HAL_Driver/Src/stm32f1xx_hal_dac.c ****   * @brief  Initialize the DAC peripheral according to the specified parameters
 293:Drivers/STM32F1xx_HAL_Driver/Src/stm32f1xx_hal_dac.c ****   *         in the DAC_InitStruct and initialize the associated handle.
 294:Drivers/STM32F1xx_HAL_Driver/Src/stm32f1xx_hal_dac.c ****   * @param  hdac pointer to a DAC_HandleTypeDef structure that contains
 295:Drivers/STM32F1xx_HAL_Driver/Src/stm32f1xx_hal_dac.c ****   *         the configuration information for the specified DAC.
 296:Drivers/STM32F1xx_HAL_Driver/Src/stm32f1xx_hal_dac.c ****   * @retval HAL status
 297:Drivers/STM32F1xx_HAL_Driver/Src/stm32f1xx_hal_dac.c ****   */
 298:Drivers/STM32F1xx_HAL_Driver/Src/stm32f1xx_hal_dac.c **** HAL_StatusTypeDef HAL_DAC_Init(DAC_HandleTypeDef *hdac)
 299:Drivers/STM32F1xx_HAL_Driver/Src/stm32f1xx_hal_dac.c **** {
 300:Drivers/STM32F1xx_HAL_Driver/Src/stm32f1xx_hal_dac.c ****   /* Check DAC handle */
 301:Drivers/STM32F1xx_HAL_Driver/Src/stm32f1xx_hal_dac.c ****   if (hdac == NULL)
 302:Drivers/STM32F1xx_HAL_Driver/Src/stm32f1xx_hal_dac.c ****   {
 303:Drivers/STM32F1xx_HAL_Driver/Src/stm32f1xx_hal_dac.c ****     return HAL_ERROR;
 304:Drivers/STM32F1xx_HAL_Driver/Src/stm32f1xx_hal_dac.c ****   }
 305:Drivers/STM32F1xx_HAL_Driver/Src/stm32f1xx_hal_dac.c ****   /* Check the parameters */
 306:Drivers/STM32F1xx_HAL_Driver/Src/stm32f1xx_hal_dac.c ****   assert_param(IS_DAC_ALL_INSTANCE(hdac->Instance));
 307:Drivers/STM32F1xx_HAL_Driver/Src/stm32f1xx_hal_dac.c **** 
 308:Drivers/STM32F1xx_HAL_Driver/Src/stm32f1xx_hal_dac.c ****   if (hdac->State == HAL_DAC_STATE_RESET)
 309:Drivers/STM32F1xx_HAL_Driver/Src/stm32f1xx_hal_dac.c ****   {
 310:Drivers/STM32F1xx_HAL_Driver/Src/stm32f1xx_hal_dac.c **** #if (USE_HAL_DAC_REGISTER_CALLBACKS == 1)
 311:Drivers/STM32F1xx_HAL_Driver/Src/stm32f1xx_hal_dac.c ****     /* Init the DAC Callback settings */
 312:Drivers/STM32F1xx_HAL_Driver/Src/stm32f1xx_hal_dac.c ****     hdac->ConvCpltCallbackCh1           = HAL_DAC_ConvCpltCallbackCh1;
 313:Drivers/STM32F1xx_HAL_Driver/Src/stm32f1xx_hal_dac.c ****     hdac->ConvHalfCpltCallbackCh1       = HAL_DAC_ConvHalfCpltCallbackCh1;
 314:Drivers/STM32F1xx_HAL_Driver/Src/stm32f1xx_hal_dac.c ****     hdac->ErrorCallbackCh1              = HAL_DAC_ErrorCallbackCh1;
 315:Drivers/STM32F1xx_HAL_Driver/Src/stm32f1xx_hal_dac.c ****     hdac->DMAUnderrunCallbackCh1        = HAL_DAC_DMAUnderrunCallbackCh1;
 316:Drivers/STM32F1xx_HAL_Driver/Src/stm32f1xx_hal_dac.c **** 
ARM GAS  /tmp/ccMmQP8f.s 			page 7


 317:Drivers/STM32F1xx_HAL_Driver/Src/stm32f1xx_hal_dac.c ****     hdac->ConvCpltCallbackCh2           = HAL_DACEx_ConvCpltCallbackCh2;
 318:Drivers/STM32F1xx_HAL_Driver/Src/stm32f1xx_hal_dac.c ****     hdac->ConvHalfCpltCallbackCh2       = HAL_DACEx_ConvHalfCpltCallbackCh2;
 319:Drivers/STM32F1xx_HAL_Driver/Src/stm32f1xx_hal_dac.c ****     hdac->ErrorCallbackCh2              = HAL_DACEx_ErrorCallbackCh2;
 320:Drivers/STM32F1xx_HAL_Driver/Src/stm32f1xx_hal_dac.c ****     hdac->DMAUnderrunCallbackCh2        = HAL_DACEx_DMAUnderrunCallbackCh2;
 321:Drivers/STM32F1xx_HAL_Driver/Src/stm32f1xx_hal_dac.c **** 
 322:Drivers/STM32F1xx_HAL_Driver/Src/stm32f1xx_hal_dac.c ****     if (hdac->MspInitCallback == NULL)
 323:Drivers/STM32F1xx_HAL_Driver/Src/stm32f1xx_hal_dac.c ****     {
 324:Drivers/STM32F1xx_HAL_Driver/Src/stm32f1xx_hal_dac.c ****       hdac->MspInitCallback             = HAL_DAC_MspInit;
 325:Drivers/STM32F1xx_HAL_Driver/Src/stm32f1xx_hal_dac.c ****     }
 326:Drivers/STM32F1xx_HAL_Driver/Src/stm32f1xx_hal_dac.c **** #endif /* USE_HAL_DAC_REGISTER_CALLBACKS */
 327:Drivers/STM32F1xx_HAL_Driver/Src/stm32f1xx_hal_dac.c **** 
 328:Drivers/STM32F1xx_HAL_Driver/Src/stm32f1xx_hal_dac.c ****     /* Allocate lock resource and initialize it */
 329:Drivers/STM32F1xx_HAL_Driver/Src/stm32f1xx_hal_dac.c ****     hdac->Lock = HAL_UNLOCKED;
 330:Drivers/STM32F1xx_HAL_Driver/Src/stm32f1xx_hal_dac.c **** 
 331:Drivers/STM32F1xx_HAL_Driver/Src/stm32f1xx_hal_dac.c **** #if (USE_HAL_DAC_REGISTER_CALLBACKS == 1)
 332:Drivers/STM32F1xx_HAL_Driver/Src/stm32f1xx_hal_dac.c ****     /* Init the low level hardware */
 333:Drivers/STM32F1xx_HAL_Driver/Src/stm32f1xx_hal_dac.c ****     hdac->MspInitCallback(hdac);
 334:Drivers/STM32F1xx_HAL_Driver/Src/stm32f1xx_hal_dac.c **** #else
 335:Drivers/STM32F1xx_HAL_Driver/Src/stm32f1xx_hal_dac.c ****     /* Init the low level hardware */
 336:Drivers/STM32F1xx_HAL_Driver/Src/stm32f1xx_hal_dac.c ****     HAL_DAC_MspInit(hdac);
 337:Drivers/STM32F1xx_HAL_Driver/Src/stm32f1xx_hal_dac.c **** #endif /* USE_HAL_DAC_REGISTER_CALLBACKS */
 338:Drivers/STM32F1xx_HAL_Driver/Src/stm32f1xx_hal_dac.c ****   }
 339:Drivers/STM32F1xx_HAL_Driver/Src/stm32f1xx_hal_dac.c **** 
 340:Drivers/STM32F1xx_HAL_Driver/Src/stm32f1xx_hal_dac.c ****   /* Initialize the DAC state*/
 341:Drivers/STM32F1xx_HAL_Driver/Src/stm32f1xx_hal_dac.c ****   hdac->State = HAL_DAC_STATE_BUSY;
 342:Drivers/STM32F1xx_HAL_Driver/Src/stm32f1xx_hal_dac.c **** 
 343:Drivers/STM32F1xx_HAL_Driver/Src/stm32f1xx_hal_dac.c ****   /* Set DAC error code to none */
 344:Drivers/STM32F1xx_HAL_Driver/Src/stm32f1xx_hal_dac.c ****   hdac->ErrorCode = HAL_DAC_ERROR_NONE;
 345:Drivers/STM32F1xx_HAL_Driver/Src/stm32f1xx_hal_dac.c **** 
 346:Drivers/STM32F1xx_HAL_Driver/Src/stm32f1xx_hal_dac.c ****   /* Initialize the DAC state*/
 347:Drivers/STM32F1xx_HAL_Driver/Src/stm32f1xx_hal_dac.c ****   hdac->State = HAL_DAC_STATE_READY;
 348:Drivers/STM32F1xx_HAL_Driver/Src/stm32f1xx_hal_dac.c **** 
 349:Drivers/STM32F1xx_HAL_Driver/Src/stm32f1xx_hal_dac.c ****   /* Return function status */
 350:Drivers/STM32F1xx_HAL_Driver/Src/stm32f1xx_hal_dac.c ****   return HAL_OK;
 351:Drivers/STM32F1xx_HAL_Driver/Src/stm32f1xx_hal_dac.c **** }
 352:Drivers/STM32F1xx_HAL_Driver/Src/stm32f1xx_hal_dac.c **** 
 353:Drivers/STM32F1xx_HAL_Driver/Src/stm32f1xx_hal_dac.c **** /**
 354:Drivers/STM32F1xx_HAL_Driver/Src/stm32f1xx_hal_dac.c ****   * @brief  Deinitialize the DAC peripheral registers to their default reset values.
 355:Drivers/STM32F1xx_HAL_Driver/Src/stm32f1xx_hal_dac.c ****   * @param  hdac pointer to a DAC_HandleTypeDef structure that contains
 356:Drivers/STM32F1xx_HAL_Driver/Src/stm32f1xx_hal_dac.c ****   *         the configuration information for the specified DAC.
 357:Drivers/STM32F1xx_HAL_Driver/Src/stm32f1xx_hal_dac.c ****   * @retval HAL status
 358:Drivers/STM32F1xx_HAL_Driver/Src/stm32f1xx_hal_dac.c ****   */
 359:Drivers/STM32F1xx_HAL_Driver/Src/stm32f1xx_hal_dac.c **** HAL_StatusTypeDef HAL_DAC_DeInit(DAC_HandleTypeDef *hdac)
 360:Drivers/STM32F1xx_HAL_Driver/Src/stm32f1xx_hal_dac.c **** {
 361:Drivers/STM32F1xx_HAL_Driver/Src/stm32f1xx_hal_dac.c ****   /* Check DAC handle */
 362:Drivers/STM32F1xx_HAL_Driver/Src/stm32f1xx_hal_dac.c ****   if (hdac == NULL)
 363:Drivers/STM32F1xx_HAL_Driver/Src/stm32f1xx_hal_dac.c ****   {
 364:Drivers/STM32F1xx_HAL_Driver/Src/stm32f1xx_hal_dac.c ****     return HAL_ERROR;
 365:Drivers/STM32F1xx_HAL_Driver/Src/stm32f1xx_hal_dac.c ****   }
 366:Drivers/STM32F1xx_HAL_Driver/Src/stm32f1xx_hal_dac.c **** 
 367:Drivers/STM32F1xx_HAL_Driver/Src/stm32f1xx_hal_dac.c ****   /* Check the parameters */
 368:Drivers/STM32F1xx_HAL_Driver/Src/stm32f1xx_hal_dac.c ****   assert_param(IS_DAC_ALL_INSTANCE(hdac->Instance));
 369:Drivers/STM32F1xx_HAL_Driver/Src/stm32f1xx_hal_dac.c **** 
 370:Drivers/STM32F1xx_HAL_Driver/Src/stm32f1xx_hal_dac.c ****   /* Change DAC state */
 371:Drivers/STM32F1xx_HAL_Driver/Src/stm32f1xx_hal_dac.c ****   hdac->State = HAL_DAC_STATE_BUSY;
 372:Drivers/STM32F1xx_HAL_Driver/Src/stm32f1xx_hal_dac.c **** 
 373:Drivers/STM32F1xx_HAL_Driver/Src/stm32f1xx_hal_dac.c **** #if (USE_HAL_DAC_REGISTER_CALLBACKS == 1)
ARM GAS  /tmp/ccMmQP8f.s 			page 8


 374:Drivers/STM32F1xx_HAL_Driver/Src/stm32f1xx_hal_dac.c ****   if (hdac->MspDeInitCallback == NULL)
 375:Drivers/STM32F1xx_HAL_Driver/Src/stm32f1xx_hal_dac.c ****   {
 376:Drivers/STM32F1xx_HAL_Driver/Src/stm32f1xx_hal_dac.c ****     hdac->MspDeInitCallback = HAL_DAC_MspDeInit;
 377:Drivers/STM32F1xx_HAL_Driver/Src/stm32f1xx_hal_dac.c ****   }
 378:Drivers/STM32F1xx_HAL_Driver/Src/stm32f1xx_hal_dac.c ****   /* DeInit the low level hardware */
 379:Drivers/STM32F1xx_HAL_Driver/Src/stm32f1xx_hal_dac.c ****   hdac->MspDeInitCallback(hdac);
 380:Drivers/STM32F1xx_HAL_Driver/Src/stm32f1xx_hal_dac.c **** #else
 381:Drivers/STM32F1xx_HAL_Driver/Src/stm32f1xx_hal_dac.c ****   /* DeInit the low level hardware */
 382:Drivers/STM32F1xx_HAL_Driver/Src/stm32f1xx_hal_dac.c ****   HAL_DAC_MspDeInit(hdac);
 383:Drivers/STM32F1xx_HAL_Driver/Src/stm32f1xx_hal_dac.c **** #endif /* USE_HAL_DAC_REGISTER_CALLBACKS */
 384:Drivers/STM32F1xx_HAL_Driver/Src/stm32f1xx_hal_dac.c **** 
 385:Drivers/STM32F1xx_HAL_Driver/Src/stm32f1xx_hal_dac.c ****   /* Set DAC error code to none */
 386:Drivers/STM32F1xx_HAL_Driver/Src/stm32f1xx_hal_dac.c ****   hdac->ErrorCode = HAL_DAC_ERROR_NONE;
 387:Drivers/STM32F1xx_HAL_Driver/Src/stm32f1xx_hal_dac.c **** 
 388:Drivers/STM32F1xx_HAL_Driver/Src/stm32f1xx_hal_dac.c ****   /* Change DAC state */
 389:Drivers/STM32F1xx_HAL_Driver/Src/stm32f1xx_hal_dac.c ****   hdac->State = HAL_DAC_STATE_RESET;
 390:Drivers/STM32F1xx_HAL_Driver/Src/stm32f1xx_hal_dac.c **** 
 391:Drivers/STM32F1xx_HAL_Driver/Src/stm32f1xx_hal_dac.c ****   /* Release Lock */
 392:Drivers/STM32F1xx_HAL_Driver/Src/stm32f1xx_hal_dac.c ****   __HAL_UNLOCK(hdac);
 393:Drivers/STM32F1xx_HAL_Driver/Src/stm32f1xx_hal_dac.c **** 
 394:Drivers/STM32F1xx_HAL_Driver/Src/stm32f1xx_hal_dac.c ****   /* Return function status */
 395:Drivers/STM32F1xx_HAL_Driver/Src/stm32f1xx_hal_dac.c ****   return HAL_OK;
 396:Drivers/STM32F1xx_HAL_Driver/Src/stm32f1xx_hal_dac.c **** }
 397:Drivers/STM32F1xx_HAL_Driver/Src/stm32f1xx_hal_dac.c **** 
 398:Drivers/STM32F1xx_HAL_Driver/Src/stm32f1xx_hal_dac.c **** /**
 399:Drivers/STM32F1xx_HAL_Driver/Src/stm32f1xx_hal_dac.c ****   * @brief  Initialize the DAC MSP.
 400:Drivers/STM32F1xx_HAL_Driver/Src/stm32f1xx_hal_dac.c ****   * @param  hdac pointer to a DAC_HandleTypeDef structure that contains
 401:Drivers/STM32F1xx_HAL_Driver/Src/stm32f1xx_hal_dac.c ****   *         the configuration information for the specified DAC.
 402:Drivers/STM32F1xx_HAL_Driver/Src/stm32f1xx_hal_dac.c ****   * @retval None
 403:Drivers/STM32F1xx_HAL_Driver/Src/stm32f1xx_hal_dac.c ****   */
 404:Drivers/STM32F1xx_HAL_Driver/Src/stm32f1xx_hal_dac.c **** __weak void HAL_DAC_MspInit(DAC_HandleTypeDef *hdac)
 405:Drivers/STM32F1xx_HAL_Driver/Src/stm32f1xx_hal_dac.c **** {
  28              		.loc 1 405 1 view -0
  29              		.cfi_startproc
  30              		@ args = 0, pretend = 0, frame = 0
  31              		@ frame_needed = 0, uses_anonymous_args = 0
  32              		@ link register save eliminated.
 406:Drivers/STM32F1xx_HAL_Driver/Src/stm32f1xx_hal_dac.c ****   /* Prevent unused argument(s) compilation warning */
 407:Drivers/STM32F1xx_HAL_Driver/Src/stm32f1xx_hal_dac.c ****   UNUSED(hdac);
  33              		.loc 1 407 3 view .LVU1
 408:Drivers/STM32F1xx_HAL_Driver/Src/stm32f1xx_hal_dac.c **** 
 409:Drivers/STM32F1xx_HAL_Driver/Src/stm32f1xx_hal_dac.c ****   /* NOTE : This function should not be modified, when the callback is needed,
 410:Drivers/STM32F1xx_HAL_Driver/Src/stm32f1xx_hal_dac.c ****             the HAL_DAC_MspInit could be implemented in the user file
 411:Drivers/STM32F1xx_HAL_Driver/Src/stm32f1xx_hal_dac.c ****    */
 412:Drivers/STM32F1xx_HAL_Driver/Src/stm32f1xx_hal_dac.c **** }
  34              		.loc 1 412 1 is_stmt 0 view .LVU2
  35 0000 7047     		bx	lr
  36              		.cfi_endproc
  37              	.LFE67:
  39              		.section	.text.HAL_DAC_Init,"ax",%progbits
  40              		.align	1
  41              		.global	HAL_DAC_Init
  42              		.syntax unified
  43              		.thumb
  44              		.thumb_func
  45              		.fpu softvfp
  47              	HAL_DAC_Init:
ARM GAS  /tmp/ccMmQP8f.s 			page 9


  48              	.LVL1:
  49              	.LFB65:
 299:Drivers/STM32F1xx_HAL_Driver/Src/stm32f1xx_hal_dac.c ****   /* Check DAC handle */
  50              		.loc 1 299 1 is_stmt 1 view -0
  51              		.cfi_startproc
  52              		@ args = 0, pretend = 0, frame = 0
  53              		@ frame_needed = 0, uses_anonymous_args = 0
 301:Drivers/STM32F1xx_HAL_Driver/Src/stm32f1xx_hal_dac.c ****   {
  54              		.loc 1 301 3 view .LVU4
 301:Drivers/STM32F1xx_HAL_Driver/Src/stm32f1xx_hal_dac.c ****   {
  55              		.loc 1 301 6 is_stmt 0 view .LVU5
  56 0000 70B1     		cbz	r0, .L5
 299:Drivers/STM32F1xx_HAL_Driver/Src/stm32f1xx_hal_dac.c ****   /* Check DAC handle */
  57              		.loc 1 299 1 view .LVU6
  58 0002 10B5     		push	{r4, lr}
  59              	.LCFI0:
  60              		.cfi_def_cfa_offset 8
  61              		.cfi_offset 4, -8
  62              		.cfi_offset 14, -4
  63 0004 0446     		mov	r4, r0
 306:Drivers/STM32F1xx_HAL_Driver/Src/stm32f1xx_hal_dac.c **** 
  64              		.loc 1 306 3 is_stmt 1 view .LVU7
 308:Drivers/STM32F1xx_HAL_Driver/Src/stm32f1xx_hal_dac.c ****   {
  65              		.loc 1 308 3 view .LVU8
 308:Drivers/STM32F1xx_HAL_Driver/Src/stm32f1xx_hal_dac.c ****   {
  66              		.loc 1 308 11 is_stmt 0 view .LVU9
  67 0006 0379     		ldrb	r3, [r0, #4]	@ zero_extendqisi2
 308:Drivers/STM32F1xx_HAL_Driver/Src/stm32f1xx_hal_dac.c ****   {
  68              		.loc 1 308 6 view .LVU10
  69 0008 33B1     		cbz	r3, .L10
  70              	.LVL2:
  71              	.L4:
 341:Drivers/STM32F1xx_HAL_Driver/Src/stm32f1xx_hal_dac.c **** 
  72              		.loc 1 341 3 is_stmt 1 view .LVU11
 341:Drivers/STM32F1xx_HAL_Driver/Src/stm32f1xx_hal_dac.c **** 
  73              		.loc 1 341 15 is_stmt 0 view .LVU12
  74 000a 0223     		movs	r3, #2
  75 000c 2371     		strb	r3, [r4, #4]
 344:Drivers/STM32F1xx_HAL_Driver/Src/stm32f1xx_hal_dac.c **** 
  76              		.loc 1 344 3 is_stmt 1 view .LVU13
 344:Drivers/STM32F1xx_HAL_Driver/Src/stm32f1xx_hal_dac.c **** 
  77              		.loc 1 344 19 is_stmt 0 view .LVU14
  78 000e 0020     		movs	r0, #0
  79 0010 2061     		str	r0, [r4, #16]
 347:Drivers/STM32F1xx_HAL_Driver/Src/stm32f1xx_hal_dac.c **** 
  80              		.loc 1 347 3 is_stmt 1 view .LVU15
 347:Drivers/STM32F1xx_HAL_Driver/Src/stm32f1xx_hal_dac.c **** 
  81              		.loc 1 347 15 is_stmt 0 view .LVU16
  82 0012 0123     		movs	r3, #1
  83 0014 2371     		strb	r3, [r4, #4]
 350:Drivers/STM32F1xx_HAL_Driver/Src/stm32f1xx_hal_dac.c **** }
  84              		.loc 1 350 3 is_stmt 1 view .LVU17
 351:Drivers/STM32F1xx_HAL_Driver/Src/stm32f1xx_hal_dac.c **** 
  85              		.loc 1 351 1 is_stmt 0 view .LVU18
  86 0016 10BD     		pop	{r4, pc}
  87              	.LVL3:
  88              	.L10:
ARM GAS  /tmp/ccMmQP8f.s 			page 10


 329:Drivers/STM32F1xx_HAL_Driver/Src/stm32f1xx_hal_dac.c **** 
  89              		.loc 1 329 5 is_stmt 1 view .LVU19
 329:Drivers/STM32F1xx_HAL_Driver/Src/stm32f1xx_hal_dac.c **** 
  90              		.loc 1 329 16 is_stmt 0 view .LVU20
  91 0018 4371     		strb	r3, [r0, #5]
 336:Drivers/STM32F1xx_HAL_Driver/Src/stm32f1xx_hal_dac.c **** #endif /* USE_HAL_DAC_REGISTER_CALLBACKS */
  92              		.loc 1 336 5 is_stmt 1 view .LVU21
  93 001a FFF7FEFF 		bl	HAL_DAC_MspInit
  94              	.LVL4:
 336:Drivers/STM32F1xx_HAL_Driver/Src/stm32f1xx_hal_dac.c **** #endif /* USE_HAL_DAC_REGISTER_CALLBACKS */
  95              		.loc 1 336 5 is_stmt 0 view .LVU22
  96 001e F4E7     		b	.L4
  97              	.LVL5:
  98              	.L5:
  99              	.LCFI1:
 100              		.cfi_def_cfa_offset 0
 101              		.cfi_restore 4
 102              		.cfi_restore 14
 303:Drivers/STM32F1xx_HAL_Driver/Src/stm32f1xx_hal_dac.c ****   }
 103              		.loc 1 303 12 view .LVU23
 104 0020 0120     		movs	r0, #1
 105              	.LVL6:
 351:Drivers/STM32F1xx_HAL_Driver/Src/stm32f1xx_hal_dac.c **** 
 106              		.loc 1 351 1 view .LVU24
 107 0022 7047     		bx	lr
 108              		.cfi_endproc
 109              	.LFE65:
 111              		.section	.text.HAL_DAC_MspDeInit,"ax",%progbits
 112              		.align	1
 113              		.weak	HAL_DAC_MspDeInit
 114              		.syntax unified
 115              		.thumb
 116              		.thumb_func
 117              		.fpu softvfp
 119              	HAL_DAC_MspDeInit:
 120              	.LVL7:
 121              	.LFB68:
 413:Drivers/STM32F1xx_HAL_Driver/Src/stm32f1xx_hal_dac.c **** 
 414:Drivers/STM32F1xx_HAL_Driver/Src/stm32f1xx_hal_dac.c **** /**
 415:Drivers/STM32F1xx_HAL_Driver/Src/stm32f1xx_hal_dac.c ****   * @brief  DeInitialize the DAC MSP.
 416:Drivers/STM32F1xx_HAL_Driver/Src/stm32f1xx_hal_dac.c ****   * @param  hdac pointer to a DAC_HandleTypeDef structure that contains
 417:Drivers/STM32F1xx_HAL_Driver/Src/stm32f1xx_hal_dac.c ****   *         the configuration information for the specified DAC.
 418:Drivers/STM32F1xx_HAL_Driver/Src/stm32f1xx_hal_dac.c ****   * @retval None
 419:Drivers/STM32F1xx_HAL_Driver/Src/stm32f1xx_hal_dac.c ****   */
 420:Drivers/STM32F1xx_HAL_Driver/Src/stm32f1xx_hal_dac.c **** __weak void HAL_DAC_MspDeInit(DAC_HandleTypeDef *hdac)
 421:Drivers/STM32F1xx_HAL_Driver/Src/stm32f1xx_hal_dac.c **** {
 122              		.loc 1 421 1 is_stmt 1 view -0
 123              		.cfi_startproc
 124              		@ args = 0, pretend = 0, frame = 0
 125              		@ frame_needed = 0, uses_anonymous_args = 0
 126              		@ link register save eliminated.
 422:Drivers/STM32F1xx_HAL_Driver/Src/stm32f1xx_hal_dac.c ****   /* Prevent unused argument(s) compilation warning */
 423:Drivers/STM32F1xx_HAL_Driver/Src/stm32f1xx_hal_dac.c ****   UNUSED(hdac);
 127              		.loc 1 423 3 view .LVU26
 424:Drivers/STM32F1xx_HAL_Driver/Src/stm32f1xx_hal_dac.c **** 
 425:Drivers/STM32F1xx_HAL_Driver/Src/stm32f1xx_hal_dac.c ****   /* NOTE : This function should not be modified, when the callback is needed,
 426:Drivers/STM32F1xx_HAL_Driver/Src/stm32f1xx_hal_dac.c ****             the HAL_DAC_MspDeInit could be implemented in the user file
ARM GAS  /tmp/ccMmQP8f.s 			page 11


 427:Drivers/STM32F1xx_HAL_Driver/Src/stm32f1xx_hal_dac.c ****    */
 428:Drivers/STM32F1xx_HAL_Driver/Src/stm32f1xx_hal_dac.c **** }
 128              		.loc 1 428 1 is_stmt 0 view .LVU27
 129 0000 7047     		bx	lr
 130              		.cfi_endproc
 131              	.LFE68:
 133              		.section	.text.HAL_DAC_DeInit,"ax",%progbits
 134              		.align	1
 135              		.global	HAL_DAC_DeInit
 136              		.syntax unified
 137              		.thumb
 138              		.thumb_func
 139              		.fpu softvfp
 141              	HAL_DAC_DeInit:
 142              	.LVL8:
 143              	.LFB66:
 360:Drivers/STM32F1xx_HAL_Driver/Src/stm32f1xx_hal_dac.c ****   /* Check DAC handle */
 144              		.loc 1 360 1 is_stmt 1 view -0
 145              		.cfi_startproc
 146              		@ args = 0, pretend = 0, frame = 0
 147              		@ frame_needed = 0, uses_anonymous_args = 0
 362:Drivers/STM32F1xx_HAL_Driver/Src/stm32f1xx_hal_dac.c ****   {
 148              		.loc 1 362 3 view .LVU29
 362:Drivers/STM32F1xx_HAL_Driver/Src/stm32f1xx_hal_dac.c ****   {
 149              		.loc 1 362 6 is_stmt 0 view .LVU30
 150 0000 50B1     		cbz	r0, .L14
 360:Drivers/STM32F1xx_HAL_Driver/Src/stm32f1xx_hal_dac.c ****   /* Check DAC handle */
 151              		.loc 1 360 1 view .LVU31
 152 0002 10B5     		push	{r4, lr}
 153              	.LCFI2:
 154              		.cfi_def_cfa_offset 8
 155              		.cfi_offset 4, -8
 156              		.cfi_offset 14, -4
 157 0004 0446     		mov	r4, r0
 368:Drivers/STM32F1xx_HAL_Driver/Src/stm32f1xx_hal_dac.c **** 
 158              		.loc 1 368 3 is_stmt 1 view .LVU32
 371:Drivers/STM32F1xx_HAL_Driver/Src/stm32f1xx_hal_dac.c **** 
 159              		.loc 1 371 3 view .LVU33
 371:Drivers/STM32F1xx_HAL_Driver/Src/stm32f1xx_hal_dac.c **** 
 160              		.loc 1 371 15 is_stmt 0 view .LVU34
 161 0006 0223     		movs	r3, #2
 162 0008 0371     		strb	r3, [r0, #4]
 382:Drivers/STM32F1xx_HAL_Driver/Src/stm32f1xx_hal_dac.c **** #endif /* USE_HAL_DAC_REGISTER_CALLBACKS */
 163              		.loc 1 382 3 is_stmt 1 view .LVU35
 164 000a FFF7FEFF 		bl	HAL_DAC_MspDeInit
 165              	.LVL9:
 386:Drivers/STM32F1xx_HAL_Driver/Src/stm32f1xx_hal_dac.c **** 
 166              		.loc 1 386 3 view .LVU36
 386:Drivers/STM32F1xx_HAL_Driver/Src/stm32f1xx_hal_dac.c **** 
 167              		.loc 1 386 19 is_stmt 0 view .LVU37
 168 000e 0020     		movs	r0, #0
 169 0010 2061     		str	r0, [r4, #16]
 389:Drivers/STM32F1xx_HAL_Driver/Src/stm32f1xx_hal_dac.c **** 
 170              		.loc 1 389 3 is_stmt 1 view .LVU38
 389:Drivers/STM32F1xx_HAL_Driver/Src/stm32f1xx_hal_dac.c **** 
 171              		.loc 1 389 15 is_stmt 0 view .LVU39
 172 0012 2071     		strb	r0, [r4, #4]
ARM GAS  /tmp/ccMmQP8f.s 			page 12


 392:Drivers/STM32F1xx_HAL_Driver/Src/stm32f1xx_hal_dac.c **** 
 173              		.loc 1 392 3 is_stmt 1 view .LVU40
 392:Drivers/STM32F1xx_HAL_Driver/Src/stm32f1xx_hal_dac.c **** 
 174              		.loc 1 392 3 view .LVU41
 175 0014 6071     		strb	r0, [r4, #5]
 392:Drivers/STM32F1xx_HAL_Driver/Src/stm32f1xx_hal_dac.c **** 
 176              		.loc 1 392 3 view .LVU42
 395:Drivers/STM32F1xx_HAL_Driver/Src/stm32f1xx_hal_dac.c **** }
 177              		.loc 1 395 3 view .LVU43
 396:Drivers/STM32F1xx_HAL_Driver/Src/stm32f1xx_hal_dac.c **** 
 178              		.loc 1 396 1 is_stmt 0 view .LVU44
 179 0016 10BD     		pop	{r4, pc}
 180              	.LVL10:
 181              	.L14:
 182              	.LCFI3:
 183              		.cfi_def_cfa_offset 0
 184              		.cfi_restore 4
 185              		.cfi_restore 14
 364:Drivers/STM32F1xx_HAL_Driver/Src/stm32f1xx_hal_dac.c ****   }
 186              		.loc 1 364 12 view .LVU45
 187 0018 0120     		movs	r0, #1
 188              	.LVL11:
 396:Drivers/STM32F1xx_HAL_Driver/Src/stm32f1xx_hal_dac.c **** 
 189              		.loc 1 396 1 view .LVU46
 190 001a 7047     		bx	lr
 191              		.cfi_endproc
 192              	.LFE66:
 194              		.section	.text.HAL_DAC_Start,"ax",%progbits
 195              		.align	1
 196              		.global	HAL_DAC_Start
 197              		.syntax unified
 198              		.thumb
 199              		.thumb_func
 200              		.fpu softvfp
 202              	HAL_DAC_Start:
 203              	.LVL12:
 204              	.LFB69:
 429:Drivers/STM32F1xx_HAL_Driver/Src/stm32f1xx_hal_dac.c **** 
 430:Drivers/STM32F1xx_HAL_Driver/Src/stm32f1xx_hal_dac.c **** /**
 431:Drivers/STM32F1xx_HAL_Driver/Src/stm32f1xx_hal_dac.c ****   * @}
 432:Drivers/STM32F1xx_HAL_Driver/Src/stm32f1xx_hal_dac.c ****   */
 433:Drivers/STM32F1xx_HAL_Driver/Src/stm32f1xx_hal_dac.c **** 
 434:Drivers/STM32F1xx_HAL_Driver/Src/stm32f1xx_hal_dac.c **** /** @defgroup DAC_Exported_Functions_Group2 IO operation functions
 435:Drivers/STM32F1xx_HAL_Driver/Src/stm32f1xx_hal_dac.c ****   *  @brief    IO operation functions
 436:Drivers/STM32F1xx_HAL_Driver/Src/stm32f1xx_hal_dac.c ****   *
 437:Drivers/STM32F1xx_HAL_Driver/Src/stm32f1xx_hal_dac.c **** @verbatim
 438:Drivers/STM32F1xx_HAL_Driver/Src/stm32f1xx_hal_dac.c ****   ==============================================================================
 439:Drivers/STM32F1xx_HAL_Driver/Src/stm32f1xx_hal_dac.c ****              ##### IO operation functions #####
 440:Drivers/STM32F1xx_HAL_Driver/Src/stm32f1xx_hal_dac.c ****   ==============================================================================
 441:Drivers/STM32F1xx_HAL_Driver/Src/stm32f1xx_hal_dac.c ****     [..]  This section provides functions allowing to:
 442:Drivers/STM32F1xx_HAL_Driver/Src/stm32f1xx_hal_dac.c ****       (+) Start conversion.
 443:Drivers/STM32F1xx_HAL_Driver/Src/stm32f1xx_hal_dac.c ****       (+) Stop conversion.
 444:Drivers/STM32F1xx_HAL_Driver/Src/stm32f1xx_hal_dac.c ****       (+) Start conversion and enable DMA transfer.
 445:Drivers/STM32F1xx_HAL_Driver/Src/stm32f1xx_hal_dac.c ****       (+) Stop conversion and disable DMA transfer.
 446:Drivers/STM32F1xx_HAL_Driver/Src/stm32f1xx_hal_dac.c ****       (+) Get result of conversion.
 447:Drivers/STM32F1xx_HAL_Driver/Src/stm32f1xx_hal_dac.c **** 
 448:Drivers/STM32F1xx_HAL_Driver/Src/stm32f1xx_hal_dac.c **** @endverbatim
ARM GAS  /tmp/ccMmQP8f.s 			page 13


 449:Drivers/STM32F1xx_HAL_Driver/Src/stm32f1xx_hal_dac.c ****   * @{
 450:Drivers/STM32F1xx_HAL_Driver/Src/stm32f1xx_hal_dac.c ****   */
 451:Drivers/STM32F1xx_HAL_Driver/Src/stm32f1xx_hal_dac.c **** 
 452:Drivers/STM32F1xx_HAL_Driver/Src/stm32f1xx_hal_dac.c **** /**
 453:Drivers/STM32F1xx_HAL_Driver/Src/stm32f1xx_hal_dac.c ****   * @brief  Enables DAC and starts conversion of channel.
 454:Drivers/STM32F1xx_HAL_Driver/Src/stm32f1xx_hal_dac.c ****   * @param  hdac pointer to a DAC_HandleTypeDef structure that contains
 455:Drivers/STM32F1xx_HAL_Driver/Src/stm32f1xx_hal_dac.c ****   *         the configuration information for the specified DAC.
 456:Drivers/STM32F1xx_HAL_Driver/Src/stm32f1xx_hal_dac.c ****   * @param  Channel The selected DAC channel.
 457:Drivers/STM32F1xx_HAL_Driver/Src/stm32f1xx_hal_dac.c ****   *          This parameter can be one of the following values:
 458:Drivers/STM32F1xx_HAL_Driver/Src/stm32f1xx_hal_dac.c ****   *            @arg DAC_CHANNEL_1: DAC Channel1 selected
 459:Drivers/STM32F1xx_HAL_Driver/Src/stm32f1xx_hal_dac.c ****   *            @arg DAC_CHANNEL_2: DAC Channel2 selected
 460:Drivers/STM32F1xx_HAL_Driver/Src/stm32f1xx_hal_dac.c ****   * @retval HAL status
 461:Drivers/STM32F1xx_HAL_Driver/Src/stm32f1xx_hal_dac.c ****   */
 462:Drivers/STM32F1xx_HAL_Driver/Src/stm32f1xx_hal_dac.c **** HAL_StatusTypeDef HAL_DAC_Start(DAC_HandleTypeDef *hdac, uint32_t Channel)
 463:Drivers/STM32F1xx_HAL_Driver/Src/stm32f1xx_hal_dac.c **** {
 205              		.loc 1 463 1 is_stmt 1 view -0
 206              		.cfi_startproc
 207              		@ args = 0, pretend = 0, frame = 0
 208              		@ frame_needed = 0, uses_anonymous_args = 0
 209              		@ link register save eliminated.
 464:Drivers/STM32F1xx_HAL_Driver/Src/stm32f1xx_hal_dac.c ****   /* Check the parameters */
 465:Drivers/STM32F1xx_HAL_Driver/Src/stm32f1xx_hal_dac.c ****   assert_param(IS_DAC_CHANNEL(Channel));
 210              		.loc 1 465 3 view .LVU48
 466:Drivers/STM32F1xx_HAL_Driver/Src/stm32f1xx_hal_dac.c **** 
 467:Drivers/STM32F1xx_HAL_Driver/Src/stm32f1xx_hal_dac.c ****   /* Process locked */
 468:Drivers/STM32F1xx_HAL_Driver/Src/stm32f1xx_hal_dac.c ****   __HAL_LOCK(hdac);
 211              		.loc 1 468 3 view .LVU49
 212              		.loc 1 468 3 view .LVU50
 213 0000 4379     		ldrb	r3, [r0, #5]	@ zero_extendqisi2
 214 0002 012B     		cmp	r3, #1
 215 0004 2CD0     		beq	.L23
 463:Drivers/STM32F1xx_HAL_Driver/Src/stm32f1xx_hal_dac.c ****   /* Check the parameters */
 216              		.loc 1 463 1 is_stmt 0 discriminator 2 view .LVU51
 217 0006 30B4     		push	{r4, r5}
 218              	.LCFI4:
 219              		.cfi_def_cfa_offset 8
 220              		.cfi_offset 4, -8
 221              		.cfi_offset 5, -4
 222              		.loc 1 468 3 is_stmt 1 discriminator 2 view .LVU52
 223 0008 0123     		movs	r3, #1
 224 000a 4371     		strb	r3, [r0, #5]
 225              		.loc 1 468 3 discriminator 2 view .LVU53
 469:Drivers/STM32F1xx_HAL_Driver/Src/stm32f1xx_hal_dac.c **** 
 470:Drivers/STM32F1xx_HAL_Driver/Src/stm32f1xx_hal_dac.c ****   /* Change DAC state */
 471:Drivers/STM32F1xx_HAL_Driver/Src/stm32f1xx_hal_dac.c ****   hdac->State = HAL_DAC_STATE_BUSY;
 226              		.loc 1 471 3 discriminator 2 view .LVU54
 227              		.loc 1 471 15 is_stmt 0 discriminator 2 view .LVU55
 228 000c 0222     		movs	r2, #2
 229 000e 0271     		strb	r2, [r0, #4]
 472:Drivers/STM32F1xx_HAL_Driver/Src/stm32f1xx_hal_dac.c **** 
 473:Drivers/STM32F1xx_HAL_Driver/Src/stm32f1xx_hal_dac.c ****   /* Enable the Peripheral */
 474:Drivers/STM32F1xx_HAL_Driver/Src/stm32f1xx_hal_dac.c ****   __HAL_DAC_ENABLE(hdac, Channel);
 230              		.loc 1 474 3 is_stmt 1 discriminator 2 view .LVU56
 231 0010 0468     		ldr	r4, [r0]
 232 0012 2268     		ldr	r2, [r4]
 233 0014 01F01005 		and	r5, r1, #16
 234 0018 AB40     		lsls	r3, r3, r5
ARM GAS  /tmp/ccMmQP8f.s 			page 14


 235 001a 1343     		orrs	r3, r3, r2
 236 001c 2360     		str	r3, [r4]
 475:Drivers/STM32F1xx_HAL_Driver/Src/stm32f1xx_hal_dac.c **** 
 476:Drivers/STM32F1xx_HAL_Driver/Src/stm32f1xx_hal_dac.c ****   if (Channel == DAC_CHANNEL_1)
 237              		.loc 1 476 3 discriminator 2 view .LVU57
 238              		.loc 1 476 6 is_stmt 0 discriminator 2 view .LVU58
 239 001e 89B9     		cbnz	r1, .L21
 477:Drivers/STM32F1xx_HAL_Driver/Src/stm32f1xx_hal_dac.c ****   {
 478:Drivers/STM32F1xx_HAL_Driver/Src/stm32f1xx_hal_dac.c ****     /* Check if software trigger enabled */
 479:Drivers/STM32F1xx_HAL_Driver/Src/stm32f1xx_hal_dac.c ****     if ((hdac->Instance->CR & (DAC_CR_TEN1 | DAC_CR_TSEL1)) == DAC_TRIGGER_SOFTWARE)
 240              		.loc 1 479 5 is_stmt 1 view .LVU59
 241              		.loc 1 479 14 is_stmt 0 view .LVU60
 242 0020 0268     		ldr	r2, [r0]
 243              		.loc 1 479 24 view .LVU61
 244 0022 1368     		ldr	r3, [r2]
 245              		.loc 1 479 29 view .LVU62
 246 0024 03F03C03 		and	r3, r3, #60
 247              		.loc 1 479 8 view .LVU63
 248 0028 3C2B     		cmp	r3, #60
 249 002a 06D0     		beq	.L28
 250              	.LVL13:
 251              	.L22:
 480:Drivers/STM32F1xx_HAL_Driver/Src/stm32f1xx_hal_dac.c ****     {
 481:Drivers/STM32F1xx_HAL_Driver/Src/stm32f1xx_hal_dac.c ****       /* Enable the selected DAC software conversion */
 482:Drivers/STM32F1xx_HAL_Driver/Src/stm32f1xx_hal_dac.c ****       SET_BIT(hdac->Instance->SWTRIGR, DAC_SWTRIGR_SWTRIG1);
 483:Drivers/STM32F1xx_HAL_Driver/Src/stm32f1xx_hal_dac.c ****     }
 484:Drivers/STM32F1xx_HAL_Driver/Src/stm32f1xx_hal_dac.c ****   }
 485:Drivers/STM32F1xx_HAL_Driver/Src/stm32f1xx_hal_dac.c ****   else
 486:Drivers/STM32F1xx_HAL_Driver/Src/stm32f1xx_hal_dac.c ****   {
 487:Drivers/STM32F1xx_HAL_Driver/Src/stm32f1xx_hal_dac.c ****     /* Check if software trigger enabled */
 488:Drivers/STM32F1xx_HAL_Driver/Src/stm32f1xx_hal_dac.c ****     if ((hdac->Instance->CR & (DAC_CR_TEN2 | DAC_CR_TSEL2)) == (DAC_TRIGGER_SOFTWARE << (Channel & 
 489:Drivers/STM32F1xx_HAL_Driver/Src/stm32f1xx_hal_dac.c ****     {
 490:Drivers/STM32F1xx_HAL_Driver/Src/stm32f1xx_hal_dac.c ****       /* Enable the selected DAC software conversion*/
 491:Drivers/STM32F1xx_HAL_Driver/Src/stm32f1xx_hal_dac.c ****       SET_BIT(hdac->Instance->SWTRIGR, DAC_SWTRIGR_SWTRIG2);
 492:Drivers/STM32F1xx_HAL_Driver/Src/stm32f1xx_hal_dac.c ****     }
 493:Drivers/STM32F1xx_HAL_Driver/Src/stm32f1xx_hal_dac.c ****   }
 494:Drivers/STM32F1xx_HAL_Driver/Src/stm32f1xx_hal_dac.c **** 
 495:Drivers/STM32F1xx_HAL_Driver/Src/stm32f1xx_hal_dac.c ****   /* Change DAC state */
 496:Drivers/STM32F1xx_HAL_Driver/Src/stm32f1xx_hal_dac.c ****   hdac->State = HAL_DAC_STATE_READY;
 252              		.loc 1 496 3 is_stmt 1 view .LVU64
 253              		.loc 1 496 15 is_stmt 0 view .LVU65
 254 002c 0123     		movs	r3, #1
 255 002e 0371     		strb	r3, [r0, #4]
 497:Drivers/STM32F1xx_HAL_Driver/Src/stm32f1xx_hal_dac.c **** 
 498:Drivers/STM32F1xx_HAL_Driver/Src/stm32f1xx_hal_dac.c ****   /* Process unlocked */
 499:Drivers/STM32F1xx_HAL_Driver/Src/stm32f1xx_hal_dac.c ****   __HAL_UNLOCK(hdac);
 256              		.loc 1 499 3 is_stmt 1 view .LVU66
 257              		.loc 1 499 3 view .LVU67
 258 0030 0023     		movs	r3, #0
 259 0032 4371     		strb	r3, [r0, #5]
 260              		.loc 1 499 3 view .LVU68
 500:Drivers/STM32F1xx_HAL_Driver/Src/stm32f1xx_hal_dac.c **** 
 501:Drivers/STM32F1xx_HAL_Driver/Src/stm32f1xx_hal_dac.c ****   /* Return function status */
 502:Drivers/STM32F1xx_HAL_Driver/Src/stm32f1xx_hal_dac.c ****   return HAL_OK;
 261              		.loc 1 502 3 view .LVU69
 262              		.loc 1 502 10 is_stmt 0 view .LVU70
 263 0034 1846     		mov	r0, r3
ARM GAS  /tmp/ccMmQP8f.s 			page 15


 264              	.LVL14:
 503:Drivers/STM32F1xx_HAL_Driver/Src/stm32f1xx_hal_dac.c **** }
 265              		.loc 1 503 1 view .LVU71
 266 0036 30BC     		pop	{r4, r5}
 267              	.LCFI5:
 268              		.cfi_remember_state
 269              		.cfi_restore 5
 270              		.cfi_restore 4
 271              		.cfi_def_cfa_offset 0
 272 0038 7047     		bx	lr
 273              	.LVL15:
 274              	.L28:
 275              	.LCFI6:
 276              		.cfi_restore_state
 482:Drivers/STM32F1xx_HAL_Driver/Src/stm32f1xx_hal_dac.c ****     }
 277              		.loc 1 482 7 is_stmt 1 view .LVU72
 278 003a 5368     		ldr	r3, [r2, #4]
 279 003c 43F00103 		orr	r3, r3, #1
 280 0040 5360     		str	r3, [r2, #4]
 281 0042 F3E7     		b	.L22
 282              	.L21:
 488:Drivers/STM32F1xx_HAL_Driver/Src/stm32f1xx_hal_dac.c ****     {
 283              		.loc 1 488 5 view .LVU73
 488:Drivers/STM32F1xx_HAL_Driver/Src/stm32f1xx_hal_dac.c ****     {
 284              		.loc 1 488 14 is_stmt 0 view .LVU74
 285 0044 0168     		ldr	r1, [r0]
 286              	.LVL16:
 488:Drivers/STM32F1xx_HAL_Driver/Src/stm32f1xx_hal_dac.c ****     {
 287              		.loc 1 488 24 view .LVU75
 288 0046 0A68     		ldr	r2, [r1]
 488:Drivers/STM32F1xx_HAL_Driver/Src/stm32f1xx_hal_dac.c ****     {
 289              		.loc 1 488 29 view .LVU76
 290 0048 02F47012 		and	r2, r2, #3932160
 488:Drivers/STM32F1xx_HAL_Driver/Src/stm32f1xx_hal_dac.c ****     {
 291              		.loc 1 488 86 view .LVU77
 292 004c 3C23     		movs	r3, #60
 293 004e 03FA05F5 		lsl	r5, r3, r5
 488:Drivers/STM32F1xx_HAL_Driver/Src/stm32f1xx_hal_dac.c ****     {
 294              		.loc 1 488 8 view .LVU78
 295 0052 AA42     		cmp	r2, r5
 296 0054 EAD1     		bne	.L22
 491:Drivers/STM32F1xx_HAL_Driver/Src/stm32f1xx_hal_dac.c ****     }
 297              		.loc 1 491 7 is_stmt 1 view .LVU79
 298 0056 4B68     		ldr	r3, [r1, #4]
 299 0058 43F00203 		orr	r3, r3, #2
 300 005c 4B60     		str	r3, [r1, #4]
 301 005e E5E7     		b	.L22
 302              	.LVL17:
 303              	.L23:
 304              	.LCFI7:
 305              		.cfi_def_cfa_offset 0
 306              		.cfi_restore 4
 307              		.cfi_restore 5
 468:Drivers/STM32F1xx_HAL_Driver/Src/stm32f1xx_hal_dac.c **** 
 308              		.loc 1 468 3 is_stmt 0 view .LVU80
 309 0060 0220     		movs	r0, #2
 310              	.LVL18:
ARM GAS  /tmp/ccMmQP8f.s 			page 16


 311              		.loc 1 503 1 view .LVU81
 312 0062 7047     		bx	lr
 313              		.cfi_endproc
 314              	.LFE69:
 316              		.section	.text.HAL_DAC_Stop,"ax",%progbits
 317              		.align	1
 318              		.global	HAL_DAC_Stop
 319              		.syntax unified
 320              		.thumb
 321              		.thumb_func
 322              		.fpu softvfp
 324              	HAL_DAC_Stop:
 325              	.LVL19:
 326              	.LFB70:
 504:Drivers/STM32F1xx_HAL_Driver/Src/stm32f1xx_hal_dac.c **** 
 505:Drivers/STM32F1xx_HAL_Driver/Src/stm32f1xx_hal_dac.c **** /**
 506:Drivers/STM32F1xx_HAL_Driver/Src/stm32f1xx_hal_dac.c ****   * @brief  Disables DAC and stop conversion of channel.
 507:Drivers/STM32F1xx_HAL_Driver/Src/stm32f1xx_hal_dac.c ****   * @param  hdac pointer to a DAC_HandleTypeDef structure that contains
 508:Drivers/STM32F1xx_HAL_Driver/Src/stm32f1xx_hal_dac.c ****   *         the configuration information for the specified DAC.
 509:Drivers/STM32F1xx_HAL_Driver/Src/stm32f1xx_hal_dac.c ****   * @param  Channel The selected DAC channel.
 510:Drivers/STM32F1xx_HAL_Driver/Src/stm32f1xx_hal_dac.c ****   *          This parameter can be one of the following values:
 511:Drivers/STM32F1xx_HAL_Driver/Src/stm32f1xx_hal_dac.c ****   *            @arg DAC_CHANNEL_1: DAC Channel1 selected
 512:Drivers/STM32F1xx_HAL_Driver/Src/stm32f1xx_hal_dac.c ****   *            @arg DAC_CHANNEL_2: DAC Channel2 selected
 513:Drivers/STM32F1xx_HAL_Driver/Src/stm32f1xx_hal_dac.c ****   * @retval HAL status
 514:Drivers/STM32F1xx_HAL_Driver/Src/stm32f1xx_hal_dac.c ****   */
 515:Drivers/STM32F1xx_HAL_Driver/Src/stm32f1xx_hal_dac.c **** HAL_StatusTypeDef HAL_DAC_Stop(DAC_HandleTypeDef *hdac, uint32_t Channel)
 516:Drivers/STM32F1xx_HAL_Driver/Src/stm32f1xx_hal_dac.c **** {
 327              		.loc 1 516 1 is_stmt 1 view -0
 328              		.cfi_startproc
 329              		@ args = 0, pretend = 0, frame = 0
 330              		@ frame_needed = 0, uses_anonymous_args = 0
 331              		@ link register save eliminated.
 332              		.loc 1 516 1 is_stmt 0 view .LVU83
 333 0000 10B4     		push	{r4}
 334              	.LCFI8:
 335              		.cfi_def_cfa_offset 4
 336              		.cfi_offset 4, -4
 517:Drivers/STM32F1xx_HAL_Driver/Src/stm32f1xx_hal_dac.c ****   /* Check the parameters */
 518:Drivers/STM32F1xx_HAL_Driver/Src/stm32f1xx_hal_dac.c ****   assert_param(IS_DAC_CHANNEL(Channel));
 337              		.loc 1 518 3 is_stmt 1 view .LVU84
 519:Drivers/STM32F1xx_HAL_Driver/Src/stm32f1xx_hal_dac.c **** 
 520:Drivers/STM32F1xx_HAL_Driver/Src/stm32f1xx_hal_dac.c ****   /* Disable the Peripheral */
 521:Drivers/STM32F1xx_HAL_Driver/Src/stm32f1xx_hal_dac.c ****   __HAL_DAC_DISABLE(hdac, Channel);
 338              		.loc 1 521 3 view .LVU85
 339 0002 0468     		ldr	r4, [r0]
 340 0004 2368     		ldr	r3, [r4]
 341 0006 01F01001 		and	r1, r1, #16
 342              	.LVL20:
 343              		.loc 1 521 3 is_stmt 0 view .LVU86
 344 000a 0122     		movs	r2, #1
 345 000c 02FA01F1 		lsl	r1, r2, r1
 346 0010 23EA0101 		bic	r1, r3, r1
 347 0014 2160     		str	r1, [r4]
 522:Drivers/STM32F1xx_HAL_Driver/Src/stm32f1xx_hal_dac.c **** 
 523:Drivers/STM32F1xx_HAL_Driver/Src/stm32f1xx_hal_dac.c ****   /* Change DAC state */
 524:Drivers/STM32F1xx_HAL_Driver/Src/stm32f1xx_hal_dac.c ****   hdac->State = HAL_DAC_STATE_READY;
 348              		.loc 1 524 3 is_stmt 1 view .LVU87
ARM GAS  /tmp/ccMmQP8f.s 			page 17


 349              		.loc 1 524 15 is_stmt 0 view .LVU88
 350 0016 0271     		strb	r2, [r0, #4]
 525:Drivers/STM32F1xx_HAL_Driver/Src/stm32f1xx_hal_dac.c **** 
 526:Drivers/STM32F1xx_HAL_Driver/Src/stm32f1xx_hal_dac.c ****   /* Return function status */
 527:Drivers/STM32F1xx_HAL_Driver/Src/stm32f1xx_hal_dac.c ****   return HAL_OK;
 351              		.loc 1 527 3 is_stmt 1 view .LVU89
 528:Drivers/STM32F1xx_HAL_Driver/Src/stm32f1xx_hal_dac.c **** }
 352              		.loc 1 528 1 is_stmt 0 view .LVU90
 353 0018 0020     		movs	r0, #0
 354              	.LVL21:
 355              		.loc 1 528 1 view .LVU91
 356 001a 10BC     		pop	{r4}
 357              	.LCFI9:
 358              		.cfi_restore 4
 359              		.cfi_def_cfa_offset 0
 360 001c 7047     		bx	lr
 361              		.cfi_endproc
 362              	.LFE70:
 364              		.section	.text.HAL_DAC_Start_DMA,"ax",%progbits
 365              		.align	1
 366              		.global	HAL_DAC_Start_DMA
 367              		.syntax unified
 368              		.thumb
 369              		.thumb_func
 370              		.fpu softvfp
 372              	HAL_DAC_Start_DMA:
 373              	.LVL22:
 374              	.LFB71:
 529:Drivers/STM32F1xx_HAL_Driver/Src/stm32f1xx_hal_dac.c **** 
 530:Drivers/STM32F1xx_HAL_Driver/Src/stm32f1xx_hal_dac.c **** /**
 531:Drivers/STM32F1xx_HAL_Driver/Src/stm32f1xx_hal_dac.c ****   * @brief  Enables DAC and starts conversion of channel.
 532:Drivers/STM32F1xx_HAL_Driver/Src/stm32f1xx_hal_dac.c ****   * @param  hdac pointer to a DAC_HandleTypeDef structure that contains
 533:Drivers/STM32F1xx_HAL_Driver/Src/stm32f1xx_hal_dac.c ****   *         the configuration information for the specified DAC.
 534:Drivers/STM32F1xx_HAL_Driver/Src/stm32f1xx_hal_dac.c ****   * @param  Channel The selected DAC channel.
 535:Drivers/STM32F1xx_HAL_Driver/Src/stm32f1xx_hal_dac.c ****   *          This parameter can be one of the following values:
 536:Drivers/STM32F1xx_HAL_Driver/Src/stm32f1xx_hal_dac.c ****   *            @arg DAC_CHANNEL_1: DAC Channel1 selected
 537:Drivers/STM32F1xx_HAL_Driver/Src/stm32f1xx_hal_dac.c ****   *            @arg DAC_CHANNEL_2: DAC Channel2 selected
 538:Drivers/STM32F1xx_HAL_Driver/Src/stm32f1xx_hal_dac.c ****   * @param  pData The destination peripheral Buffer address.
 539:Drivers/STM32F1xx_HAL_Driver/Src/stm32f1xx_hal_dac.c ****   * @param  Length The length of data to be transferred from memory to DAC peripheral
 540:Drivers/STM32F1xx_HAL_Driver/Src/stm32f1xx_hal_dac.c ****   * @param  Alignment Specifies the data alignment for DAC channel.
 541:Drivers/STM32F1xx_HAL_Driver/Src/stm32f1xx_hal_dac.c ****   *          This parameter can be one of the following values:
 542:Drivers/STM32F1xx_HAL_Driver/Src/stm32f1xx_hal_dac.c ****   *            @arg DAC_ALIGN_8B_R: 8bit right data alignment selected
 543:Drivers/STM32F1xx_HAL_Driver/Src/stm32f1xx_hal_dac.c ****   *            @arg DAC_ALIGN_12B_L: 12bit left data alignment selected
 544:Drivers/STM32F1xx_HAL_Driver/Src/stm32f1xx_hal_dac.c ****   *            @arg DAC_ALIGN_12B_R: 12bit right data alignment selected
 545:Drivers/STM32F1xx_HAL_Driver/Src/stm32f1xx_hal_dac.c ****   * @retval HAL status
 546:Drivers/STM32F1xx_HAL_Driver/Src/stm32f1xx_hal_dac.c ****   */
 547:Drivers/STM32F1xx_HAL_Driver/Src/stm32f1xx_hal_dac.c **** HAL_StatusTypeDef HAL_DAC_Start_DMA(DAC_HandleTypeDef *hdac, uint32_t Channel, uint32_t *pData, uin
 548:Drivers/STM32F1xx_HAL_Driver/Src/stm32f1xx_hal_dac.c ****                                     uint32_t Alignment)
 549:Drivers/STM32F1xx_HAL_Driver/Src/stm32f1xx_hal_dac.c **** {
 375              		.loc 1 549 1 is_stmt 1 view -0
 376              		.cfi_startproc
 377              		@ args = 4, pretend = 0, frame = 0
 378              		@ frame_needed = 0, uses_anonymous_args = 0
 379              		.loc 1 549 1 is_stmt 0 view .LVU93
 380 0000 70B5     		push	{r4, r5, r6, lr}
 381              	.LCFI10:
 382              		.cfi_def_cfa_offset 16
ARM GAS  /tmp/ccMmQP8f.s 			page 18


 383              		.cfi_offset 4, -16
 384              		.cfi_offset 5, -12
 385              		.cfi_offset 6, -8
 386              		.cfi_offset 14, -4
 387 0002 0446     		mov	r4, r0
 388 0004 0D46     		mov	r5, r1
 389 0006 1146     		mov	r1, r2
 390              	.LVL23:
 391              		.loc 1 549 1 view .LVU94
 392 0008 049A     		ldr	r2, [sp, #16]
 393              	.LVL24:
 550:Drivers/STM32F1xx_HAL_Driver/Src/stm32f1xx_hal_dac.c ****   HAL_StatusTypeDef status;
 394              		.loc 1 550 3 is_stmt 1 view .LVU95
 551:Drivers/STM32F1xx_HAL_Driver/Src/stm32f1xx_hal_dac.c ****   uint32_t tmpreg = 0U;
 395              		.loc 1 551 3 view .LVU96
 552:Drivers/STM32F1xx_HAL_Driver/Src/stm32f1xx_hal_dac.c **** 
 553:Drivers/STM32F1xx_HAL_Driver/Src/stm32f1xx_hal_dac.c ****   /* Check the parameters */
 554:Drivers/STM32F1xx_HAL_Driver/Src/stm32f1xx_hal_dac.c ****   assert_param(IS_DAC_CHANNEL(Channel));
 396              		.loc 1 554 3 view .LVU97
 555:Drivers/STM32F1xx_HAL_Driver/Src/stm32f1xx_hal_dac.c ****   assert_param(IS_DAC_ALIGN(Alignment));
 397              		.loc 1 555 3 view .LVU98
 556:Drivers/STM32F1xx_HAL_Driver/Src/stm32f1xx_hal_dac.c **** 
 557:Drivers/STM32F1xx_HAL_Driver/Src/stm32f1xx_hal_dac.c ****   /* Process locked */
 558:Drivers/STM32F1xx_HAL_Driver/Src/stm32f1xx_hal_dac.c ****   __HAL_LOCK(hdac);
 398              		.loc 1 558 3 view .LVU99
 399              		.loc 1 558 3 view .LVU100
 400 000a 4079     		ldrb	r0, [r0, #5]	@ zero_extendqisi2
 401              	.LVL25:
 402              		.loc 1 558 3 is_stmt 0 view .LVU101
 403 000c 0128     		cmp	r0, #1
 404 000e 5CD0     		beq	.L42
 405              		.loc 1 558 3 is_stmt 1 discriminator 2 view .LVU102
 406 0010 0120     		movs	r0, #1
 407 0012 6071     		strb	r0, [r4, #5]
 408              		.loc 1 558 3 discriminator 2 view .LVU103
 559:Drivers/STM32F1xx_HAL_Driver/Src/stm32f1xx_hal_dac.c **** 
 560:Drivers/STM32F1xx_HAL_Driver/Src/stm32f1xx_hal_dac.c ****   /* Change DAC state */
 561:Drivers/STM32F1xx_HAL_Driver/Src/stm32f1xx_hal_dac.c ****   hdac->State = HAL_DAC_STATE_BUSY;
 409              		.loc 1 561 3 discriminator 2 view .LVU104
 410              		.loc 1 561 15 is_stmt 0 discriminator 2 view .LVU105
 411 0014 0220     		movs	r0, #2
 412 0016 2071     		strb	r0, [r4, #4]
 562:Drivers/STM32F1xx_HAL_Driver/Src/stm32f1xx_hal_dac.c **** 
 563:Drivers/STM32F1xx_HAL_Driver/Src/stm32f1xx_hal_dac.c ****   if (Channel == DAC_CHANNEL_1)
 413              		.loc 1 563 3 is_stmt 1 discriminator 2 view .LVU106
 414              		.loc 1 563 6 is_stmt 0 discriminator 2 view .LVU107
 415 0018 002D     		cmp	r5, #0
 416 001a 2FD1     		bne	.L33
 564:Drivers/STM32F1xx_HAL_Driver/Src/stm32f1xx_hal_dac.c ****   {
 565:Drivers/STM32F1xx_HAL_Driver/Src/stm32f1xx_hal_dac.c ****     /* Set the DMA transfer complete callback for channel1 */
 566:Drivers/STM32F1xx_HAL_Driver/Src/stm32f1xx_hal_dac.c ****     hdac->DMA_Handle1->XferCpltCallback = DAC_DMAConvCpltCh1;
 417              		.loc 1 566 5 is_stmt 1 view .LVU108
 418              		.loc 1 566 9 is_stmt 0 view .LVU109
 419 001c A068     		ldr	r0, [r4, #8]
 420              		.loc 1 566 41 view .LVU110
 421 001e 2C4E     		ldr	r6, .L48
 422 0020 8662     		str	r6, [r0, #40]
ARM GAS  /tmp/ccMmQP8f.s 			page 19


 567:Drivers/STM32F1xx_HAL_Driver/Src/stm32f1xx_hal_dac.c **** 
 568:Drivers/STM32F1xx_HAL_Driver/Src/stm32f1xx_hal_dac.c ****     /* Set the DMA half transfer complete callback for channel1 */
 569:Drivers/STM32F1xx_HAL_Driver/Src/stm32f1xx_hal_dac.c ****     hdac->DMA_Handle1->XferHalfCpltCallback = DAC_DMAHalfConvCpltCh1;
 423              		.loc 1 569 5 is_stmt 1 view .LVU111
 424              		.loc 1 569 9 is_stmt 0 view .LVU112
 425 0022 A068     		ldr	r0, [r4, #8]
 426              		.loc 1 569 45 view .LVU113
 427 0024 2B4E     		ldr	r6, .L48+4
 428 0026 C662     		str	r6, [r0, #44]
 570:Drivers/STM32F1xx_HAL_Driver/Src/stm32f1xx_hal_dac.c **** 
 571:Drivers/STM32F1xx_HAL_Driver/Src/stm32f1xx_hal_dac.c ****     /* Set the DMA error callback for channel1 */
 572:Drivers/STM32F1xx_HAL_Driver/Src/stm32f1xx_hal_dac.c ****     hdac->DMA_Handle1->XferErrorCallback = DAC_DMAErrorCh1;
 429              		.loc 1 572 5 is_stmt 1 view .LVU114
 430              		.loc 1 572 9 is_stmt 0 view .LVU115
 431 0028 A068     		ldr	r0, [r4, #8]
 432              		.loc 1 572 42 view .LVU116
 433 002a 2B4E     		ldr	r6, .L48+8
 434 002c 0663     		str	r6, [r0, #48]
 573:Drivers/STM32F1xx_HAL_Driver/Src/stm32f1xx_hal_dac.c **** 
 574:Drivers/STM32F1xx_HAL_Driver/Src/stm32f1xx_hal_dac.c ****     /* Enable the selected DAC channel1 DMA request */
 575:Drivers/STM32F1xx_HAL_Driver/Src/stm32f1xx_hal_dac.c ****     SET_BIT(hdac->Instance->CR, DAC_CR_DMAEN1);
 435              		.loc 1 575 5 is_stmt 1 view .LVU117
 436 002e 2668     		ldr	r6, [r4]
 437 0030 3068     		ldr	r0, [r6]
 438 0032 40F48050 		orr	r0, r0, #4096
 439 0036 3060     		str	r0, [r6]
 576:Drivers/STM32F1xx_HAL_Driver/Src/stm32f1xx_hal_dac.c **** 
 577:Drivers/STM32F1xx_HAL_Driver/Src/stm32f1xx_hal_dac.c ****     /* Case of use of channel 1 */
 578:Drivers/STM32F1xx_HAL_Driver/Src/stm32f1xx_hal_dac.c ****     switch (Alignment)
 440              		.loc 1 578 5 view .LVU118
 441 0038 042A     		cmp	r2, #4
 442 003a 19D0     		beq	.L34
 443 003c 082A     		cmp	r2, #8
 444 003e 1AD0     		beq	.L35
 445 0040 9AB1     		cbz	r2, .L46
 446 0042 2A46     		mov	r2, r5
 447              	.LVL26:
 448              	.L36:
 579:Drivers/STM32F1xx_HAL_Driver/Src/stm32f1xx_hal_dac.c ****     {
 580:Drivers/STM32F1xx_HAL_Driver/Src/stm32f1xx_hal_dac.c ****       case DAC_ALIGN_12B_R:
 581:Drivers/STM32F1xx_HAL_Driver/Src/stm32f1xx_hal_dac.c ****         /* Get DHR12R1 address */
 582:Drivers/STM32F1xx_HAL_Driver/Src/stm32f1xx_hal_dac.c ****         tmpreg = (uint32_t)&hdac->Instance->DHR12R1;
 583:Drivers/STM32F1xx_HAL_Driver/Src/stm32f1xx_hal_dac.c ****         break;
 584:Drivers/STM32F1xx_HAL_Driver/Src/stm32f1xx_hal_dac.c ****       case DAC_ALIGN_12B_L:
 585:Drivers/STM32F1xx_HAL_Driver/Src/stm32f1xx_hal_dac.c ****         /* Get DHR12L1 address */
 586:Drivers/STM32F1xx_HAL_Driver/Src/stm32f1xx_hal_dac.c ****         tmpreg = (uint32_t)&hdac->Instance->DHR12L1;
 587:Drivers/STM32F1xx_HAL_Driver/Src/stm32f1xx_hal_dac.c ****         break;
 588:Drivers/STM32F1xx_HAL_Driver/Src/stm32f1xx_hal_dac.c ****       case DAC_ALIGN_8B_R:
 589:Drivers/STM32F1xx_HAL_Driver/Src/stm32f1xx_hal_dac.c ****         /* Get DHR8R1 address */
 590:Drivers/STM32F1xx_HAL_Driver/Src/stm32f1xx_hal_dac.c ****         tmpreg = (uint32_t)&hdac->Instance->DHR8R1;
 591:Drivers/STM32F1xx_HAL_Driver/Src/stm32f1xx_hal_dac.c ****         break;
 592:Drivers/STM32F1xx_HAL_Driver/Src/stm32f1xx_hal_dac.c ****       default:
 593:Drivers/STM32F1xx_HAL_Driver/Src/stm32f1xx_hal_dac.c ****         break;
 594:Drivers/STM32F1xx_HAL_Driver/Src/stm32f1xx_hal_dac.c ****     }
 595:Drivers/STM32F1xx_HAL_Driver/Src/stm32f1xx_hal_dac.c ****   }
 596:Drivers/STM32F1xx_HAL_Driver/Src/stm32f1xx_hal_dac.c ****   else
 597:Drivers/STM32F1xx_HAL_Driver/Src/stm32f1xx_hal_dac.c ****   {
ARM GAS  /tmp/ccMmQP8f.s 			page 20


 598:Drivers/STM32F1xx_HAL_Driver/Src/stm32f1xx_hal_dac.c ****     /* Set the DMA transfer complete callback for channel2 */
 599:Drivers/STM32F1xx_HAL_Driver/Src/stm32f1xx_hal_dac.c ****     hdac->DMA_Handle2->XferCpltCallback = DAC_DMAConvCpltCh2;
 600:Drivers/STM32F1xx_HAL_Driver/Src/stm32f1xx_hal_dac.c **** 
 601:Drivers/STM32F1xx_HAL_Driver/Src/stm32f1xx_hal_dac.c ****     /* Set the DMA half transfer complete callback for channel2 */
 602:Drivers/STM32F1xx_HAL_Driver/Src/stm32f1xx_hal_dac.c ****     hdac->DMA_Handle2->XferHalfCpltCallback = DAC_DMAHalfConvCpltCh2;
 603:Drivers/STM32F1xx_HAL_Driver/Src/stm32f1xx_hal_dac.c **** 
 604:Drivers/STM32F1xx_HAL_Driver/Src/stm32f1xx_hal_dac.c ****     /* Set the DMA error callback for channel2 */
 605:Drivers/STM32F1xx_HAL_Driver/Src/stm32f1xx_hal_dac.c ****     hdac->DMA_Handle2->XferErrorCallback = DAC_DMAErrorCh2;
 606:Drivers/STM32F1xx_HAL_Driver/Src/stm32f1xx_hal_dac.c **** 
 607:Drivers/STM32F1xx_HAL_Driver/Src/stm32f1xx_hal_dac.c ****     /* Enable the selected DAC channel2 DMA request */
 608:Drivers/STM32F1xx_HAL_Driver/Src/stm32f1xx_hal_dac.c ****     SET_BIT(hdac->Instance->CR, DAC_CR_DMAEN2);
 609:Drivers/STM32F1xx_HAL_Driver/Src/stm32f1xx_hal_dac.c **** 
 610:Drivers/STM32F1xx_HAL_Driver/Src/stm32f1xx_hal_dac.c ****     /* Case of use of channel 2 */
 611:Drivers/STM32F1xx_HAL_Driver/Src/stm32f1xx_hal_dac.c ****     switch (Alignment)
 612:Drivers/STM32F1xx_HAL_Driver/Src/stm32f1xx_hal_dac.c ****     {
 613:Drivers/STM32F1xx_HAL_Driver/Src/stm32f1xx_hal_dac.c ****       case DAC_ALIGN_12B_R:
 614:Drivers/STM32F1xx_HAL_Driver/Src/stm32f1xx_hal_dac.c ****         /* Get DHR12R2 address */
 615:Drivers/STM32F1xx_HAL_Driver/Src/stm32f1xx_hal_dac.c ****         tmpreg = (uint32_t)&hdac->Instance->DHR12R2;
 616:Drivers/STM32F1xx_HAL_Driver/Src/stm32f1xx_hal_dac.c ****         break;
 617:Drivers/STM32F1xx_HAL_Driver/Src/stm32f1xx_hal_dac.c ****       case DAC_ALIGN_12B_L:
 618:Drivers/STM32F1xx_HAL_Driver/Src/stm32f1xx_hal_dac.c ****         /* Get DHR12L2 address */
 619:Drivers/STM32F1xx_HAL_Driver/Src/stm32f1xx_hal_dac.c ****         tmpreg = (uint32_t)&hdac->Instance->DHR12L2;
 620:Drivers/STM32F1xx_HAL_Driver/Src/stm32f1xx_hal_dac.c ****         break;
 621:Drivers/STM32F1xx_HAL_Driver/Src/stm32f1xx_hal_dac.c ****       case DAC_ALIGN_8B_R:
 622:Drivers/STM32F1xx_HAL_Driver/Src/stm32f1xx_hal_dac.c ****         /* Get DHR8R2 address */
 623:Drivers/STM32F1xx_HAL_Driver/Src/stm32f1xx_hal_dac.c ****         tmpreg = (uint32_t)&hdac->Instance->DHR8R2;
 624:Drivers/STM32F1xx_HAL_Driver/Src/stm32f1xx_hal_dac.c ****         break;
 625:Drivers/STM32F1xx_HAL_Driver/Src/stm32f1xx_hal_dac.c ****       default:
 626:Drivers/STM32F1xx_HAL_Driver/Src/stm32f1xx_hal_dac.c ****         break;
 627:Drivers/STM32F1xx_HAL_Driver/Src/stm32f1xx_hal_dac.c ****     }
 628:Drivers/STM32F1xx_HAL_Driver/Src/stm32f1xx_hal_dac.c ****   }
 629:Drivers/STM32F1xx_HAL_Driver/Src/stm32f1xx_hal_dac.c **** 
 630:Drivers/STM32F1xx_HAL_Driver/Src/stm32f1xx_hal_dac.c ****   /* Enable the DMA Stream */
 631:Drivers/STM32F1xx_HAL_Driver/Src/stm32f1xx_hal_dac.c ****   if (Channel == DAC_CHANNEL_1)
 449              		.loc 1 631 3 view .LVU119
 450              		.loc 1 631 6 is_stmt 0 view .LVU120
 451 0044 002D     		cmp	r5, #0
 452 0046 37D1     		bne	.L39
 632:Drivers/STM32F1xx_HAL_Driver/Src/stm32f1xx_hal_dac.c ****   {
 633:Drivers/STM32F1xx_HAL_Driver/Src/stm32f1xx_hal_dac.c **** #if defined(DAC_CR_DMAUDRIE1)
 634:Drivers/STM32F1xx_HAL_Driver/Src/stm32f1xx_hal_dac.c ****     /* Enable the DAC DMA underrun interrupt */
 635:Drivers/STM32F1xx_HAL_Driver/Src/stm32f1xx_hal_dac.c ****     __HAL_DAC_ENABLE_IT(hdac, DAC_IT_DMAUDR1);
 636:Drivers/STM32F1xx_HAL_Driver/Src/stm32f1xx_hal_dac.c **** #endif /* DAC_CR_DMAUDRIE1 */
 637:Drivers/STM32F1xx_HAL_Driver/Src/stm32f1xx_hal_dac.c ****    /* Enable the DMA Stream */
 638:Drivers/STM32F1xx_HAL_Driver/Src/stm32f1xx_hal_dac.c ****     status = HAL_DMA_Start_IT(hdac->DMA_Handle1, (uint32_t)pData, tmpreg, Length);
 453              		.loc 1 638 5 is_stmt 1 view .LVU121
 454              		.loc 1 638 14 is_stmt 0 view .LVU122
 455 0048 A068     		ldr	r0, [r4, #8]
 456 004a FFF7FEFF 		bl	HAL_DMA_Start_IT
 457              	.LVL27:
 458              	.L40:
 639:Drivers/STM32F1xx_HAL_Driver/Src/stm32f1xx_hal_dac.c ****   }
 640:Drivers/STM32F1xx_HAL_Driver/Src/stm32f1xx_hal_dac.c ****   else
 641:Drivers/STM32F1xx_HAL_Driver/Src/stm32f1xx_hal_dac.c ****   {
 642:Drivers/STM32F1xx_HAL_Driver/Src/stm32f1xx_hal_dac.c **** #if defined(DAC_CR_DMAUDRIE2)
 643:Drivers/STM32F1xx_HAL_Driver/Src/stm32f1xx_hal_dac.c ****     /* Enable the DAC DMA underrun interrupt */
 644:Drivers/STM32F1xx_HAL_Driver/Src/stm32f1xx_hal_dac.c ****     __HAL_DAC_ENABLE_IT(hdac, DAC_IT_DMAUDR2);
ARM GAS  /tmp/ccMmQP8f.s 			page 21


 645:Drivers/STM32F1xx_HAL_Driver/Src/stm32f1xx_hal_dac.c **** #endif /* DAC_CR_DMAUDRIE2 */
 646:Drivers/STM32F1xx_HAL_Driver/Src/stm32f1xx_hal_dac.c ****     /* Enable the DMA Stream */
 647:Drivers/STM32F1xx_HAL_Driver/Src/stm32f1xx_hal_dac.c ****     status = HAL_DMA_Start_IT(hdac->DMA_Handle2, (uint32_t)pData, tmpreg, Length);
 648:Drivers/STM32F1xx_HAL_Driver/Src/stm32f1xx_hal_dac.c ****   }
 649:Drivers/STM32F1xx_HAL_Driver/Src/stm32f1xx_hal_dac.c **** 
 650:Drivers/STM32F1xx_HAL_Driver/Src/stm32f1xx_hal_dac.c ****   /* Process Unlocked */
 651:Drivers/STM32F1xx_HAL_Driver/Src/stm32f1xx_hal_dac.c ****   __HAL_UNLOCK(hdac);
 459              		.loc 1 651 3 is_stmt 1 view .LVU123
 460              		.loc 1 651 3 view .LVU124
 461 004e 0023     		movs	r3, #0
 462 0050 6371     		strb	r3, [r4, #5]
 463              		.loc 1 651 3 view .LVU125
 652:Drivers/STM32F1xx_HAL_Driver/Src/stm32f1xx_hal_dac.c **** 
 653:Drivers/STM32F1xx_HAL_Driver/Src/stm32f1xx_hal_dac.c ****   if (status == HAL_OK)
 464              		.loc 1 653 3 view .LVU126
 465              		.loc 1 653 6 is_stmt 0 view .LVU127
 466 0052 0028     		cmp	r0, #0
 467 0054 34D1     		bne	.L41
 654:Drivers/STM32F1xx_HAL_Driver/Src/stm32f1xx_hal_dac.c ****   {
 655:Drivers/STM32F1xx_HAL_Driver/Src/stm32f1xx_hal_dac.c ****     /* Enable the Peripheral */
 656:Drivers/STM32F1xx_HAL_Driver/Src/stm32f1xx_hal_dac.c ****     __HAL_DAC_ENABLE(hdac, Channel);
 468              		.loc 1 656 5 is_stmt 1 view .LVU128
 469 0056 2268     		ldr	r2, [r4]
 470 0058 1368     		ldr	r3, [r2]
 471 005a 05F01005 		and	r5, r5, #16
 472              	.LVL28:
 473              		.loc 1 656 5 is_stmt 0 view .LVU129
 474 005e 0121     		movs	r1, #1
 475 0060 01FA05F5 		lsl	r5, r1, r5
 476 0064 1D43     		orrs	r5, r5, r3
 477 0066 1560     		str	r5, [r2]
 478              	.LVL29:
 479              	.L32:
 657:Drivers/STM32F1xx_HAL_Driver/Src/stm32f1xx_hal_dac.c ****   }
 658:Drivers/STM32F1xx_HAL_Driver/Src/stm32f1xx_hal_dac.c ****   else
 659:Drivers/STM32F1xx_HAL_Driver/Src/stm32f1xx_hal_dac.c ****   {
 660:Drivers/STM32F1xx_HAL_Driver/Src/stm32f1xx_hal_dac.c ****     hdac->ErrorCode |= HAL_DAC_ERROR_DMA;
 661:Drivers/STM32F1xx_HAL_Driver/Src/stm32f1xx_hal_dac.c ****   }
 662:Drivers/STM32F1xx_HAL_Driver/Src/stm32f1xx_hal_dac.c **** 
 663:Drivers/STM32F1xx_HAL_Driver/Src/stm32f1xx_hal_dac.c ****   /* Return function status */
 664:Drivers/STM32F1xx_HAL_Driver/Src/stm32f1xx_hal_dac.c ****   return status;
 665:Drivers/STM32F1xx_HAL_Driver/Src/stm32f1xx_hal_dac.c **** }
 480              		.loc 1 665 1 view .LVU130
 481 0068 70BD     		pop	{r4, r5, r6, pc}
 482              	.LVL30:
 483              	.L46:
 582:Drivers/STM32F1xx_HAL_Driver/Src/stm32f1xx_hal_dac.c ****         break;
 484              		.loc 1 582 9 is_stmt 1 view .LVU131
 582:Drivers/STM32F1xx_HAL_Driver/Src/stm32f1xx_hal_dac.c ****         break;
 485              		.loc 1 582 33 is_stmt 0 view .LVU132
 486 006a 2268     		ldr	r2, [r4]
 582:Drivers/STM32F1xx_HAL_Driver/Src/stm32f1xx_hal_dac.c ****         break;
 487              		.loc 1 582 28 view .LVU133
 488 006c 0832     		adds	r2, r2, #8
 489              	.LVL31:
 583:Drivers/STM32F1xx_HAL_Driver/Src/stm32f1xx_hal_dac.c ****       case DAC_ALIGN_12B_L:
 490              		.loc 1 583 9 is_stmt 1 view .LVU134
ARM GAS  /tmp/ccMmQP8f.s 			page 22


 491 006e E9E7     		b	.L36
 492              	.LVL32:
 493              	.L34:
 586:Drivers/STM32F1xx_HAL_Driver/Src/stm32f1xx_hal_dac.c ****         break;
 494              		.loc 1 586 9 view .LVU135
 586:Drivers/STM32F1xx_HAL_Driver/Src/stm32f1xx_hal_dac.c ****         break;
 495              		.loc 1 586 33 is_stmt 0 view .LVU136
 496 0070 2268     		ldr	r2, [r4]
 586:Drivers/STM32F1xx_HAL_Driver/Src/stm32f1xx_hal_dac.c ****         break;
 497              		.loc 1 586 28 view .LVU137
 498 0072 0C32     		adds	r2, r2, #12
 499              	.LVL33:
 587:Drivers/STM32F1xx_HAL_Driver/Src/stm32f1xx_hal_dac.c ****       case DAC_ALIGN_8B_R:
 500              		.loc 1 587 9 is_stmt 1 view .LVU138
 501 0074 E6E7     		b	.L36
 502              	.LVL34:
 503              	.L35:
 590:Drivers/STM32F1xx_HAL_Driver/Src/stm32f1xx_hal_dac.c ****         break;
 504              		.loc 1 590 9 view .LVU139
 590:Drivers/STM32F1xx_HAL_Driver/Src/stm32f1xx_hal_dac.c ****         break;
 505              		.loc 1 590 33 is_stmt 0 view .LVU140
 506 0076 2268     		ldr	r2, [r4]
 590:Drivers/STM32F1xx_HAL_Driver/Src/stm32f1xx_hal_dac.c ****         break;
 507              		.loc 1 590 28 view .LVU141
 508 0078 1032     		adds	r2, r2, #16
 509              	.LVL35:
 591:Drivers/STM32F1xx_HAL_Driver/Src/stm32f1xx_hal_dac.c ****       default:
 510              		.loc 1 591 9 is_stmt 1 view .LVU142
 511 007a E3E7     		b	.L36
 512              	.LVL36:
 513              	.L33:
 599:Drivers/STM32F1xx_HAL_Driver/Src/stm32f1xx_hal_dac.c **** 
 514              		.loc 1 599 5 view .LVU143
 599:Drivers/STM32F1xx_HAL_Driver/Src/stm32f1xx_hal_dac.c **** 
 515              		.loc 1 599 9 is_stmt 0 view .LVU144
 516 007c E068     		ldr	r0, [r4, #12]
 599:Drivers/STM32F1xx_HAL_Driver/Src/stm32f1xx_hal_dac.c **** 
 517              		.loc 1 599 41 view .LVU145
 518 007e 174E     		ldr	r6, .L48+12
 519 0080 8662     		str	r6, [r0, #40]
 602:Drivers/STM32F1xx_HAL_Driver/Src/stm32f1xx_hal_dac.c **** 
 520              		.loc 1 602 5 is_stmt 1 view .LVU146
 602:Drivers/STM32F1xx_HAL_Driver/Src/stm32f1xx_hal_dac.c **** 
 521              		.loc 1 602 9 is_stmt 0 view .LVU147
 522 0082 E068     		ldr	r0, [r4, #12]
 602:Drivers/STM32F1xx_HAL_Driver/Src/stm32f1xx_hal_dac.c **** 
 523              		.loc 1 602 45 view .LVU148
 524 0084 164E     		ldr	r6, .L48+16
 525 0086 C662     		str	r6, [r0, #44]
 605:Drivers/STM32F1xx_HAL_Driver/Src/stm32f1xx_hal_dac.c **** 
 526              		.loc 1 605 5 is_stmt 1 view .LVU149
 605:Drivers/STM32F1xx_HAL_Driver/Src/stm32f1xx_hal_dac.c **** 
 527              		.loc 1 605 9 is_stmt 0 view .LVU150
 528 0088 E068     		ldr	r0, [r4, #12]
 605:Drivers/STM32F1xx_HAL_Driver/Src/stm32f1xx_hal_dac.c **** 
 529              		.loc 1 605 42 view .LVU151
 530 008a 164E     		ldr	r6, .L48+20
ARM GAS  /tmp/ccMmQP8f.s 			page 23


 531 008c 0663     		str	r6, [r0, #48]
 608:Drivers/STM32F1xx_HAL_Driver/Src/stm32f1xx_hal_dac.c **** 
 532              		.loc 1 608 5 is_stmt 1 view .LVU152
 533 008e 2668     		ldr	r6, [r4]
 534 0090 3068     		ldr	r0, [r6]
 535 0092 40F08050 		orr	r0, r0, #268435456
 536 0096 3060     		str	r0, [r6]
 611:Drivers/STM32F1xx_HAL_Driver/Src/stm32f1xx_hal_dac.c ****     {
 537              		.loc 1 611 5 view .LVU153
 538 0098 042A     		cmp	r2, #4
 539 009a 07D0     		beq	.L37
 540 009c 082A     		cmp	r2, #8
 541 009e 08D0     		beq	.L38
 542 00a0 0AB1     		cbz	r2, .L47
 543 00a2 0022     		movs	r2, #0
 544 00a4 CEE7     		b	.L36
 545              	.L47:
 615:Drivers/STM32F1xx_HAL_Driver/Src/stm32f1xx_hal_dac.c ****         break;
 546              		.loc 1 615 9 view .LVU154
 615:Drivers/STM32F1xx_HAL_Driver/Src/stm32f1xx_hal_dac.c ****         break;
 547              		.loc 1 615 33 is_stmt 0 view .LVU155
 548 00a6 2268     		ldr	r2, [r4]
 615:Drivers/STM32F1xx_HAL_Driver/Src/stm32f1xx_hal_dac.c ****         break;
 549              		.loc 1 615 28 view .LVU156
 550 00a8 1432     		adds	r2, r2, #20
 551              	.LVL37:
 616:Drivers/STM32F1xx_HAL_Driver/Src/stm32f1xx_hal_dac.c ****       case DAC_ALIGN_12B_L:
 552              		.loc 1 616 9 is_stmt 1 view .LVU157
 553 00aa CBE7     		b	.L36
 554              	.LVL38:
 555              	.L37:
 619:Drivers/STM32F1xx_HAL_Driver/Src/stm32f1xx_hal_dac.c ****         break;
 556              		.loc 1 619 9 view .LVU158
 619:Drivers/STM32F1xx_HAL_Driver/Src/stm32f1xx_hal_dac.c ****         break;
 557              		.loc 1 619 33 is_stmt 0 view .LVU159
 558 00ac 2268     		ldr	r2, [r4]
 619:Drivers/STM32F1xx_HAL_Driver/Src/stm32f1xx_hal_dac.c ****         break;
 559              		.loc 1 619 28 view .LVU160
 560 00ae 1832     		adds	r2, r2, #24
 561              	.LVL39:
 620:Drivers/STM32F1xx_HAL_Driver/Src/stm32f1xx_hal_dac.c ****       case DAC_ALIGN_8B_R:
 562              		.loc 1 620 9 is_stmt 1 view .LVU161
 563 00b0 C8E7     		b	.L36
 564              	.LVL40:
 565              	.L38:
 623:Drivers/STM32F1xx_HAL_Driver/Src/stm32f1xx_hal_dac.c ****         break;
 566              		.loc 1 623 9 view .LVU162
 623:Drivers/STM32F1xx_HAL_Driver/Src/stm32f1xx_hal_dac.c ****         break;
 567              		.loc 1 623 33 is_stmt 0 view .LVU163
 568 00b2 2268     		ldr	r2, [r4]
 623:Drivers/STM32F1xx_HAL_Driver/Src/stm32f1xx_hal_dac.c ****         break;
 569              		.loc 1 623 28 view .LVU164
 570 00b4 1C32     		adds	r2, r2, #28
 571              	.LVL41:
 624:Drivers/STM32F1xx_HAL_Driver/Src/stm32f1xx_hal_dac.c ****       default:
 572              		.loc 1 624 9 is_stmt 1 view .LVU165
 573 00b6 C5E7     		b	.L36
ARM GAS  /tmp/ccMmQP8f.s 			page 24


 574              	.L39:
 647:Drivers/STM32F1xx_HAL_Driver/Src/stm32f1xx_hal_dac.c ****   }
 575              		.loc 1 647 5 view .LVU166
 647:Drivers/STM32F1xx_HAL_Driver/Src/stm32f1xx_hal_dac.c ****   }
 576              		.loc 1 647 14 is_stmt 0 view .LVU167
 577 00b8 E068     		ldr	r0, [r4, #12]
 578 00ba FFF7FEFF 		bl	HAL_DMA_Start_IT
 579              	.LVL42:
 647:Drivers/STM32F1xx_HAL_Driver/Src/stm32f1xx_hal_dac.c ****   }
 580              		.loc 1 647 14 view .LVU168
 581 00be C6E7     		b	.L40
 582              	.L41:
 660:Drivers/STM32F1xx_HAL_Driver/Src/stm32f1xx_hal_dac.c ****   }
 583              		.loc 1 660 5 is_stmt 1 view .LVU169
 660:Drivers/STM32F1xx_HAL_Driver/Src/stm32f1xx_hal_dac.c ****   }
 584              		.loc 1 660 21 is_stmt 0 view .LVU170
 585 00c0 2369     		ldr	r3, [r4, #16]
 586 00c2 43F00403 		orr	r3, r3, #4
 587 00c6 2361     		str	r3, [r4, #16]
 588 00c8 CEE7     		b	.L32
 589              	.LVL43:
 590              	.L42:
 558:Drivers/STM32F1xx_HAL_Driver/Src/stm32f1xx_hal_dac.c **** 
 591              		.loc 1 558 3 view .LVU171
 592 00ca 0220     		movs	r0, #2
 593 00cc CCE7     		b	.L32
 594              	.L49:
 595 00ce 00BF     		.align	2
 596              	.L48:
 597 00d0 00000000 		.word	DAC_DMAConvCpltCh1
 598 00d4 00000000 		.word	DAC_DMAHalfConvCpltCh1
 599 00d8 00000000 		.word	DAC_DMAErrorCh1
 600 00dc 00000000 		.word	DAC_DMAConvCpltCh2
 601 00e0 00000000 		.word	DAC_DMAHalfConvCpltCh2
 602 00e4 00000000 		.word	DAC_DMAErrorCh2
 603              		.cfi_endproc
 604              	.LFE71:
 606              		.section	.text.HAL_DAC_Stop_DMA,"ax",%progbits
 607              		.align	1
 608              		.global	HAL_DAC_Stop_DMA
 609              		.syntax unified
 610              		.thumb
 611              		.thumb_func
 612              		.fpu softvfp
 614              	HAL_DAC_Stop_DMA:
 615              	.LVL44:
 616              	.LFB72:
 666:Drivers/STM32F1xx_HAL_Driver/Src/stm32f1xx_hal_dac.c **** 
 667:Drivers/STM32F1xx_HAL_Driver/Src/stm32f1xx_hal_dac.c **** /**
 668:Drivers/STM32F1xx_HAL_Driver/Src/stm32f1xx_hal_dac.c ****   * @brief  Disables DAC and stop conversion of channel.
 669:Drivers/STM32F1xx_HAL_Driver/Src/stm32f1xx_hal_dac.c ****   * @param  hdac pointer to a DAC_HandleTypeDef structure that contains
 670:Drivers/STM32F1xx_HAL_Driver/Src/stm32f1xx_hal_dac.c ****   *         the configuration information for the specified DAC.
 671:Drivers/STM32F1xx_HAL_Driver/Src/stm32f1xx_hal_dac.c ****   * @param  Channel The selected DAC channel.
 672:Drivers/STM32F1xx_HAL_Driver/Src/stm32f1xx_hal_dac.c ****   *          This parameter can be one of the following values:
 673:Drivers/STM32F1xx_HAL_Driver/Src/stm32f1xx_hal_dac.c ****   *            @arg DAC_CHANNEL_1: DAC Channel1 selected
 674:Drivers/STM32F1xx_HAL_Driver/Src/stm32f1xx_hal_dac.c ****   *            @arg DAC_CHANNEL_2: DAC Channel2 selected
 675:Drivers/STM32F1xx_HAL_Driver/Src/stm32f1xx_hal_dac.c ****   * @retval HAL status
ARM GAS  /tmp/ccMmQP8f.s 			page 25


 676:Drivers/STM32F1xx_HAL_Driver/Src/stm32f1xx_hal_dac.c ****   */
 677:Drivers/STM32F1xx_HAL_Driver/Src/stm32f1xx_hal_dac.c **** HAL_StatusTypeDef HAL_DAC_Stop_DMA(DAC_HandleTypeDef *hdac, uint32_t Channel)
 678:Drivers/STM32F1xx_HAL_Driver/Src/stm32f1xx_hal_dac.c **** {
 617              		.loc 1 678 1 is_stmt 1 view -0
 618              		.cfi_startproc
 619              		@ args = 0, pretend = 0, frame = 0
 620              		@ frame_needed = 0, uses_anonymous_args = 0
 621              		.loc 1 678 1 is_stmt 0 view .LVU173
 622 0000 70B5     		push	{r4, r5, r6, lr}
 623              	.LCFI11:
 624              		.cfi_def_cfa_offset 16
 625              		.cfi_offset 4, -16
 626              		.cfi_offset 5, -12
 627              		.cfi_offset 6, -8
 628              		.cfi_offset 14, -4
 629 0002 0446     		mov	r4, r0
 679:Drivers/STM32F1xx_HAL_Driver/Src/stm32f1xx_hal_dac.c ****   HAL_StatusTypeDef status;
 630              		.loc 1 679 3 is_stmt 1 view .LVU174
 680:Drivers/STM32F1xx_HAL_Driver/Src/stm32f1xx_hal_dac.c **** 
 681:Drivers/STM32F1xx_HAL_Driver/Src/stm32f1xx_hal_dac.c ****   /* Check the parameters */
 682:Drivers/STM32F1xx_HAL_Driver/Src/stm32f1xx_hal_dac.c ****   assert_param(IS_DAC_CHANNEL(Channel));
 631              		.loc 1 682 3 view .LVU175
 683:Drivers/STM32F1xx_HAL_Driver/Src/stm32f1xx_hal_dac.c **** 
 684:Drivers/STM32F1xx_HAL_Driver/Src/stm32f1xx_hal_dac.c ****   /* Disable the selected DAC channel DMA request */
 685:Drivers/STM32F1xx_HAL_Driver/Src/stm32f1xx_hal_dac.c ****   hdac->Instance->CR &= ~(DAC_CR_DMAEN1 << (Channel & 0x10UL));
 632              		.loc 1 685 3 view .LVU176
 633              		.loc 1 685 7 is_stmt 0 view .LVU177
 634 0004 0368     		ldr	r3, [r0]
 635              		.loc 1 685 22 view .LVU178
 636 0006 1868     		ldr	r0, [r3]
 637              	.LVL45:
 638              		.loc 1 685 53 view .LVU179
 639 0008 01F01006 		and	r6, r1, #16
 640              		.loc 1 685 41 view .LVU180
 641 000c 4FF48055 		mov	r5, #4096
 642 0010 B540     		lsls	r5, r5, r6
 643              		.loc 1 685 22 view .LVU181
 644 0012 20EA0500 		bic	r0, r0, r5
 645 0016 1860     		str	r0, [r3]
 686:Drivers/STM32F1xx_HAL_Driver/Src/stm32f1xx_hal_dac.c **** 
 687:Drivers/STM32F1xx_HAL_Driver/Src/stm32f1xx_hal_dac.c ****   /* Disable the Peripheral */
 688:Drivers/STM32F1xx_HAL_Driver/Src/stm32f1xx_hal_dac.c ****   __HAL_DAC_DISABLE(hdac, Channel);
 646              		.loc 1 688 3 is_stmt 1 view .LVU182
 647 0018 2068     		ldr	r0, [r4]
 648 001a 0368     		ldr	r3, [r0]
 649 001c 0122     		movs	r2, #1
 650 001e B240     		lsls	r2, r2, r6
 651 0020 23EA0203 		bic	r3, r3, r2
 652 0024 0360     		str	r3, [r0]
 689:Drivers/STM32F1xx_HAL_Driver/Src/stm32f1xx_hal_dac.c **** 
 690:Drivers/STM32F1xx_HAL_Driver/Src/stm32f1xx_hal_dac.c ****   /* Disable the DMA Stream */
 691:Drivers/STM32F1xx_HAL_Driver/Src/stm32f1xx_hal_dac.c **** 
 692:Drivers/STM32F1xx_HAL_Driver/Src/stm32f1xx_hal_dac.c ****   /* Channel1 is used */
 693:Drivers/STM32F1xx_HAL_Driver/Src/stm32f1xx_hal_dac.c ****   if (Channel == DAC_CHANNEL_1)
 653              		.loc 1 693 3 view .LVU183
 654              		.loc 1 693 6 is_stmt 0 view .LVU184
 655 0026 31B9     		cbnz	r1, .L51
ARM GAS  /tmp/ccMmQP8f.s 			page 26


 694:Drivers/STM32F1xx_HAL_Driver/Src/stm32f1xx_hal_dac.c ****   {
 695:Drivers/STM32F1xx_HAL_Driver/Src/stm32f1xx_hal_dac.c ****     /* Disable the DMA Stream */
 696:Drivers/STM32F1xx_HAL_Driver/Src/stm32f1xx_hal_dac.c ****     status = HAL_DMA_Abort(hdac->DMA_Handle1);
 656              		.loc 1 696 5 is_stmt 1 view .LVU185
 657              		.loc 1 696 14 is_stmt 0 view .LVU186
 658 0028 A068     		ldr	r0, [r4, #8]
 659 002a FFF7FEFF 		bl	HAL_DMA_Abort
 660              	.LVL46:
 661              	.L52:
 697:Drivers/STM32F1xx_HAL_Driver/Src/stm32f1xx_hal_dac.c **** #if defined(DAC_CR_DMAUDRIE1)
 698:Drivers/STM32F1xx_HAL_Driver/Src/stm32f1xx_hal_dac.c ****     /* Disable the DAC DMA underrun interrupt */
 699:Drivers/STM32F1xx_HAL_Driver/Src/stm32f1xx_hal_dac.c ****     __HAL_DAC_DISABLE_IT(hdac, DAC_IT_DMAUDR1);
 700:Drivers/STM32F1xx_HAL_Driver/Src/stm32f1xx_hal_dac.c **** #endif /* DAC_CR_DMAUDRIE1 */
 701:Drivers/STM32F1xx_HAL_Driver/Src/stm32f1xx_hal_dac.c ****   }
 702:Drivers/STM32F1xx_HAL_Driver/Src/stm32f1xx_hal_dac.c ****   else /* Channel2 is used for */
 703:Drivers/STM32F1xx_HAL_Driver/Src/stm32f1xx_hal_dac.c ****   {
 704:Drivers/STM32F1xx_HAL_Driver/Src/stm32f1xx_hal_dac.c ****     /* Disable the DMA Stream */
 705:Drivers/STM32F1xx_HAL_Driver/Src/stm32f1xx_hal_dac.c ****     status = HAL_DMA_Abort(hdac->DMA_Handle2);
 706:Drivers/STM32F1xx_HAL_Driver/Src/stm32f1xx_hal_dac.c **** #if defined(DAC_CR_DMAUDRIE2)
 707:Drivers/STM32F1xx_HAL_Driver/Src/stm32f1xx_hal_dac.c ****     /* Disable the DAC DMA underrun interrupt */
 708:Drivers/STM32F1xx_HAL_Driver/Src/stm32f1xx_hal_dac.c ****     __HAL_DAC_DISABLE_IT(hdac, DAC_IT_DMAUDR2);
 709:Drivers/STM32F1xx_HAL_Driver/Src/stm32f1xx_hal_dac.c **** #endif /* DAC_CR_DMAUDRIE2 */
 710:Drivers/STM32F1xx_HAL_Driver/Src/stm32f1xx_hal_dac.c ****   }
 711:Drivers/STM32F1xx_HAL_Driver/Src/stm32f1xx_hal_dac.c **** 
 712:Drivers/STM32F1xx_HAL_Driver/Src/stm32f1xx_hal_dac.c ****   /* Check if DMA Stream effectively disabled */
 713:Drivers/STM32F1xx_HAL_Driver/Src/stm32f1xx_hal_dac.c ****   if (status != HAL_OK)
 662              		.loc 1 713 3 is_stmt 1 view .LVU187
 663              		.loc 1 713 6 is_stmt 0 view .LVU188
 664 002e 30B1     		cbz	r0, .L53
 714:Drivers/STM32F1xx_HAL_Driver/Src/stm32f1xx_hal_dac.c ****   {
 715:Drivers/STM32F1xx_HAL_Driver/Src/stm32f1xx_hal_dac.c ****     /* Update DAC state machine to error */
 716:Drivers/STM32F1xx_HAL_Driver/Src/stm32f1xx_hal_dac.c ****     hdac->State = HAL_DAC_STATE_ERROR;
 665              		.loc 1 716 5 is_stmt 1 view .LVU189
 666              		.loc 1 716 17 is_stmt 0 view .LVU190
 667 0030 0423     		movs	r3, #4
 668 0032 2371     		strb	r3, [r4, #4]
 669              	.L54:
 717:Drivers/STM32F1xx_HAL_Driver/Src/stm32f1xx_hal_dac.c ****   }
 718:Drivers/STM32F1xx_HAL_Driver/Src/stm32f1xx_hal_dac.c ****   else
 719:Drivers/STM32F1xx_HAL_Driver/Src/stm32f1xx_hal_dac.c ****   {
 720:Drivers/STM32F1xx_HAL_Driver/Src/stm32f1xx_hal_dac.c ****     /* Change DAC state */
 721:Drivers/STM32F1xx_HAL_Driver/Src/stm32f1xx_hal_dac.c ****     hdac->State = HAL_DAC_STATE_READY;
 722:Drivers/STM32F1xx_HAL_Driver/Src/stm32f1xx_hal_dac.c ****   }
 723:Drivers/STM32F1xx_HAL_Driver/Src/stm32f1xx_hal_dac.c **** 
 724:Drivers/STM32F1xx_HAL_Driver/Src/stm32f1xx_hal_dac.c ****   /* Return function status */
 725:Drivers/STM32F1xx_HAL_Driver/Src/stm32f1xx_hal_dac.c ****   return status;
 670              		.loc 1 725 3 is_stmt 1 view .LVU191
 726:Drivers/STM32F1xx_HAL_Driver/Src/stm32f1xx_hal_dac.c **** }
 671              		.loc 1 726 1 is_stmt 0 view .LVU192
 672 0034 70BD     		pop	{r4, r5, r6, pc}
 673              	.LVL47:
 674              	.L51:
 705:Drivers/STM32F1xx_HAL_Driver/Src/stm32f1xx_hal_dac.c **** #if defined(DAC_CR_DMAUDRIE2)
 675              		.loc 1 705 5 is_stmt 1 view .LVU193
 705:Drivers/STM32F1xx_HAL_Driver/Src/stm32f1xx_hal_dac.c **** #if defined(DAC_CR_DMAUDRIE2)
 676              		.loc 1 705 14 is_stmt 0 view .LVU194
 677 0036 E068     		ldr	r0, [r4, #12]
ARM GAS  /tmp/ccMmQP8f.s 			page 27


 678 0038 FFF7FEFF 		bl	HAL_DMA_Abort
 679              	.LVL48:
 705:Drivers/STM32F1xx_HAL_Driver/Src/stm32f1xx_hal_dac.c **** #if defined(DAC_CR_DMAUDRIE2)
 680              		.loc 1 705 14 view .LVU195
 681 003c F7E7     		b	.L52
 682              	.L53:
 721:Drivers/STM32F1xx_HAL_Driver/Src/stm32f1xx_hal_dac.c ****   }
 683              		.loc 1 721 5 is_stmt 1 view .LVU196
 721:Drivers/STM32F1xx_HAL_Driver/Src/stm32f1xx_hal_dac.c ****   }
 684              		.loc 1 721 17 is_stmt 0 view .LVU197
 685 003e 0123     		movs	r3, #1
 686 0040 2371     		strb	r3, [r4, #4]
 687 0042 F7E7     		b	.L54
 688              		.cfi_endproc
 689              	.LFE72:
 691              		.section	.text.HAL_DAC_IRQHandler,"ax",%progbits
 692              		.align	1
 693              		.global	HAL_DAC_IRQHandler
 694              		.syntax unified
 695              		.thumb
 696              		.thumb_func
 697              		.fpu softvfp
 699              	HAL_DAC_IRQHandler:
 700              	.LVL49:
 701              	.LFB73:
 727:Drivers/STM32F1xx_HAL_Driver/Src/stm32f1xx_hal_dac.c **** 
 728:Drivers/STM32F1xx_HAL_Driver/Src/stm32f1xx_hal_dac.c **** /**
 729:Drivers/STM32F1xx_HAL_Driver/Src/stm32f1xx_hal_dac.c ****   * @brief  Handles DAC interrupt request
 730:Drivers/STM32F1xx_HAL_Driver/Src/stm32f1xx_hal_dac.c ****   *         This function uses the interruption of DMA
 731:Drivers/STM32F1xx_HAL_Driver/Src/stm32f1xx_hal_dac.c ****   *         underrun.
 732:Drivers/STM32F1xx_HAL_Driver/Src/stm32f1xx_hal_dac.c ****   * @param  hdac pointer to a DAC_HandleTypeDef structure that contains
 733:Drivers/STM32F1xx_HAL_Driver/Src/stm32f1xx_hal_dac.c ****   *         the configuration information for the specified DAC.
 734:Drivers/STM32F1xx_HAL_Driver/Src/stm32f1xx_hal_dac.c ****   * @retval None
 735:Drivers/STM32F1xx_HAL_Driver/Src/stm32f1xx_hal_dac.c ****   */
 736:Drivers/STM32F1xx_HAL_Driver/Src/stm32f1xx_hal_dac.c **** void HAL_DAC_IRQHandler(DAC_HandleTypeDef *hdac)
 737:Drivers/STM32F1xx_HAL_Driver/Src/stm32f1xx_hal_dac.c **** {
 702              		.loc 1 737 1 is_stmt 1 view -0
 703              		.cfi_startproc
 704              		@ args = 0, pretend = 0, frame = 0
 705              		@ frame_needed = 0, uses_anonymous_args = 0
 706              		@ link register save eliminated.
 738:Drivers/STM32F1xx_HAL_Driver/Src/stm32f1xx_hal_dac.c **** #if defined(DAC_SR_DMAUDR1)
 739:Drivers/STM32F1xx_HAL_Driver/Src/stm32f1xx_hal_dac.c ****   if (__HAL_DAC_GET_IT_SOURCE(hdac, DAC_IT_DMAUDR1))
 740:Drivers/STM32F1xx_HAL_Driver/Src/stm32f1xx_hal_dac.c ****   {
 741:Drivers/STM32F1xx_HAL_Driver/Src/stm32f1xx_hal_dac.c ****     /* Check underrun flag of DAC channel 1 */
 742:Drivers/STM32F1xx_HAL_Driver/Src/stm32f1xx_hal_dac.c ****     if (__HAL_DAC_GET_FLAG(hdac, DAC_FLAG_DMAUDR1))
 743:Drivers/STM32F1xx_HAL_Driver/Src/stm32f1xx_hal_dac.c ****     {
 744:Drivers/STM32F1xx_HAL_Driver/Src/stm32f1xx_hal_dac.c ****       /* Change DAC state to error state */
 745:Drivers/STM32F1xx_HAL_Driver/Src/stm32f1xx_hal_dac.c ****       hdac->State = HAL_DAC_STATE_ERROR;
 746:Drivers/STM32F1xx_HAL_Driver/Src/stm32f1xx_hal_dac.c **** 
 747:Drivers/STM32F1xx_HAL_Driver/Src/stm32f1xx_hal_dac.c ****       /* Set DAC error code to chanel1 DMA underrun error */
 748:Drivers/STM32F1xx_HAL_Driver/Src/stm32f1xx_hal_dac.c ****       SET_BIT(hdac->ErrorCode, HAL_DAC_ERROR_DMAUNDERRUNCH1);
 749:Drivers/STM32F1xx_HAL_Driver/Src/stm32f1xx_hal_dac.c **** 
 750:Drivers/STM32F1xx_HAL_Driver/Src/stm32f1xx_hal_dac.c ****       /* Clear the underrun flag */
 751:Drivers/STM32F1xx_HAL_Driver/Src/stm32f1xx_hal_dac.c ****       __HAL_DAC_CLEAR_FLAG(hdac, DAC_FLAG_DMAUDR1);
 752:Drivers/STM32F1xx_HAL_Driver/Src/stm32f1xx_hal_dac.c **** 
 753:Drivers/STM32F1xx_HAL_Driver/Src/stm32f1xx_hal_dac.c ****       /* Disable the selected DAC channel1 DMA request */
ARM GAS  /tmp/ccMmQP8f.s 			page 28


 754:Drivers/STM32F1xx_HAL_Driver/Src/stm32f1xx_hal_dac.c ****       CLEAR_BIT(hdac->Instance->CR, DAC_CR_DMAEN1);
 755:Drivers/STM32F1xx_HAL_Driver/Src/stm32f1xx_hal_dac.c **** 
 756:Drivers/STM32F1xx_HAL_Driver/Src/stm32f1xx_hal_dac.c ****       /* Error callback */
 757:Drivers/STM32F1xx_HAL_Driver/Src/stm32f1xx_hal_dac.c **** #if (USE_HAL_DAC_REGISTER_CALLBACKS == 1)
 758:Drivers/STM32F1xx_HAL_Driver/Src/stm32f1xx_hal_dac.c ****       hdac->DMAUnderrunCallbackCh1(hdac);
 759:Drivers/STM32F1xx_HAL_Driver/Src/stm32f1xx_hal_dac.c **** #else
 760:Drivers/STM32F1xx_HAL_Driver/Src/stm32f1xx_hal_dac.c ****       HAL_DAC_DMAUnderrunCallbackCh1(hdac);
 761:Drivers/STM32F1xx_HAL_Driver/Src/stm32f1xx_hal_dac.c **** #endif /* USE_HAL_DAC_REGISTER_CALLBACKS */
 762:Drivers/STM32F1xx_HAL_Driver/Src/stm32f1xx_hal_dac.c ****     }
 763:Drivers/STM32F1xx_HAL_Driver/Src/stm32f1xx_hal_dac.c ****   }
 764:Drivers/STM32F1xx_HAL_Driver/Src/stm32f1xx_hal_dac.c **** #endif /* DAC_SR_DMAUDR1 */
 765:Drivers/STM32F1xx_HAL_Driver/Src/stm32f1xx_hal_dac.c **** 
 766:Drivers/STM32F1xx_HAL_Driver/Src/stm32f1xx_hal_dac.c **** #if defined(DAC_SR_DMAUDR2)
 767:Drivers/STM32F1xx_HAL_Driver/Src/stm32f1xx_hal_dac.c ****   if (__HAL_DAC_GET_IT_SOURCE(hdac, DAC_IT_DMAUDR2))
 768:Drivers/STM32F1xx_HAL_Driver/Src/stm32f1xx_hal_dac.c ****   {
 769:Drivers/STM32F1xx_HAL_Driver/Src/stm32f1xx_hal_dac.c ****     /* Check underrun flag of DAC channel 2 */
 770:Drivers/STM32F1xx_HAL_Driver/Src/stm32f1xx_hal_dac.c ****     if (__HAL_DAC_GET_FLAG(hdac, DAC_FLAG_DMAUDR2))
 771:Drivers/STM32F1xx_HAL_Driver/Src/stm32f1xx_hal_dac.c ****     {
 772:Drivers/STM32F1xx_HAL_Driver/Src/stm32f1xx_hal_dac.c ****       /* Change DAC state to error state */
 773:Drivers/STM32F1xx_HAL_Driver/Src/stm32f1xx_hal_dac.c ****       hdac->State = HAL_DAC_STATE_ERROR;
 774:Drivers/STM32F1xx_HAL_Driver/Src/stm32f1xx_hal_dac.c **** 
 775:Drivers/STM32F1xx_HAL_Driver/Src/stm32f1xx_hal_dac.c ****       /* Set DAC error code to channel2 DMA underrun error */
 776:Drivers/STM32F1xx_HAL_Driver/Src/stm32f1xx_hal_dac.c ****       SET_BIT(hdac->ErrorCode, HAL_DAC_ERROR_DMAUNDERRUNCH2);
 777:Drivers/STM32F1xx_HAL_Driver/Src/stm32f1xx_hal_dac.c **** 
 778:Drivers/STM32F1xx_HAL_Driver/Src/stm32f1xx_hal_dac.c ****       /* Clear the underrun flag */
 779:Drivers/STM32F1xx_HAL_Driver/Src/stm32f1xx_hal_dac.c ****       __HAL_DAC_CLEAR_FLAG(hdac, DAC_FLAG_DMAUDR2);
 780:Drivers/STM32F1xx_HAL_Driver/Src/stm32f1xx_hal_dac.c **** 
 781:Drivers/STM32F1xx_HAL_Driver/Src/stm32f1xx_hal_dac.c ****       /* Disable the selected DAC channel2 DMA request */
 782:Drivers/STM32F1xx_HAL_Driver/Src/stm32f1xx_hal_dac.c ****       CLEAR_BIT(hdac->Instance->CR, DAC_CR_DMAEN2);
 783:Drivers/STM32F1xx_HAL_Driver/Src/stm32f1xx_hal_dac.c **** 
 784:Drivers/STM32F1xx_HAL_Driver/Src/stm32f1xx_hal_dac.c ****       /* Error callback */
 785:Drivers/STM32F1xx_HAL_Driver/Src/stm32f1xx_hal_dac.c **** #if (USE_HAL_DAC_REGISTER_CALLBACKS == 1)
 786:Drivers/STM32F1xx_HAL_Driver/Src/stm32f1xx_hal_dac.c ****       hdac->DMAUnderrunCallbackCh2(hdac);
 787:Drivers/STM32F1xx_HAL_Driver/Src/stm32f1xx_hal_dac.c **** #else
 788:Drivers/STM32F1xx_HAL_Driver/Src/stm32f1xx_hal_dac.c ****       HAL_DACEx_DMAUnderrunCallbackCh2(hdac);
 789:Drivers/STM32F1xx_HAL_Driver/Src/stm32f1xx_hal_dac.c **** #endif /* USE_HAL_DAC_REGISTER_CALLBACKS */
 790:Drivers/STM32F1xx_HAL_Driver/Src/stm32f1xx_hal_dac.c ****     }
 791:Drivers/STM32F1xx_HAL_Driver/Src/stm32f1xx_hal_dac.c ****   }
 792:Drivers/STM32F1xx_HAL_Driver/Src/stm32f1xx_hal_dac.c **** #endif /* DAC_SR_DMAUDR2 */
 793:Drivers/STM32F1xx_HAL_Driver/Src/stm32f1xx_hal_dac.c **** }
 707              		.loc 1 793 1 view .LVU199
 708 0000 7047     		bx	lr
 709              		.cfi_endproc
 710              	.LFE73:
 712              		.section	.text.HAL_DAC_SetValue,"ax",%progbits
 713              		.align	1
 714              		.global	HAL_DAC_SetValue
 715              		.syntax unified
 716              		.thumb
 717              		.thumb_func
 718              		.fpu softvfp
 720              	HAL_DAC_SetValue:
 721              	.LVL50:
 722              	.LFB74:
 794:Drivers/STM32F1xx_HAL_Driver/Src/stm32f1xx_hal_dac.c **** 
 795:Drivers/STM32F1xx_HAL_Driver/Src/stm32f1xx_hal_dac.c **** /**
 796:Drivers/STM32F1xx_HAL_Driver/Src/stm32f1xx_hal_dac.c ****   * @brief  Set the specified data holding register value for DAC channel.
ARM GAS  /tmp/ccMmQP8f.s 			page 29


 797:Drivers/STM32F1xx_HAL_Driver/Src/stm32f1xx_hal_dac.c ****   * @param  hdac pointer to a DAC_HandleTypeDef structure that contains
 798:Drivers/STM32F1xx_HAL_Driver/Src/stm32f1xx_hal_dac.c ****   *         the configuration information for the specified DAC.
 799:Drivers/STM32F1xx_HAL_Driver/Src/stm32f1xx_hal_dac.c ****   * @param  Channel The selected DAC channel.
 800:Drivers/STM32F1xx_HAL_Driver/Src/stm32f1xx_hal_dac.c ****   *          This parameter can be one of the following values:
 801:Drivers/STM32F1xx_HAL_Driver/Src/stm32f1xx_hal_dac.c ****   *            @arg DAC_CHANNEL_1: DAC Channel1 selected
 802:Drivers/STM32F1xx_HAL_Driver/Src/stm32f1xx_hal_dac.c ****   *            @arg DAC_CHANNEL_2: DAC Channel2 selected
 803:Drivers/STM32F1xx_HAL_Driver/Src/stm32f1xx_hal_dac.c ****   * @param  Alignment Specifies the data alignment.
 804:Drivers/STM32F1xx_HAL_Driver/Src/stm32f1xx_hal_dac.c ****   *          This parameter can be one of the following values:
 805:Drivers/STM32F1xx_HAL_Driver/Src/stm32f1xx_hal_dac.c ****   *            @arg DAC_ALIGN_8B_R: 8bit right data alignment selected
 806:Drivers/STM32F1xx_HAL_Driver/Src/stm32f1xx_hal_dac.c ****   *            @arg DAC_ALIGN_12B_L: 12bit left data alignment selected
 807:Drivers/STM32F1xx_HAL_Driver/Src/stm32f1xx_hal_dac.c ****   *            @arg DAC_ALIGN_12B_R: 12bit right data alignment selected
 808:Drivers/STM32F1xx_HAL_Driver/Src/stm32f1xx_hal_dac.c ****   * @param  Data Data to be loaded in the selected data holding register.
 809:Drivers/STM32F1xx_HAL_Driver/Src/stm32f1xx_hal_dac.c ****   * @retval HAL status
 810:Drivers/STM32F1xx_HAL_Driver/Src/stm32f1xx_hal_dac.c ****   */
 811:Drivers/STM32F1xx_HAL_Driver/Src/stm32f1xx_hal_dac.c **** HAL_StatusTypeDef HAL_DAC_SetValue(DAC_HandleTypeDef *hdac, uint32_t Channel, uint32_t Alignment, u
 812:Drivers/STM32F1xx_HAL_Driver/Src/stm32f1xx_hal_dac.c **** {
 723              		.loc 1 812 1 view -0
 724              		.cfi_startproc
 725              		@ args = 0, pretend = 0, frame = 8
 726              		@ frame_needed = 0, uses_anonymous_args = 0
 727              		@ link register save eliminated.
 728              		.loc 1 812 1 is_stmt 0 view .LVU201
 729 0000 10B4     		push	{r4}
 730              	.LCFI12:
 731              		.cfi_def_cfa_offset 4
 732              		.cfi_offset 4, -4
 733 0002 83B0     		sub	sp, sp, #12
 734              	.LCFI13:
 735              		.cfi_def_cfa_offset 16
 813:Drivers/STM32F1xx_HAL_Driver/Src/stm32f1xx_hal_dac.c ****   __IO uint32_t tmp = 0;
 736              		.loc 1 813 3 is_stmt 1 view .LVU202
 737              		.loc 1 813 17 is_stmt 0 view .LVU203
 738 0004 0024     		movs	r4, #0
 739 0006 0194     		str	r4, [sp, #4]
 814:Drivers/STM32F1xx_HAL_Driver/Src/stm32f1xx_hal_dac.c **** 
 815:Drivers/STM32F1xx_HAL_Driver/Src/stm32f1xx_hal_dac.c ****   /* Check the parameters */
 816:Drivers/STM32F1xx_HAL_Driver/Src/stm32f1xx_hal_dac.c ****   assert_param(IS_DAC_CHANNEL(Channel));
 740              		.loc 1 816 3 is_stmt 1 view .LVU204
 817:Drivers/STM32F1xx_HAL_Driver/Src/stm32f1xx_hal_dac.c ****   assert_param(IS_DAC_ALIGN(Alignment));
 741              		.loc 1 817 3 view .LVU205
 818:Drivers/STM32F1xx_HAL_Driver/Src/stm32f1xx_hal_dac.c ****   assert_param(IS_DAC_DATA(Data));
 742              		.loc 1 818 3 view .LVU206
 819:Drivers/STM32F1xx_HAL_Driver/Src/stm32f1xx_hal_dac.c **** 
 820:Drivers/STM32F1xx_HAL_Driver/Src/stm32f1xx_hal_dac.c ****   tmp = (uint32_t)hdac->Instance;
 743              		.loc 1 820 3 view .LVU207
 744              		.loc 1 820 23 is_stmt 0 view .LVU208
 745 0008 0068     		ldr	r0, [r0]
 746              	.LVL51:
 747              		.loc 1 820 7 view .LVU209
 748 000a 0190     		str	r0, [sp, #4]
 821:Drivers/STM32F1xx_HAL_Driver/Src/stm32f1xx_hal_dac.c ****   if (Channel == DAC_CHANNEL_1)
 749              		.loc 1 821 3 is_stmt 1 view .LVU210
 750              		.loc 1 821 6 is_stmt 0 view .LVU211
 751 000c 49B9     		cbnz	r1, .L58
 822:Drivers/STM32F1xx_HAL_Driver/Src/stm32f1xx_hal_dac.c ****   {
 823:Drivers/STM32F1xx_HAL_Driver/Src/stm32f1xx_hal_dac.c ****     tmp += DAC_DHR12R1_ALIGNMENT(Alignment);
 752              		.loc 1 823 5 is_stmt 1 view .LVU212
ARM GAS  /tmp/ccMmQP8f.s 			page 30


 753              		.loc 1 823 9 is_stmt 0 view .LVU213
 754 000e 0199     		ldr	r1, [sp, #4]
 755              	.LVL52:
 756              		.loc 1 823 9 view .LVU214
 757 0010 0A44     		add	r2, r2, r1
 758              	.LVL53:
 759              		.loc 1 823 9 view .LVU215
 760 0012 0832     		adds	r2, r2, #8
 761 0014 0192     		str	r2, [sp, #4]
 762              	.L59:
 824:Drivers/STM32F1xx_HAL_Driver/Src/stm32f1xx_hal_dac.c ****   }
 825:Drivers/STM32F1xx_HAL_Driver/Src/stm32f1xx_hal_dac.c ****   else
 826:Drivers/STM32F1xx_HAL_Driver/Src/stm32f1xx_hal_dac.c ****   {
 827:Drivers/STM32F1xx_HAL_Driver/Src/stm32f1xx_hal_dac.c ****     tmp += DAC_DHR12R2_ALIGNMENT(Alignment);
 828:Drivers/STM32F1xx_HAL_Driver/Src/stm32f1xx_hal_dac.c ****   }
 829:Drivers/STM32F1xx_HAL_Driver/Src/stm32f1xx_hal_dac.c **** 
 830:Drivers/STM32F1xx_HAL_Driver/Src/stm32f1xx_hal_dac.c ****   /* Set the DAC channel selected data holding register */
 831:Drivers/STM32F1xx_HAL_Driver/Src/stm32f1xx_hal_dac.c ****   *(__IO uint32_t *) tmp = Data;
 763              		.loc 1 831 3 is_stmt 1 view .LVU216
 764              		.loc 1 831 4 is_stmt 0 view .LVU217
 765 0016 019A     		ldr	r2, [sp, #4]
 766              		.loc 1 831 26 view .LVU218
 767 0018 1360     		str	r3, [r2]
 832:Drivers/STM32F1xx_HAL_Driver/Src/stm32f1xx_hal_dac.c **** 
 833:Drivers/STM32F1xx_HAL_Driver/Src/stm32f1xx_hal_dac.c ****   /* Return function status */
 834:Drivers/STM32F1xx_HAL_Driver/Src/stm32f1xx_hal_dac.c ****   return HAL_OK;
 768              		.loc 1 834 3 is_stmt 1 view .LVU219
 835:Drivers/STM32F1xx_HAL_Driver/Src/stm32f1xx_hal_dac.c **** }
 769              		.loc 1 835 1 is_stmt 0 view .LVU220
 770 001a 0020     		movs	r0, #0
 771 001c 03B0     		add	sp, sp, #12
 772              	.LCFI14:
 773              		.cfi_remember_state
 774              		.cfi_def_cfa_offset 4
 775              		@ sp needed
 776 001e 10BC     		pop	{r4}
 777              	.LCFI15:
 778              		.cfi_restore 4
 779              		.cfi_def_cfa_offset 0
 780 0020 7047     		bx	lr
 781              	.LVL54:
 782              	.L58:
 783              	.LCFI16:
 784              		.cfi_restore_state
 827:Drivers/STM32F1xx_HAL_Driver/Src/stm32f1xx_hal_dac.c ****   }
 785              		.loc 1 827 5 is_stmt 1 view .LVU221
 827:Drivers/STM32F1xx_HAL_Driver/Src/stm32f1xx_hal_dac.c ****   }
 786              		.loc 1 827 9 is_stmt 0 view .LVU222
 787 0022 0199     		ldr	r1, [sp, #4]
 788              	.LVL55:
 827:Drivers/STM32F1xx_HAL_Driver/Src/stm32f1xx_hal_dac.c ****   }
 789              		.loc 1 827 9 view .LVU223
 790 0024 0A44     		add	r2, r2, r1
 791              	.LVL56:
 827:Drivers/STM32F1xx_HAL_Driver/Src/stm32f1xx_hal_dac.c ****   }
 792              		.loc 1 827 9 view .LVU224
 793 0026 1432     		adds	r2, r2, #20
ARM GAS  /tmp/ccMmQP8f.s 			page 31


 794 0028 0192     		str	r2, [sp, #4]
 795 002a F4E7     		b	.L59
 796              		.cfi_endproc
 797              	.LFE74:
 799              		.section	.text.HAL_DAC_ConvCpltCallbackCh1,"ax",%progbits
 800              		.align	1
 801              		.weak	HAL_DAC_ConvCpltCallbackCh1
 802              		.syntax unified
 803              		.thumb
 804              		.thumb_func
 805              		.fpu softvfp
 807              	HAL_DAC_ConvCpltCallbackCh1:
 808              	.LVL57:
 809              	.LFB75:
 836:Drivers/STM32F1xx_HAL_Driver/Src/stm32f1xx_hal_dac.c **** 
 837:Drivers/STM32F1xx_HAL_Driver/Src/stm32f1xx_hal_dac.c **** /**
 838:Drivers/STM32F1xx_HAL_Driver/Src/stm32f1xx_hal_dac.c ****   * @brief  Conversion complete callback in non-blocking mode for Channel1
 839:Drivers/STM32F1xx_HAL_Driver/Src/stm32f1xx_hal_dac.c ****   * @param  hdac pointer to a DAC_HandleTypeDef structure that contains
 840:Drivers/STM32F1xx_HAL_Driver/Src/stm32f1xx_hal_dac.c ****   *         the configuration information for the specified DAC.
 841:Drivers/STM32F1xx_HAL_Driver/Src/stm32f1xx_hal_dac.c ****   * @retval None
 842:Drivers/STM32F1xx_HAL_Driver/Src/stm32f1xx_hal_dac.c ****   */
 843:Drivers/STM32F1xx_HAL_Driver/Src/stm32f1xx_hal_dac.c **** __weak void HAL_DAC_ConvCpltCallbackCh1(DAC_HandleTypeDef *hdac)
 844:Drivers/STM32F1xx_HAL_Driver/Src/stm32f1xx_hal_dac.c **** {
 810              		.loc 1 844 1 is_stmt 1 view -0
 811              		.cfi_startproc
 812              		@ args = 0, pretend = 0, frame = 0
 813              		@ frame_needed = 0, uses_anonymous_args = 0
 814              		@ link register save eliminated.
 845:Drivers/STM32F1xx_HAL_Driver/Src/stm32f1xx_hal_dac.c ****   /* Prevent unused argument(s) compilation warning */
 846:Drivers/STM32F1xx_HAL_Driver/Src/stm32f1xx_hal_dac.c ****   UNUSED(hdac);
 815              		.loc 1 846 3 view .LVU226
 847:Drivers/STM32F1xx_HAL_Driver/Src/stm32f1xx_hal_dac.c **** 
 848:Drivers/STM32F1xx_HAL_Driver/Src/stm32f1xx_hal_dac.c ****   /* NOTE : This function should not be modified, when the callback is needed,
 849:Drivers/STM32F1xx_HAL_Driver/Src/stm32f1xx_hal_dac.c ****             the HAL_DAC_ConvCpltCallbackCh1 could be implemented in the user file
 850:Drivers/STM32F1xx_HAL_Driver/Src/stm32f1xx_hal_dac.c ****    */
 851:Drivers/STM32F1xx_HAL_Driver/Src/stm32f1xx_hal_dac.c **** }
 816              		.loc 1 851 1 is_stmt 0 view .LVU227
 817 0000 7047     		bx	lr
 818              		.cfi_endproc
 819              	.LFE75:
 821              		.section	.text.DAC_DMAConvCpltCh1,"ax",%progbits
 822              		.align	1
 823              		.global	DAC_DMAConvCpltCh1
 824              		.syntax unified
 825              		.thumb
 826              		.thumb_func
 827              		.fpu softvfp
 829              	DAC_DMAConvCpltCh1:
 830              	.LVL58:
 831              	.LFB83:
 852:Drivers/STM32F1xx_HAL_Driver/Src/stm32f1xx_hal_dac.c **** 
 853:Drivers/STM32F1xx_HAL_Driver/Src/stm32f1xx_hal_dac.c **** /**
 854:Drivers/STM32F1xx_HAL_Driver/Src/stm32f1xx_hal_dac.c ****   * @brief  Conversion half DMA transfer callback in non-blocking mode for Channel1
 855:Drivers/STM32F1xx_HAL_Driver/Src/stm32f1xx_hal_dac.c ****   * @param  hdac pointer to a DAC_HandleTypeDef structure that contains
 856:Drivers/STM32F1xx_HAL_Driver/Src/stm32f1xx_hal_dac.c ****   *         the configuration information for the specified DAC.
 857:Drivers/STM32F1xx_HAL_Driver/Src/stm32f1xx_hal_dac.c ****   * @retval None
 858:Drivers/STM32F1xx_HAL_Driver/Src/stm32f1xx_hal_dac.c ****   */
ARM GAS  /tmp/ccMmQP8f.s 			page 32


 859:Drivers/STM32F1xx_HAL_Driver/Src/stm32f1xx_hal_dac.c **** __weak void HAL_DAC_ConvHalfCpltCallbackCh1(DAC_HandleTypeDef *hdac)
 860:Drivers/STM32F1xx_HAL_Driver/Src/stm32f1xx_hal_dac.c **** {
 861:Drivers/STM32F1xx_HAL_Driver/Src/stm32f1xx_hal_dac.c ****   /* Prevent unused argument(s) compilation warning */
 862:Drivers/STM32F1xx_HAL_Driver/Src/stm32f1xx_hal_dac.c ****   UNUSED(hdac);
 863:Drivers/STM32F1xx_HAL_Driver/Src/stm32f1xx_hal_dac.c **** 
 864:Drivers/STM32F1xx_HAL_Driver/Src/stm32f1xx_hal_dac.c ****   /* NOTE : This function should not be modified, when the callback is needed,
 865:Drivers/STM32F1xx_HAL_Driver/Src/stm32f1xx_hal_dac.c ****             the HAL_DAC_ConvHalfCpltCallbackCh1 could be implemented in the user file
 866:Drivers/STM32F1xx_HAL_Driver/Src/stm32f1xx_hal_dac.c ****    */
 867:Drivers/STM32F1xx_HAL_Driver/Src/stm32f1xx_hal_dac.c **** }
 868:Drivers/STM32F1xx_HAL_Driver/Src/stm32f1xx_hal_dac.c **** 
 869:Drivers/STM32F1xx_HAL_Driver/Src/stm32f1xx_hal_dac.c **** /**
 870:Drivers/STM32F1xx_HAL_Driver/Src/stm32f1xx_hal_dac.c ****   * @brief  Error DAC callback for Channel1.
 871:Drivers/STM32F1xx_HAL_Driver/Src/stm32f1xx_hal_dac.c ****   * @param  hdac pointer to a DAC_HandleTypeDef structure that contains
 872:Drivers/STM32F1xx_HAL_Driver/Src/stm32f1xx_hal_dac.c ****   *         the configuration information for the specified DAC.
 873:Drivers/STM32F1xx_HAL_Driver/Src/stm32f1xx_hal_dac.c ****   * @retval None
 874:Drivers/STM32F1xx_HAL_Driver/Src/stm32f1xx_hal_dac.c ****   */
 875:Drivers/STM32F1xx_HAL_Driver/Src/stm32f1xx_hal_dac.c **** __weak void HAL_DAC_ErrorCallbackCh1(DAC_HandleTypeDef *hdac)
 876:Drivers/STM32F1xx_HAL_Driver/Src/stm32f1xx_hal_dac.c **** {
 877:Drivers/STM32F1xx_HAL_Driver/Src/stm32f1xx_hal_dac.c ****   /* Prevent unused argument(s) compilation warning */
 878:Drivers/STM32F1xx_HAL_Driver/Src/stm32f1xx_hal_dac.c ****   UNUSED(hdac);
 879:Drivers/STM32F1xx_HAL_Driver/Src/stm32f1xx_hal_dac.c **** 
 880:Drivers/STM32F1xx_HAL_Driver/Src/stm32f1xx_hal_dac.c ****   /* NOTE : This function should not be modified, when the callback is needed,
 881:Drivers/STM32F1xx_HAL_Driver/Src/stm32f1xx_hal_dac.c ****             the HAL_DAC_ErrorCallbackCh1 could be implemented in the user file
 882:Drivers/STM32F1xx_HAL_Driver/Src/stm32f1xx_hal_dac.c ****    */
 883:Drivers/STM32F1xx_HAL_Driver/Src/stm32f1xx_hal_dac.c **** }
 884:Drivers/STM32F1xx_HAL_Driver/Src/stm32f1xx_hal_dac.c **** 
 885:Drivers/STM32F1xx_HAL_Driver/Src/stm32f1xx_hal_dac.c **** /**
 886:Drivers/STM32F1xx_HAL_Driver/Src/stm32f1xx_hal_dac.c ****   * @brief  DMA underrun DAC callback for channel1.
 887:Drivers/STM32F1xx_HAL_Driver/Src/stm32f1xx_hal_dac.c ****   * @param  hdac pointer to a DAC_HandleTypeDef structure that contains
 888:Drivers/STM32F1xx_HAL_Driver/Src/stm32f1xx_hal_dac.c ****   *         the configuration information for the specified DAC.
 889:Drivers/STM32F1xx_HAL_Driver/Src/stm32f1xx_hal_dac.c ****   * @retval None
 890:Drivers/STM32F1xx_HAL_Driver/Src/stm32f1xx_hal_dac.c ****   */
 891:Drivers/STM32F1xx_HAL_Driver/Src/stm32f1xx_hal_dac.c **** __weak void HAL_DAC_DMAUnderrunCallbackCh1(DAC_HandleTypeDef *hdac)
 892:Drivers/STM32F1xx_HAL_Driver/Src/stm32f1xx_hal_dac.c **** {
 893:Drivers/STM32F1xx_HAL_Driver/Src/stm32f1xx_hal_dac.c ****   /* Prevent unused argument(s) compilation warning */
 894:Drivers/STM32F1xx_HAL_Driver/Src/stm32f1xx_hal_dac.c ****   UNUSED(hdac);
 895:Drivers/STM32F1xx_HAL_Driver/Src/stm32f1xx_hal_dac.c **** 
 896:Drivers/STM32F1xx_HAL_Driver/Src/stm32f1xx_hal_dac.c ****   /* NOTE : This function should not be modified, when the callback is needed,
 897:Drivers/STM32F1xx_HAL_Driver/Src/stm32f1xx_hal_dac.c ****             the HAL_DAC_DMAUnderrunCallbackCh1 could be implemented in the user file
 898:Drivers/STM32F1xx_HAL_Driver/Src/stm32f1xx_hal_dac.c ****    */
 899:Drivers/STM32F1xx_HAL_Driver/Src/stm32f1xx_hal_dac.c **** }
 900:Drivers/STM32F1xx_HAL_Driver/Src/stm32f1xx_hal_dac.c **** 
 901:Drivers/STM32F1xx_HAL_Driver/Src/stm32f1xx_hal_dac.c **** /**
 902:Drivers/STM32F1xx_HAL_Driver/Src/stm32f1xx_hal_dac.c ****   * @}
 903:Drivers/STM32F1xx_HAL_Driver/Src/stm32f1xx_hal_dac.c ****   */
 904:Drivers/STM32F1xx_HAL_Driver/Src/stm32f1xx_hal_dac.c **** 
 905:Drivers/STM32F1xx_HAL_Driver/Src/stm32f1xx_hal_dac.c **** /** @defgroup DAC_Exported_Functions_Group3 Peripheral Control functions
 906:Drivers/STM32F1xx_HAL_Driver/Src/stm32f1xx_hal_dac.c ****   *  @brief    Peripheral Control functions
 907:Drivers/STM32F1xx_HAL_Driver/Src/stm32f1xx_hal_dac.c ****   *
 908:Drivers/STM32F1xx_HAL_Driver/Src/stm32f1xx_hal_dac.c **** @verbatim
 909:Drivers/STM32F1xx_HAL_Driver/Src/stm32f1xx_hal_dac.c ****   ==============================================================================
 910:Drivers/STM32F1xx_HAL_Driver/Src/stm32f1xx_hal_dac.c ****              ##### Peripheral Control functions #####
 911:Drivers/STM32F1xx_HAL_Driver/Src/stm32f1xx_hal_dac.c ****   ==============================================================================
 912:Drivers/STM32F1xx_HAL_Driver/Src/stm32f1xx_hal_dac.c ****     [..]  This section provides functions allowing to:
 913:Drivers/STM32F1xx_HAL_Driver/Src/stm32f1xx_hal_dac.c ****       (+) Configure channels.
 914:Drivers/STM32F1xx_HAL_Driver/Src/stm32f1xx_hal_dac.c ****       (+) Set the specified data holding register value for DAC channel.
 915:Drivers/STM32F1xx_HAL_Driver/Src/stm32f1xx_hal_dac.c **** 
ARM GAS  /tmp/ccMmQP8f.s 			page 33


 916:Drivers/STM32F1xx_HAL_Driver/Src/stm32f1xx_hal_dac.c **** @endverbatim
 917:Drivers/STM32F1xx_HAL_Driver/Src/stm32f1xx_hal_dac.c ****   * @{
 918:Drivers/STM32F1xx_HAL_Driver/Src/stm32f1xx_hal_dac.c ****   */
 919:Drivers/STM32F1xx_HAL_Driver/Src/stm32f1xx_hal_dac.c **** 
 920:Drivers/STM32F1xx_HAL_Driver/Src/stm32f1xx_hal_dac.c **** /**
 921:Drivers/STM32F1xx_HAL_Driver/Src/stm32f1xx_hal_dac.c ****   * @brief  Returns the last data output value of the selected DAC channel.
 922:Drivers/STM32F1xx_HAL_Driver/Src/stm32f1xx_hal_dac.c ****   * @param  hdac pointer to a DAC_HandleTypeDef structure that contains
 923:Drivers/STM32F1xx_HAL_Driver/Src/stm32f1xx_hal_dac.c ****   *         the configuration information for the specified DAC.
 924:Drivers/STM32F1xx_HAL_Driver/Src/stm32f1xx_hal_dac.c ****   * @param  Channel The selected DAC channel.
 925:Drivers/STM32F1xx_HAL_Driver/Src/stm32f1xx_hal_dac.c ****   *          This parameter can be one of the following values:
 926:Drivers/STM32F1xx_HAL_Driver/Src/stm32f1xx_hal_dac.c ****   *            @arg DAC_CHANNEL_1: DAC Channel1 selected
 927:Drivers/STM32F1xx_HAL_Driver/Src/stm32f1xx_hal_dac.c ****   *            @arg DAC_CHANNEL_2: DAC Channel2 selected
 928:Drivers/STM32F1xx_HAL_Driver/Src/stm32f1xx_hal_dac.c ****   * @retval The selected DAC channel data output value.
 929:Drivers/STM32F1xx_HAL_Driver/Src/stm32f1xx_hal_dac.c ****   */
 930:Drivers/STM32F1xx_HAL_Driver/Src/stm32f1xx_hal_dac.c **** uint32_t HAL_DAC_GetValue(DAC_HandleTypeDef *hdac, uint32_t Channel)
 931:Drivers/STM32F1xx_HAL_Driver/Src/stm32f1xx_hal_dac.c **** {
 932:Drivers/STM32F1xx_HAL_Driver/Src/stm32f1xx_hal_dac.c ****   /* Check the parameters */
 933:Drivers/STM32F1xx_HAL_Driver/Src/stm32f1xx_hal_dac.c ****   assert_param(IS_DAC_CHANNEL(Channel));
 934:Drivers/STM32F1xx_HAL_Driver/Src/stm32f1xx_hal_dac.c **** 
 935:Drivers/STM32F1xx_HAL_Driver/Src/stm32f1xx_hal_dac.c ****   /* Returns the DAC channel data output register value */
 936:Drivers/STM32F1xx_HAL_Driver/Src/stm32f1xx_hal_dac.c ****   if (Channel == DAC_CHANNEL_1)
 937:Drivers/STM32F1xx_HAL_Driver/Src/stm32f1xx_hal_dac.c ****   {
 938:Drivers/STM32F1xx_HAL_Driver/Src/stm32f1xx_hal_dac.c ****     return hdac->Instance->DOR1;
 939:Drivers/STM32F1xx_HAL_Driver/Src/stm32f1xx_hal_dac.c ****   }
 940:Drivers/STM32F1xx_HAL_Driver/Src/stm32f1xx_hal_dac.c ****   else
 941:Drivers/STM32F1xx_HAL_Driver/Src/stm32f1xx_hal_dac.c ****   {
 942:Drivers/STM32F1xx_HAL_Driver/Src/stm32f1xx_hal_dac.c ****     return hdac->Instance->DOR2;
 943:Drivers/STM32F1xx_HAL_Driver/Src/stm32f1xx_hal_dac.c ****   }
 944:Drivers/STM32F1xx_HAL_Driver/Src/stm32f1xx_hal_dac.c **** }
 945:Drivers/STM32F1xx_HAL_Driver/Src/stm32f1xx_hal_dac.c **** 
 946:Drivers/STM32F1xx_HAL_Driver/Src/stm32f1xx_hal_dac.c **** /**
 947:Drivers/STM32F1xx_HAL_Driver/Src/stm32f1xx_hal_dac.c ****   * @brief  Configures the selected DAC channel.
 948:Drivers/STM32F1xx_HAL_Driver/Src/stm32f1xx_hal_dac.c ****   * @param  hdac pointer to a DAC_HandleTypeDef structure that contains
 949:Drivers/STM32F1xx_HAL_Driver/Src/stm32f1xx_hal_dac.c ****   *         the configuration information for the specified DAC.
 950:Drivers/STM32F1xx_HAL_Driver/Src/stm32f1xx_hal_dac.c ****   * @param  sConfig DAC configuration structure.
 951:Drivers/STM32F1xx_HAL_Driver/Src/stm32f1xx_hal_dac.c ****   * @param  Channel The selected DAC channel.
 952:Drivers/STM32F1xx_HAL_Driver/Src/stm32f1xx_hal_dac.c ****   *          This parameter can be one of the following values:
 953:Drivers/STM32F1xx_HAL_Driver/Src/stm32f1xx_hal_dac.c ****   *            @arg DAC_CHANNEL_1: DAC Channel1 selected
 954:Drivers/STM32F1xx_HAL_Driver/Src/stm32f1xx_hal_dac.c ****   *            @arg DAC_CHANNEL_2: DAC Channel2 selected
 955:Drivers/STM32F1xx_HAL_Driver/Src/stm32f1xx_hal_dac.c ****   * @retval HAL status
 956:Drivers/STM32F1xx_HAL_Driver/Src/stm32f1xx_hal_dac.c ****   */
 957:Drivers/STM32F1xx_HAL_Driver/Src/stm32f1xx_hal_dac.c **** HAL_StatusTypeDef HAL_DAC_ConfigChannel(DAC_HandleTypeDef *hdac, DAC_ChannelConfTypeDef *sConfig, u
 958:Drivers/STM32F1xx_HAL_Driver/Src/stm32f1xx_hal_dac.c **** {
 959:Drivers/STM32F1xx_HAL_Driver/Src/stm32f1xx_hal_dac.c ****   uint32_t tmpreg1;
 960:Drivers/STM32F1xx_HAL_Driver/Src/stm32f1xx_hal_dac.c ****   uint32_t tmpreg2;
 961:Drivers/STM32F1xx_HAL_Driver/Src/stm32f1xx_hal_dac.c **** 
 962:Drivers/STM32F1xx_HAL_Driver/Src/stm32f1xx_hal_dac.c ****   /* Check the DAC parameters */
 963:Drivers/STM32F1xx_HAL_Driver/Src/stm32f1xx_hal_dac.c ****   assert_param(IS_DAC_TRIGGER(sConfig->DAC_Trigger));
 964:Drivers/STM32F1xx_HAL_Driver/Src/stm32f1xx_hal_dac.c ****   assert_param(IS_DAC_OUTPUT_BUFFER_STATE(sConfig->DAC_OutputBuffer));
 965:Drivers/STM32F1xx_HAL_Driver/Src/stm32f1xx_hal_dac.c ****   assert_param(IS_DAC_CHANNEL(Channel));
 966:Drivers/STM32F1xx_HAL_Driver/Src/stm32f1xx_hal_dac.c **** 
 967:Drivers/STM32F1xx_HAL_Driver/Src/stm32f1xx_hal_dac.c ****   /* Process locked */
 968:Drivers/STM32F1xx_HAL_Driver/Src/stm32f1xx_hal_dac.c ****   __HAL_LOCK(hdac);
 969:Drivers/STM32F1xx_HAL_Driver/Src/stm32f1xx_hal_dac.c **** 
 970:Drivers/STM32F1xx_HAL_Driver/Src/stm32f1xx_hal_dac.c ****   /* Change DAC state */
 971:Drivers/STM32F1xx_HAL_Driver/Src/stm32f1xx_hal_dac.c ****   hdac->State = HAL_DAC_STATE_BUSY;
 972:Drivers/STM32F1xx_HAL_Driver/Src/stm32f1xx_hal_dac.c **** 
ARM GAS  /tmp/ccMmQP8f.s 			page 34


 973:Drivers/STM32F1xx_HAL_Driver/Src/stm32f1xx_hal_dac.c ****   /* Get the DAC CR value */
 974:Drivers/STM32F1xx_HAL_Driver/Src/stm32f1xx_hal_dac.c ****   tmpreg1 = hdac->Instance->CR;
 975:Drivers/STM32F1xx_HAL_Driver/Src/stm32f1xx_hal_dac.c ****   /* Clear BOFFx, TENx, TSELx, WAVEx and MAMPx bits */
 976:Drivers/STM32F1xx_HAL_Driver/Src/stm32f1xx_hal_dac.c ****   tmpreg1 &= ~(((uint32_t)(DAC_CR_MAMP1 | DAC_CR_WAVE1 | DAC_CR_TSEL1 | DAC_CR_TEN1 | DAC_CR_BOFF1)
 977:Drivers/STM32F1xx_HAL_Driver/Src/stm32f1xx_hal_dac.c ****   /* Configure for the selected DAC channel: buffer output, trigger */
 978:Drivers/STM32F1xx_HAL_Driver/Src/stm32f1xx_hal_dac.c ****   /* Set TSELx and TENx bits according to DAC_Trigger value */
 979:Drivers/STM32F1xx_HAL_Driver/Src/stm32f1xx_hal_dac.c ****   /* Set BOFFx bit according to DAC_OutputBuffer value */   
 980:Drivers/STM32F1xx_HAL_Driver/Src/stm32f1xx_hal_dac.c ****   tmpreg2 = (sConfig->DAC_Trigger | sConfig->DAC_OutputBuffer);
 981:Drivers/STM32F1xx_HAL_Driver/Src/stm32f1xx_hal_dac.c ****   /* Calculate CR register value depending on DAC_Channel */
 982:Drivers/STM32F1xx_HAL_Driver/Src/stm32f1xx_hal_dac.c ****   tmpreg1 |= tmpreg2 << (Channel & 0x10UL);
 983:Drivers/STM32F1xx_HAL_Driver/Src/stm32f1xx_hal_dac.c ****   /* Write to DAC CR */
 984:Drivers/STM32F1xx_HAL_Driver/Src/stm32f1xx_hal_dac.c ****   hdac->Instance->CR = tmpreg1;
 985:Drivers/STM32F1xx_HAL_Driver/Src/stm32f1xx_hal_dac.c ****   /* Disable wave generation */
 986:Drivers/STM32F1xx_HAL_Driver/Src/stm32f1xx_hal_dac.c ****   CLEAR_BIT(hdac->Instance->CR, (DAC_CR_WAVE1 << (Channel & 0x10UL)));
 987:Drivers/STM32F1xx_HAL_Driver/Src/stm32f1xx_hal_dac.c ****   /* Disable wave generation */
 988:Drivers/STM32F1xx_HAL_Driver/Src/stm32f1xx_hal_dac.c ****   hdac->Instance->CR &= ~(DAC_CR_WAVE1 << (Channel & 0x10UL));
 989:Drivers/STM32F1xx_HAL_Driver/Src/stm32f1xx_hal_dac.c **** 
 990:Drivers/STM32F1xx_HAL_Driver/Src/stm32f1xx_hal_dac.c ****   /* Change DAC state */
 991:Drivers/STM32F1xx_HAL_Driver/Src/stm32f1xx_hal_dac.c ****   hdac->State = HAL_DAC_STATE_READY;
 992:Drivers/STM32F1xx_HAL_Driver/Src/stm32f1xx_hal_dac.c **** 
 993:Drivers/STM32F1xx_HAL_Driver/Src/stm32f1xx_hal_dac.c ****   /* Process unlocked */
 994:Drivers/STM32F1xx_HAL_Driver/Src/stm32f1xx_hal_dac.c ****   __HAL_UNLOCK(hdac);
 995:Drivers/STM32F1xx_HAL_Driver/Src/stm32f1xx_hal_dac.c **** 
 996:Drivers/STM32F1xx_HAL_Driver/Src/stm32f1xx_hal_dac.c ****   /* Return function status */
 997:Drivers/STM32F1xx_HAL_Driver/Src/stm32f1xx_hal_dac.c ****   return HAL_OK;
 998:Drivers/STM32F1xx_HAL_Driver/Src/stm32f1xx_hal_dac.c **** }
 999:Drivers/STM32F1xx_HAL_Driver/Src/stm32f1xx_hal_dac.c **** 
1000:Drivers/STM32F1xx_HAL_Driver/Src/stm32f1xx_hal_dac.c **** /**
1001:Drivers/STM32F1xx_HAL_Driver/Src/stm32f1xx_hal_dac.c ****   * @}
1002:Drivers/STM32F1xx_HAL_Driver/Src/stm32f1xx_hal_dac.c ****   */
1003:Drivers/STM32F1xx_HAL_Driver/Src/stm32f1xx_hal_dac.c **** 
1004:Drivers/STM32F1xx_HAL_Driver/Src/stm32f1xx_hal_dac.c **** /** @defgroup DAC_Exported_Functions_Group4 Peripheral State and Errors functions
1005:Drivers/STM32F1xx_HAL_Driver/Src/stm32f1xx_hal_dac.c ****   *  @brief   Peripheral State and Errors functions
1006:Drivers/STM32F1xx_HAL_Driver/Src/stm32f1xx_hal_dac.c ****   *
1007:Drivers/STM32F1xx_HAL_Driver/Src/stm32f1xx_hal_dac.c **** @verbatim
1008:Drivers/STM32F1xx_HAL_Driver/Src/stm32f1xx_hal_dac.c ****   ==============================================================================
1009:Drivers/STM32F1xx_HAL_Driver/Src/stm32f1xx_hal_dac.c ****             ##### Peripheral State and Errors functions #####
1010:Drivers/STM32F1xx_HAL_Driver/Src/stm32f1xx_hal_dac.c ****   ==============================================================================
1011:Drivers/STM32F1xx_HAL_Driver/Src/stm32f1xx_hal_dac.c ****     [..]
1012:Drivers/STM32F1xx_HAL_Driver/Src/stm32f1xx_hal_dac.c ****     This subsection provides functions allowing to
1013:Drivers/STM32F1xx_HAL_Driver/Src/stm32f1xx_hal_dac.c ****       (+) Check the DAC state.
1014:Drivers/STM32F1xx_HAL_Driver/Src/stm32f1xx_hal_dac.c ****       (+) Check the DAC Errors.
1015:Drivers/STM32F1xx_HAL_Driver/Src/stm32f1xx_hal_dac.c **** 
1016:Drivers/STM32F1xx_HAL_Driver/Src/stm32f1xx_hal_dac.c **** @endverbatim
1017:Drivers/STM32F1xx_HAL_Driver/Src/stm32f1xx_hal_dac.c ****   * @{
1018:Drivers/STM32F1xx_HAL_Driver/Src/stm32f1xx_hal_dac.c ****   */
1019:Drivers/STM32F1xx_HAL_Driver/Src/stm32f1xx_hal_dac.c **** 
1020:Drivers/STM32F1xx_HAL_Driver/Src/stm32f1xx_hal_dac.c **** /**
1021:Drivers/STM32F1xx_HAL_Driver/Src/stm32f1xx_hal_dac.c ****   * @brief  return the DAC handle state
1022:Drivers/STM32F1xx_HAL_Driver/Src/stm32f1xx_hal_dac.c ****   * @param  hdac pointer to a DAC_HandleTypeDef structure that contains
1023:Drivers/STM32F1xx_HAL_Driver/Src/stm32f1xx_hal_dac.c ****   *         the configuration information for the specified DAC.
1024:Drivers/STM32F1xx_HAL_Driver/Src/stm32f1xx_hal_dac.c ****   * @retval HAL state
1025:Drivers/STM32F1xx_HAL_Driver/Src/stm32f1xx_hal_dac.c ****   */
1026:Drivers/STM32F1xx_HAL_Driver/Src/stm32f1xx_hal_dac.c **** HAL_DAC_StateTypeDef HAL_DAC_GetState(DAC_HandleTypeDef *hdac)
1027:Drivers/STM32F1xx_HAL_Driver/Src/stm32f1xx_hal_dac.c **** {
1028:Drivers/STM32F1xx_HAL_Driver/Src/stm32f1xx_hal_dac.c ****   /* Return DAC handle state */
1029:Drivers/STM32F1xx_HAL_Driver/Src/stm32f1xx_hal_dac.c ****   return hdac->State;
ARM GAS  /tmp/ccMmQP8f.s 			page 35


1030:Drivers/STM32F1xx_HAL_Driver/Src/stm32f1xx_hal_dac.c **** }
1031:Drivers/STM32F1xx_HAL_Driver/Src/stm32f1xx_hal_dac.c **** 
1032:Drivers/STM32F1xx_HAL_Driver/Src/stm32f1xx_hal_dac.c **** 
1033:Drivers/STM32F1xx_HAL_Driver/Src/stm32f1xx_hal_dac.c **** /**
1034:Drivers/STM32F1xx_HAL_Driver/Src/stm32f1xx_hal_dac.c ****   * @brief  Return the DAC error code
1035:Drivers/STM32F1xx_HAL_Driver/Src/stm32f1xx_hal_dac.c ****   * @param  hdac pointer to a DAC_HandleTypeDef structure that contains
1036:Drivers/STM32F1xx_HAL_Driver/Src/stm32f1xx_hal_dac.c ****   *         the configuration information for the specified DAC.
1037:Drivers/STM32F1xx_HAL_Driver/Src/stm32f1xx_hal_dac.c ****   * @retval DAC Error Code
1038:Drivers/STM32F1xx_HAL_Driver/Src/stm32f1xx_hal_dac.c ****   */
1039:Drivers/STM32F1xx_HAL_Driver/Src/stm32f1xx_hal_dac.c **** uint32_t HAL_DAC_GetError(DAC_HandleTypeDef *hdac)
1040:Drivers/STM32F1xx_HAL_Driver/Src/stm32f1xx_hal_dac.c **** {
1041:Drivers/STM32F1xx_HAL_Driver/Src/stm32f1xx_hal_dac.c ****   return hdac->ErrorCode;
1042:Drivers/STM32F1xx_HAL_Driver/Src/stm32f1xx_hal_dac.c **** }
1043:Drivers/STM32F1xx_HAL_Driver/Src/stm32f1xx_hal_dac.c **** 
1044:Drivers/STM32F1xx_HAL_Driver/Src/stm32f1xx_hal_dac.c **** /**
1045:Drivers/STM32F1xx_HAL_Driver/Src/stm32f1xx_hal_dac.c ****   * @}
1046:Drivers/STM32F1xx_HAL_Driver/Src/stm32f1xx_hal_dac.c ****   */
1047:Drivers/STM32F1xx_HAL_Driver/Src/stm32f1xx_hal_dac.c **** 
1048:Drivers/STM32F1xx_HAL_Driver/Src/stm32f1xx_hal_dac.c **** /**
1049:Drivers/STM32F1xx_HAL_Driver/Src/stm32f1xx_hal_dac.c ****   * @}
1050:Drivers/STM32F1xx_HAL_Driver/Src/stm32f1xx_hal_dac.c ****   */
1051:Drivers/STM32F1xx_HAL_Driver/Src/stm32f1xx_hal_dac.c **** 
1052:Drivers/STM32F1xx_HAL_Driver/Src/stm32f1xx_hal_dac.c **** /** @addtogroup DAC_Exported_Functions
1053:Drivers/STM32F1xx_HAL_Driver/Src/stm32f1xx_hal_dac.c ****   * @{
1054:Drivers/STM32F1xx_HAL_Driver/Src/stm32f1xx_hal_dac.c ****   */
1055:Drivers/STM32F1xx_HAL_Driver/Src/stm32f1xx_hal_dac.c **** 
1056:Drivers/STM32F1xx_HAL_Driver/Src/stm32f1xx_hal_dac.c **** /** @addtogroup DAC_Exported_Functions_Group1
1057:Drivers/STM32F1xx_HAL_Driver/Src/stm32f1xx_hal_dac.c ****   * @{
1058:Drivers/STM32F1xx_HAL_Driver/Src/stm32f1xx_hal_dac.c ****   */
1059:Drivers/STM32F1xx_HAL_Driver/Src/stm32f1xx_hal_dac.c **** #if (USE_HAL_DAC_REGISTER_CALLBACKS == 1)
1060:Drivers/STM32F1xx_HAL_Driver/Src/stm32f1xx_hal_dac.c **** /**
1061:Drivers/STM32F1xx_HAL_Driver/Src/stm32f1xx_hal_dac.c ****   * @brief  Register a User DAC Callback
1062:Drivers/STM32F1xx_HAL_Driver/Src/stm32f1xx_hal_dac.c ****   *         To be used instead of the weak (surcharged) predefined callback
1063:Drivers/STM32F1xx_HAL_Driver/Src/stm32f1xx_hal_dac.c ****   * @param  hdac DAC handle
1064:Drivers/STM32F1xx_HAL_Driver/Src/stm32f1xx_hal_dac.c ****   * @param  CallbackID ID of the callback to be registered
1065:Drivers/STM32F1xx_HAL_Driver/Src/stm32f1xx_hal_dac.c ****   *         This parameter can be one of the following values:
1066:Drivers/STM32F1xx_HAL_Driver/Src/stm32f1xx_hal_dac.c ****   *          @arg @ref HAL_DAC_ERROR_INVALID_CALLBACK   DAC Error Callback ID
1067:Drivers/STM32F1xx_HAL_Driver/Src/stm32f1xx_hal_dac.c ****   *          @arg @ref HAL_DAC_CH1_COMPLETE_CB_ID       DAC CH1 Complete Callback ID
1068:Drivers/STM32F1xx_HAL_Driver/Src/stm32f1xx_hal_dac.c ****   *          @arg @ref HAL_DAC_CH1_HALF_COMPLETE_CB_ID  DAC CH1 Half Complete Callback ID
1069:Drivers/STM32F1xx_HAL_Driver/Src/stm32f1xx_hal_dac.c ****   *          @arg @ref HAL_DAC_CH1_ERROR_ID             DAC CH1 Error Callback ID
1070:Drivers/STM32F1xx_HAL_Driver/Src/stm32f1xx_hal_dac.c ****   *          @arg @ref HAL_DAC_CH1_UNDERRUN_CB_ID       DAC CH1 UnderRun Callback ID
1071:Drivers/STM32F1xx_HAL_Driver/Src/stm32f1xx_hal_dac.c ****   *          @arg @ref HAL_DAC_CH2_COMPLETE_CB_ID       DAC CH2 Complete Callback ID
1072:Drivers/STM32F1xx_HAL_Driver/Src/stm32f1xx_hal_dac.c ****   *          @arg @ref HAL_DAC_CH2_HALF_COMPLETE_CB_ID  DAC CH2 Half Complete Callback ID
1073:Drivers/STM32F1xx_HAL_Driver/Src/stm32f1xx_hal_dac.c ****   *          @arg @ref HAL_DAC_CH2_ERROR_ID             DAC CH2 Error Callback ID
1074:Drivers/STM32F1xx_HAL_Driver/Src/stm32f1xx_hal_dac.c ****   *          @arg @ref HAL_DAC_CH2_UNDERRUN_CB_ID       DAC CH2 UnderRun Callback ID
1075:Drivers/STM32F1xx_HAL_Driver/Src/stm32f1xx_hal_dac.c ****   *          @arg @ref HAL_DAC_MSPINIT_CB_ID            DAC MSP Init Callback ID
1076:Drivers/STM32F1xx_HAL_Driver/Src/stm32f1xx_hal_dac.c ****   *          @arg @ref HAL_DAC_MSPDEINIT_CB_ID          DAC MSP DeInit Callback ID
1077:Drivers/STM32F1xx_HAL_Driver/Src/stm32f1xx_hal_dac.c ****   *
1078:Drivers/STM32F1xx_HAL_Driver/Src/stm32f1xx_hal_dac.c ****   * @param  pCallback pointer to the Callback function
1079:Drivers/STM32F1xx_HAL_Driver/Src/stm32f1xx_hal_dac.c ****   * @retval status
1080:Drivers/STM32F1xx_HAL_Driver/Src/stm32f1xx_hal_dac.c ****   */
1081:Drivers/STM32F1xx_HAL_Driver/Src/stm32f1xx_hal_dac.c **** HAL_StatusTypeDef HAL_DAC_RegisterCallback(DAC_HandleTypeDef *hdac, HAL_DAC_CallbackIDTypeDef Callb
1082:Drivers/STM32F1xx_HAL_Driver/Src/stm32f1xx_hal_dac.c ****                                            pDAC_CallbackTypeDef pCallback)
1083:Drivers/STM32F1xx_HAL_Driver/Src/stm32f1xx_hal_dac.c **** {
1084:Drivers/STM32F1xx_HAL_Driver/Src/stm32f1xx_hal_dac.c ****   HAL_StatusTypeDef status = HAL_OK;
1085:Drivers/STM32F1xx_HAL_Driver/Src/stm32f1xx_hal_dac.c **** 
1086:Drivers/STM32F1xx_HAL_Driver/Src/stm32f1xx_hal_dac.c ****   if (pCallback == NULL)
ARM GAS  /tmp/ccMmQP8f.s 			page 36


1087:Drivers/STM32F1xx_HAL_Driver/Src/stm32f1xx_hal_dac.c ****   {
1088:Drivers/STM32F1xx_HAL_Driver/Src/stm32f1xx_hal_dac.c ****     /* Update the error code */
1089:Drivers/STM32F1xx_HAL_Driver/Src/stm32f1xx_hal_dac.c ****     hdac->ErrorCode |= HAL_DAC_ERROR_INVALID_CALLBACK;
1090:Drivers/STM32F1xx_HAL_Driver/Src/stm32f1xx_hal_dac.c ****     return HAL_ERROR;
1091:Drivers/STM32F1xx_HAL_Driver/Src/stm32f1xx_hal_dac.c ****   }
1092:Drivers/STM32F1xx_HAL_Driver/Src/stm32f1xx_hal_dac.c **** 
1093:Drivers/STM32F1xx_HAL_Driver/Src/stm32f1xx_hal_dac.c ****   /* Process locked */
1094:Drivers/STM32F1xx_HAL_Driver/Src/stm32f1xx_hal_dac.c ****   __HAL_LOCK(hdac);
1095:Drivers/STM32F1xx_HAL_Driver/Src/stm32f1xx_hal_dac.c **** 
1096:Drivers/STM32F1xx_HAL_Driver/Src/stm32f1xx_hal_dac.c ****   if (hdac->State == HAL_DAC_STATE_READY)
1097:Drivers/STM32F1xx_HAL_Driver/Src/stm32f1xx_hal_dac.c ****   {
1098:Drivers/STM32F1xx_HAL_Driver/Src/stm32f1xx_hal_dac.c ****     switch (CallbackID)
1099:Drivers/STM32F1xx_HAL_Driver/Src/stm32f1xx_hal_dac.c ****     {
1100:Drivers/STM32F1xx_HAL_Driver/Src/stm32f1xx_hal_dac.c ****       case HAL_DAC_CH1_COMPLETE_CB_ID :
1101:Drivers/STM32F1xx_HAL_Driver/Src/stm32f1xx_hal_dac.c ****         hdac->ConvCpltCallbackCh1 = pCallback;
1102:Drivers/STM32F1xx_HAL_Driver/Src/stm32f1xx_hal_dac.c ****         break;
1103:Drivers/STM32F1xx_HAL_Driver/Src/stm32f1xx_hal_dac.c ****       case HAL_DAC_CH1_HALF_COMPLETE_CB_ID :
1104:Drivers/STM32F1xx_HAL_Driver/Src/stm32f1xx_hal_dac.c ****         hdac->ConvHalfCpltCallbackCh1 = pCallback;
1105:Drivers/STM32F1xx_HAL_Driver/Src/stm32f1xx_hal_dac.c ****         break;
1106:Drivers/STM32F1xx_HAL_Driver/Src/stm32f1xx_hal_dac.c ****       case HAL_DAC_CH1_ERROR_ID :
1107:Drivers/STM32F1xx_HAL_Driver/Src/stm32f1xx_hal_dac.c ****         hdac->ErrorCallbackCh1 = pCallback;
1108:Drivers/STM32F1xx_HAL_Driver/Src/stm32f1xx_hal_dac.c ****         break;
1109:Drivers/STM32F1xx_HAL_Driver/Src/stm32f1xx_hal_dac.c ****       case HAL_DAC_CH1_UNDERRUN_CB_ID :
1110:Drivers/STM32F1xx_HAL_Driver/Src/stm32f1xx_hal_dac.c ****         hdac->DMAUnderrunCallbackCh1 = pCallback;
1111:Drivers/STM32F1xx_HAL_Driver/Src/stm32f1xx_hal_dac.c ****         break;
1112:Drivers/STM32F1xx_HAL_Driver/Src/stm32f1xx_hal_dac.c ****       case HAL_DAC_CH2_COMPLETE_CB_ID :
1113:Drivers/STM32F1xx_HAL_Driver/Src/stm32f1xx_hal_dac.c ****         hdac->ConvCpltCallbackCh2 = pCallback;
1114:Drivers/STM32F1xx_HAL_Driver/Src/stm32f1xx_hal_dac.c ****         break;
1115:Drivers/STM32F1xx_HAL_Driver/Src/stm32f1xx_hal_dac.c ****       case HAL_DAC_CH2_HALF_COMPLETE_CB_ID :
1116:Drivers/STM32F1xx_HAL_Driver/Src/stm32f1xx_hal_dac.c ****         hdac->ConvHalfCpltCallbackCh2 = pCallback;
1117:Drivers/STM32F1xx_HAL_Driver/Src/stm32f1xx_hal_dac.c ****         break;
1118:Drivers/STM32F1xx_HAL_Driver/Src/stm32f1xx_hal_dac.c ****       case HAL_DAC_CH2_ERROR_ID :
1119:Drivers/STM32F1xx_HAL_Driver/Src/stm32f1xx_hal_dac.c ****         hdac->ErrorCallbackCh2 = pCallback;
1120:Drivers/STM32F1xx_HAL_Driver/Src/stm32f1xx_hal_dac.c ****         break;
1121:Drivers/STM32F1xx_HAL_Driver/Src/stm32f1xx_hal_dac.c ****       case HAL_DAC_CH2_UNDERRUN_CB_ID :
1122:Drivers/STM32F1xx_HAL_Driver/Src/stm32f1xx_hal_dac.c ****         hdac->DMAUnderrunCallbackCh2 = pCallback;
1123:Drivers/STM32F1xx_HAL_Driver/Src/stm32f1xx_hal_dac.c ****         break;
1124:Drivers/STM32F1xx_HAL_Driver/Src/stm32f1xx_hal_dac.c ****       case HAL_DAC_MSPINIT_CB_ID :
1125:Drivers/STM32F1xx_HAL_Driver/Src/stm32f1xx_hal_dac.c ****         hdac->MspInitCallback = pCallback;
1126:Drivers/STM32F1xx_HAL_Driver/Src/stm32f1xx_hal_dac.c ****         break;
1127:Drivers/STM32F1xx_HAL_Driver/Src/stm32f1xx_hal_dac.c ****       case HAL_DAC_MSPDEINIT_CB_ID :
1128:Drivers/STM32F1xx_HAL_Driver/Src/stm32f1xx_hal_dac.c ****         hdac->MspDeInitCallback = pCallback;
1129:Drivers/STM32F1xx_HAL_Driver/Src/stm32f1xx_hal_dac.c ****         break;
1130:Drivers/STM32F1xx_HAL_Driver/Src/stm32f1xx_hal_dac.c ****       default :
1131:Drivers/STM32F1xx_HAL_Driver/Src/stm32f1xx_hal_dac.c ****         /* Update the error code */
1132:Drivers/STM32F1xx_HAL_Driver/Src/stm32f1xx_hal_dac.c ****         hdac->ErrorCode |= HAL_DAC_ERROR_INVALID_CALLBACK;
1133:Drivers/STM32F1xx_HAL_Driver/Src/stm32f1xx_hal_dac.c ****         /* update return status */
1134:Drivers/STM32F1xx_HAL_Driver/Src/stm32f1xx_hal_dac.c ****         status =  HAL_ERROR;
1135:Drivers/STM32F1xx_HAL_Driver/Src/stm32f1xx_hal_dac.c ****         break;
1136:Drivers/STM32F1xx_HAL_Driver/Src/stm32f1xx_hal_dac.c ****     }
1137:Drivers/STM32F1xx_HAL_Driver/Src/stm32f1xx_hal_dac.c ****   }
1138:Drivers/STM32F1xx_HAL_Driver/Src/stm32f1xx_hal_dac.c ****   else if (hdac->State == HAL_DAC_STATE_RESET)
1139:Drivers/STM32F1xx_HAL_Driver/Src/stm32f1xx_hal_dac.c ****   {
1140:Drivers/STM32F1xx_HAL_Driver/Src/stm32f1xx_hal_dac.c ****     switch (CallbackID)
1141:Drivers/STM32F1xx_HAL_Driver/Src/stm32f1xx_hal_dac.c ****     {
1142:Drivers/STM32F1xx_HAL_Driver/Src/stm32f1xx_hal_dac.c ****       case HAL_DAC_MSPINIT_CB_ID :
1143:Drivers/STM32F1xx_HAL_Driver/Src/stm32f1xx_hal_dac.c ****         hdac->MspInitCallback = pCallback;
ARM GAS  /tmp/ccMmQP8f.s 			page 37


1144:Drivers/STM32F1xx_HAL_Driver/Src/stm32f1xx_hal_dac.c ****         break;
1145:Drivers/STM32F1xx_HAL_Driver/Src/stm32f1xx_hal_dac.c ****       case HAL_DAC_MSPDEINIT_CB_ID :
1146:Drivers/STM32F1xx_HAL_Driver/Src/stm32f1xx_hal_dac.c ****         hdac->MspDeInitCallback = pCallback;
1147:Drivers/STM32F1xx_HAL_Driver/Src/stm32f1xx_hal_dac.c ****         break;
1148:Drivers/STM32F1xx_HAL_Driver/Src/stm32f1xx_hal_dac.c ****       default :
1149:Drivers/STM32F1xx_HAL_Driver/Src/stm32f1xx_hal_dac.c ****         /* Update the error code */
1150:Drivers/STM32F1xx_HAL_Driver/Src/stm32f1xx_hal_dac.c ****         hdac->ErrorCode |= HAL_DAC_ERROR_INVALID_CALLBACK;
1151:Drivers/STM32F1xx_HAL_Driver/Src/stm32f1xx_hal_dac.c ****         /* update return status */
1152:Drivers/STM32F1xx_HAL_Driver/Src/stm32f1xx_hal_dac.c ****         status =  HAL_ERROR;
1153:Drivers/STM32F1xx_HAL_Driver/Src/stm32f1xx_hal_dac.c ****         break;
1154:Drivers/STM32F1xx_HAL_Driver/Src/stm32f1xx_hal_dac.c ****     }
1155:Drivers/STM32F1xx_HAL_Driver/Src/stm32f1xx_hal_dac.c ****   }
1156:Drivers/STM32F1xx_HAL_Driver/Src/stm32f1xx_hal_dac.c ****   else
1157:Drivers/STM32F1xx_HAL_Driver/Src/stm32f1xx_hal_dac.c ****   {
1158:Drivers/STM32F1xx_HAL_Driver/Src/stm32f1xx_hal_dac.c ****     /* Update the error code */
1159:Drivers/STM32F1xx_HAL_Driver/Src/stm32f1xx_hal_dac.c ****     hdac->ErrorCode |= HAL_DAC_ERROR_INVALID_CALLBACK;
1160:Drivers/STM32F1xx_HAL_Driver/Src/stm32f1xx_hal_dac.c ****     /* update return status */
1161:Drivers/STM32F1xx_HAL_Driver/Src/stm32f1xx_hal_dac.c ****     status =  HAL_ERROR;
1162:Drivers/STM32F1xx_HAL_Driver/Src/stm32f1xx_hal_dac.c ****   }
1163:Drivers/STM32F1xx_HAL_Driver/Src/stm32f1xx_hal_dac.c **** 
1164:Drivers/STM32F1xx_HAL_Driver/Src/stm32f1xx_hal_dac.c ****   /* Release Lock */
1165:Drivers/STM32F1xx_HAL_Driver/Src/stm32f1xx_hal_dac.c ****   __HAL_UNLOCK(hdac);
1166:Drivers/STM32F1xx_HAL_Driver/Src/stm32f1xx_hal_dac.c ****   return status;
1167:Drivers/STM32F1xx_HAL_Driver/Src/stm32f1xx_hal_dac.c **** }
1168:Drivers/STM32F1xx_HAL_Driver/Src/stm32f1xx_hal_dac.c **** 
1169:Drivers/STM32F1xx_HAL_Driver/Src/stm32f1xx_hal_dac.c **** /**
1170:Drivers/STM32F1xx_HAL_Driver/Src/stm32f1xx_hal_dac.c ****   * @brief  Unregister a User DAC Callback
1171:Drivers/STM32F1xx_HAL_Driver/Src/stm32f1xx_hal_dac.c ****   *         DAC Callback is redirected to the weak (surcharged) predefined callback
1172:Drivers/STM32F1xx_HAL_Driver/Src/stm32f1xx_hal_dac.c ****   * @param  hdac DAC handle
1173:Drivers/STM32F1xx_HAL_Driver/Src/stm32f1xx_hal_dac.c ****   * @param  CallbackID ID of the callback to be unregistered
1174:Drivers/STM32F1xx_HAL_Driver/Src/stm32f1xx_hal_dac.c ****   *         This parameter can be one of the following values:
1175:Drivers/STM32F1xx_HAL_Driver/Src/stm32f1xx_hal_dac.c ****   *          @arg @ref HAL_DAC_CH1_COMPLETE_CB_ID          DAC CH1 tranfer Complete Callback ID
1176:Drivers/STM32F1xx_HAL_Driver/Src/stm32f1xx_hal_dac.c ****   *          @arg @ref HAL_DAC_CH1_HALF_COMPLETE_CB_ID     DAC CH1 Half Complete Callback ID
1177:Drivers/STM32F1xx_HAL_Driver/Src/stm32f1xx_hal_dac.c ****   *          @arg @ref HAL_DAC_CH1_ERROR_ID                DAC CH1 Error Callback ID
1178:Drivers/STM32F1xx_HAL_Driver/Src/stm32f1xx_hal_dac.c ****   *          @arg @ref HAL_DAC_CH1_UNDERRUN_CB_ID          DAC CH1 UnderRun Callback ID
1179:Drivers/STM32F1xx_HAL_Driver/Src/stm32f1xx_hal_dac.c ****   *          @arg @ref HAL_DAC_CH2_COMPLETE_CB_ID          DAC CH2 Complete Callback ID
1180:Drivers/STM32F1xx_HAL_Driver/Src/stm32f1xx_hal_dac.c ****   *          @arg @ref HAL_DAC_CH2_HALF_COMPLETE_CB_ID     DAC CH2 Half Complete Callback ID
1181:Drivers/STM32F1xx_HAL_Driver/Src/stm32f1xx_hal_dac.c ****   *          @arg @ref HAL_DAC_CH2_ERROR_ID                DAC CH2 Error Callback ID
1182:Drivers/STM32F1xx_HAL_Driver/Src/stm32f1xx_hal_dac.c ****   *          @arg @ref HAL_DAC_CH2_UNDERRUN_CB_ID          DAC CH2 UnderRun Callback ID
1183:Drivers/STM32F1xx_HAL_Driver/Src/stm32f1xx_hal_dac.c ****   *          @arg @ref HAL_DAC_MSPINIT_CB_ID               DAC MSP Init Callback ID
1184:Drivers/STM32F1xx_HAL_Driver/Src/stm32f1xx_hal_dac.c ****   *          @arg @ref HAL_DAC_MSPDEINIT_CB_ID             DAC MSP DeInit Callback ID
1185:Drivers/STM32F1xx_HAL_Driver/Src/stm32f1xx_hal_dac.c ****   *          @arg @ref HAL_DAC_ALL_CB_ID                   DAC All callbacks
1186:Drivers/STM32F1xx_HAL_Driver/Src/stm32f1xx_hal_dac.c ****   * @retval status
1187:Drivers/STM32F1xx_HAL_Driver/Src/stm32f1xx_hal_dac.c ****   */
1188:Drivers/STM32F1xx_HAL_Driver/Src/stm32f1xx_hal_dac.c **** HAL_StatusTypeDef HAL_DAC_UnRegisterCallback(DAC_HandleTypeDef *hdac, HAL_DAC_CallbackIDTypeDef Cal
1189:Drivers/STM32F1xx_HAL_Driver/Src/stm32f1xx_hal_dac.c **** {
1190:Drivers/STM32F1xx_HAL_Driver/Src/stm32f1xx_hal_dac.c ****   HAL_StatusTypeDef status = HAL_OK;
1191:Drivers/STM32F1xx_HAL_Driver/Src/stm32f1xx_hal_dac.c **** 
1192:Drivers/STM32F1xx_HAL_Driver/Src/stm32f1xx_hal_dac.c ****   /* Process locked */
1193:Drivers/STM32F1xx_HAL_Driver/Src/stm32f1xx_hal_dac.c ****   __HAL_LOCK(hdac);
1194:Drivers/STM32F1xx_HAL_Driver/Src/stm32f1xx_hal_dac.c **** 
1195:Drivers/STM32F1xx_HAL_Driver/Src/stm32f1xx_hal_dac.c ****   if (hdac->State == HAL_DAC_STATE_READY)
1196:Drivers/STM32F1xx_HAL_Driver/Src/stm32f1xx_hal_dac.c ****   {
1197:Drivers/STM32F1xx_HAL_Driver/Src/stm32f1xx_hal_dac.c ****     switch (CallbackID)
1198:Drivers/STM32F1xx_HAL_Driver/Src/stm32f1xx_hal_dac.c ****     {
1199:Drivers/STM32F1xx_HAL_Driver/Src/stm32f1xx_hal_dac.c ****       case HAL_DAC_CH1_COMPLETE_CB_ID :
1200:Drivers/STM32F1xx_HAL_Driver/Src/stm32f1xx_hal_dac.c ****         hdac->ConvCpltCallbackCh1 = HAL_DAC_ConvCpltCallbackCh1;
ARM GAS  /tmp/ccMmQP8f.s 			page 38


1201:Drivers/STM32F1xx_HAL_Driver/Src/stm32f1xx_hal_dac.c ****         break;
1202:Drivers/STM32F1xx_HAL_Driver/Src/stm32f1xx_hal_dac.c ****       case HAL_DAC_CH1_HALF_COMPLETE_CB_ID :
1203:Drivers/STM32F1xx_HAL_Driver/Src/stm32f1xx_hal_dac.c ****         hdac->ConvHalfCpltCallbackCh1 = HAL_DAC_ConvHalfCpltCallbackCh1;
1204:Drivers/STM32F1xx_HAL_Driver/Src/stm32f1xx_hal_dac.c ****         break;
1205:Drivers/STM32F1xx_HAL_Driver/Src/stm32f1xx_hal_dac.c ****       case HAL_DAC_CH1_ERROR_ID :
1206:Drivers/STM32F1xx_HAL_Driver/Src/stm32f1xx_hal_dac.c ****         hdac->ErrorCallbackCh1 = HAL_DAC_ErrorCallbackCh1;
1207:Drivers/STM32F1xx_HAL_Driver/Src/stm32f1xx_hal_dac.c ****         break;
1208:Drivers/STM32F1xx_HAL_Driver/Src/stm32f1xx_hal_dac.c ****       case HAL_DAC_CH1_UNDERRUN_CB_ID :
1209:Drivers/STM32F1xx_HAL_Driver/Src/stm32f1xx_hal_dac.c ****         hdac->DMAUnderrunCallbackCh1 = HAL_DAC_DMAUnderrunCallbackCh1;
1210:Drivers/STM32F1xx_HAL_Driver/Src/stm32f1xx_hal_dac.c ****         break;
1211:Drivers/STM32F1xx_HAL_Driver/Src/stm32f1xx_hal_dac.c ****       case HAL_DAC_CH2_COMPLETE_CB_ID :
1212:Drivers/STM32F1xx_HAL_Driver/Src/stm32f1xx_hal_dac.c ****         hdac->ConvCpltCallbackCh2 = HAL_DACEx_ConvCpltCallbackCh2;
1213:Drivers/STM32F1xx_HAL_Driver/Src/stm32f1xx_hal_dac.c ****         break;
1214:Drivers/STM32F1xx_HAL_Driver/Src/stm32f1xx_hal_dac.c ****       case HAL_DAC_CH2_HALF_COMPLETE_CB_ID :
1215:Drivers/STM32F1xx_HAL_Driver/Src/stm32f1xx_hal_dac.c ****         hdac->ConvHalfCpltCallbackCh2 = HAL_DACEx_ConvHalfCpltCallbackCh2;
1216:Drivers/STM32F1xx_HAL_Driver/Src/stm32f1xx_hal_dac.c ****         break;
1217:Drivers/STM32F1xx_HAL_Driver/Src/stm32f1xx_hal_dac.c ****       case HAL_DAC_CH2_ERROR_ID :
1218:Drivers/STM32F1xx_HAL_Driver/Src/stm32f1xx_hal_dac.c ****         hdac->ErrorCallbackCh2 = HAL_DACEx_ErrorCallbackCh2;
1219:Drivers/STM32F1xx_HAL_Driver/Src/stm32f1xx_hal_dac.c ****         break;
1220:Drivers/STM32F1xx_HAL_Driver/Src/stm32f1xx_hal_dac.c ****       case HAL_DAC_CH2_UNDERRUN_CB_ID :
1221:Drivers/STM32F1xx_HAL_Driver/Src/stm32f1xx_hal_dac.c ****         hdac->DMAUnderrunCallbackCh2 = HAL_DACEx_DMAUnderrunCallbackCh2;
1222:Drivers/STM32F1xx_HAL_Driver/Src/stm32f1xx_hal_dac.c ****         break;
1223:Drivers/STM32F1xx_HAL_Driver/Src/stm32f1xx_hal_dac.c ****       case HAL_DAC_MSPINIT_CB_ID :
1224:Drivers/STM32F1xx_HAL_Driver/Src/stm32f1xx_hal_dac.c ****         hdac->MspInitCallback = HAL_DAC_MspInit;
1225:Drivers/STM32F1xx_HAL_Driver/Src/stm32f1xx_hal_dac.c ****         break;
1226:Drivers/STM32F1xx_HAL_Driver/Src/stm32f1xx_hal_dac.c ****       case HAL_DAC_MSPDEINIT_CB_ID :
1227:Drivers/STM32F1xx_HAL_Driver/Src/stm32f1xx_hal_dac.c ****         hdac->MspDeInitCallback = HAL_DAC_MspDeInit;
1228:Drivers/STM32F1xx_HAL_Driver/Src/stm32f1xx_hal_dac.c ****         break;
1229:Drivers/STM32F1xx_HAL_Driver/Src/stm32f1xx_hal_dac.c ****       case HAL_DAC_ALL_CB_ID :
1230:Drivers/STM32F1xx_HAL_Driver/Src/stm32f1xx_hal_dac.c ****         hdac->ConvCpltCallbackCh1 = HAL_DAC_ConvCpltCallbackCh1;
1231:Drivers/STM32F1xx_HAL_Driver/Src/stm32f1xx_hal_dac.c ****         hdac->ConvHalfCpltCallbackCh1 = HAL_DAC_ConvHalfCpltCallbackCh1;
1232:Drivers/STM32F1xx_HAL_Driver/Src/stm32f1xx_hal_dac.c ****         hdac->ErrorCallbackCh1 = HAL_DAC_ErrorCallbackCh1;
1233:Drivers/STM32F1xx_HAL_Driver/Src/stm32f1xx_hal_dac.c ****         hdac->DMAUnderrunCallbackCh1 = HAL_DAC_DMAUnderrunCallbackCh1;
1234:Drivers/STM32F1xx_HAL_Driver/Src/stm32f1xx_hal_dac.c ****         hdac->ConvCpltCallbackCh2 = HAL_DACEx_ConvCpltCallbackCh2;
1235:Drivers/STM32F1xx_HAL_Driver/Src/stm32f1xx_hal_dac.c ****         hdac->ConvHalfCpltCallbackCh2 = HAL_DACEx_ConvHalfCpltCallbackCh2;
1236:Drivers/STM32F1xx_HAL_Driver/Src/stm32f1xx_hal_dac.c ****         hdac->ErrorCallbackCh2 = HAL_DACEx_ErrorCallbackCh2;
1237:Drivers/STM32F1xx_HAL_Driver/Src/stm32f1xx_hal_dac.c ****         hdac->DMAUnderrunCallbackCh2 = HAL_DACEx_DMAUnderrunCallbackCh2;
1238:Drivers/STM32F1xx_HAL_Driver/Src/stm32f1xx_hal_dac.c ****         hdac->MspInitCallback = HAL_DAC_MspInit;
1239:Drivers/STM32F1xx_HAL_Driver/Src/stm32f1xx_hal_dac.c ****         hdac->MspDeInitCallback = HAL_DAC_MspDeInit;
1240:Drivers/STM32F1xx_HAL_Driver/Src/stm32f1xx_hal_dac.c ****         break;
1241:Drivers/STM32F1xx_HAL_Driver/Src/stm32f1xx_hal_dac.c ****       default :
1242:Drivers/STM32F1xx_HAL_Driver/Src/stm32f1xx_hal_dac.c ****         /* Update the error code */
1243:Drivers/STM32F1xx_HAL_Driver/Src/stm32f1xx_hal_dac.c ****         hdac->ErrorCode |= HAL_DAC_ERROR_INVALID_CALLBACK;
1244:Drivers/STM32F1xx_HAL_Driver/Src/stm32f1xx_hal_dac.c ****         /* update return status */
1245:Drivers/STM32F1xx_HAL_Driver/Src/stm32f1xx_hal_dac.c ****         status =  HAL_ERROR;
1246:Drivers/STM32F1xx_HAL_Driver/Src/stm32f1xx_hal_dac.c ****         break;
1247:Drivers/STM32F1xx_HAL_Driver/Src/stm32f1xx_hal_dac.c ****     }
1248:Drivers/STM32F1xx_HAL_Driver/Src/stm32f1xx_hal_dac.c ****   }
1249:Drivers/STM32F1xx_HAL_Driver/Src/stm32f1xx_hal_dac.c ****   else if (hdac->State == HAL_DAC_STATE_RESET)
1250:Drivers/STM32F1xx_HAL_Driver/Src/stm32f1xx_hal_dac.c ****   {
1251:Drivers/STM32F1xx_HAL_Driver/Src/stm32f1xx_hal_dac.c ****     switch (CallbackID)
1252:Drivers/STM32F1xx_HAL_Driver/Src/stm32f1xx_hal_dac.c ****     {
1253:Drivers/STM32F1xx_HAL_Driver/Src/stm32f1xx_hal_dac.c ****       case HAL_DAC_MSPINIT_CB_ID :
1254:Drivers/STM32F1xx_HAL_Driver/Src/stm32f1xx_hal_dac.c ****         hdac->MspInitCallback = HAL_DAC_MspInit;
1255:Drivers/STM32F1xx_HAL_Driver/Src/stm32f1xx_hal_dac.c ****         break;
1256:Drivers/STM32F1xx_HAL_Driver/Src/stm32f1xx_hal_dac.c ****       case HAL_DAC_MSPDEINIT_CB_ID :
1257:Drivers/STM32F1xx_HAL_Driver/Src/stm32f1xx_hal_dac.c ****         hdac->MspDeInitCallback = HAL_DAC_MspDeInit;
ARM GAS  /tmp/ccMmQP8f.s 			page 39


1258:Drivers/STM32F1xx_HAL_Driver/Src/stm32f1xx_hal_dac.c ****         break;
1259:Drivers/STM32F1xx_HAL_Driver/Src/stm32f1xx_hal_dac.c ****       default :
1260:Drivers/STM32F1xx_HAL_Driver/Src/stm32f1xx_hal_dac.c ****         /* Update the error code */
1261:Drivers/STM32F1xx_HAL_Driver/Src/stm32f1xx_hal_dac.c ****         hdac->ErrorCode |= HAL_DAC_ERROR_INVALID_CALLBACK;
1262:Drivers/STM32F1xx_HAL_Driver/Src/stm32f1xx_hal_dac.c ****         /* update return status */
1263:Drivers/STM32F1xx_HAL_Driver/Src/stm32f1xx_hal_dac.c ****         status =  HAL_ERROR;
1264:Drivers/STM32F1xx_HAL_Driver/Src/stm32f1xx_hal_dac.c ****         break;
1265:Drivers/STM32F1xx_HAL_Driver/Src/stm32f1xx_hal_dac.c ****     }
1266:Drivers/STM32F1xx_HAL_Driver/Src/stm32f1xx_hal_dac.c ****   }
1267:Drivers/STM32F1xx_HAL_Driver/Src/stm32f1xx_hal_dac.c ****   else
1268:Drivers/STM32F1xx_HAL_Driver/Src/stm32f1xx_hal_dac.c ****   {
1269:Drivers/STM32F1xx_HAL_Driver/Src/stm32f1xx_hal_dac.c ****     /* Update the error code */
1270:Drivers/STM32F1xx_HAL_Driver/Src/stm32f1xx_hal_dac.c ****     hdac->ErrorCode |= HAL_DAC_ERROR_INVALID_CALLBACK;
1271:Drivers/STM32F1xx_HAL_Driver/Src/stm32f1xx_hal_dac.c ****     /* update return status */
1272:Drivers/STM32F1xx_HAL_Driver/Src/stm32f1xx_hal_dac.c ****     status =  HAL_ERROR;
1273:Drivers/STM32F1xx_HAL_Driver/Src/stm32f1xx_hal_dac.c ****   }
1274:Drivers/STM32F1xx_HAL_Driver/Src/stm32f1xx_hal_dac.c **** 
1275:Drivers/STM32F1xx_HAL_Driver/Src/stm32f1xx_hal_dac.c ****   /* Release Lock */
1276:Drivers/STM32F1xx_HAL_Driver/Src/stm32f1xx_hal_dac.c ****   __HAL_UNLOCK(hdac);
1277:Drivers/STM32F1xx_HAL_Driver/Src/stm32f1xx_hal_dac.c ****   return status;
1278:Drivers/STM32F1xx_HAL_Driver/Src/stm32f1xx_hal_dac.c **** }
1279:Drivers/STM32F1xx_HAL_Driver/Src/stm32f1xx_hal_dac.c **** #endif /* USE_HAL_DAC_REGISTER_CALLBACKS */
1280:Drivers/STM32F1xx_HAL_Driver/Src/stm32f1xx_hal_dac.c **** 
1281:Drivers/STM32F1xx_HAL_Driver/Src/stm32f1xx_hal_dac.c **** /**
1282:Drivers/STM32F1xx_HAL_Driver/Src/stm32f1xx_hal_dac.c ****   * @}
1283:Drivers/STM32F1xx_HAL_Driver/Src/stm32f1xx_hal_dac.c ****   */
1284:Drivers/STM32F1xx_HAL_Driver/Src/stm32f1xx_hal_dac.c **** 
1285:Drivers/STM32F1xx_HAL_Driver/Src/stm32f1xx_hal_dac.c **** /**
1286:Drivers/STM32F1xx_HAL_Driver/Src/stm32f1xx_hal_dac.c ****   * @}
1287:Drivers/STM32F1xx_HAL_Driver/Src/stm32f1xx_hal_dac.c ****   */
1288:Drivers/STM32F1xx_HAL_Driver/Src/stm32f1xx_hal_dac.c **** 
1289:Drivers/STM32F1xx_HAL_Driver/Src/stm32f1xx_hal_dac.c **** /** @addtogroup DAC_Private_Functions
1290:Drivers/STM32F1xx_HAL_Driver/Src/stm32f1xx_hal_dac.c ****   * @{
1291:Drivers/STM32F1xx_HAL_Driver/Src/stm32f1xx_hal_dac.c ****   */
1292:Drivers/STM32F1xx_HAL_Driver/Src/stm32f1xx_hal_dac.c **** 
1293:Drivers/STM32F1xx_HAL_Driver/Src/stm32f1xx_hal_dac.c **** /**
1294:Drivers/STM32F1xx_HAL_Driver/Src/stm32f1xx_hal_dac.c ****   * @brief  DMA conversion complete callback.
1295:Drivers/STM32F1xx_HAL_Driver/Src/stm32f1xx_hal_dac.c ****   * @param  hdma pointer to a DMA_HandleTypeDef structure that contains
1296:Drivers/STM32F1xx_HAL_Driver/Src/stm32f1xx_hal_dac.c ****   *                the configuration information for the specified DMA module.
1297:Drivers/STM32F1xx_HAL_Driver/Src/stm32f1xx_hal_dac.c ****   * @retval None
1298:Drivers/STM32F1xx_HAL_Driver/Src/stm32f1xx_hal_dac.c ****   */
1299:Drivers/STM32F1xx_HAL_Driver/Src/stm32f1xx_hal_dac.c **** void DAC_DMAConvCpltCh1(DMA_HandleTypeDef *hdma)
1300:Drivers/STM32F1xx_HAL_Driver/Src/stm32f1xx_hal_dac.c **** {
 832              		.loc 1 1300 1 is_stmt 1 view -0
 833              		.cfi_startproc
 834              		@ args = 0, pretend = 0, frame = 0
 835              		@ frame_needed = 0, uses_anonymous_args = 0
 836              		.loc 1 1300 1 is_stmt 0 view .LVU229
 837 0000 10B5     		push	{r4, lr}
 838              	.LCFI17:
 839              		.cfi_def_cfa_offset 8
 840              		.cfi_offset 4, -8
 841              		.cfi_offset 14, -4
1301:Drivers/STM32F1xx_HAL_Driver/Src/stm32f1xx_hal_dac.c ****   DAC_HandleTypeDef *hdac = (DAC_HandleTypeDef *)((DMA_HandleTypeDef *)hdma)->Parent;
 842              		.loc 1 1301 3 is_stmt 1 view .LVU230
 843              		.loc 1 1301 22 is_stmt 0 view .LVU231
 844 0002 446A     		ldr	r4, [r0, #36]
ARM GAS  /tmp/ccMmQP8f.s 			page 40


 845              	.LVL59:
1302:Drivers/STM32F1xx_HAL_Driver/Src/stm32f1xx_hal_dac.c **** 
1303:Drivers/STM32F1xx_HAL_Driver/Src/stm32f1xx_hal_dac.c **** #if (USE_HAL_DAC_REGISTER_CALLBACKS == 1)
1304:Drivers/STM32F1xx_HAL_Driver/Src/stm32f1xx_hal_dac.c ****   hdac->ConvCpltCallbackCh1(hdac);
1305:Drivers/STM32F1xx_HAL_Driver/Src/stm32f1xx_hal_dac.c **** #else
1306:Drivers/STM32F1xx_HAL_Driver/Src/stm32f1xx_hal_dac.c ****   HAL_DAC_ConvCpltCallbackCh1(hdac);
 846              		.loc 1 1306 3 is_stmt 1 view .LVU232
 847 0004 2046     		mov	r0, r4
 848              	.LVL60:
 849              		.loc 1 1306 3 is_stmt 0 view .LVU233
 850 0006 FFF7FEFF 		bl	HAL_DAC_ConvCpltCallbackCh1
 851              	.LVL61:
1307:Drivers/STM32F1xx_HAL_Driver/Src/stm32f1xx_hal_dac.c **** #endif /* USE_HAL_DAC_REGISTER_CALLBACKS */
1308:Drivers/STM32F1xx_HAL_Driver/Src/stm32f1xx_hal_dac.c **** 
1309:Drivers/STM32F1xx_HAL_Driver/Src/stm32f1xx_hal_dac.c ****   hdac->State = HAL_DAC_STATE_READY;
 852              		.loc 1 1309 3 is_stmt 1 view .LVU234
 853              		.loc 1 1309 15 is_stmt 0 view .LVU235
 854 000a 0123     		movs	r3, #1
 855 000c 2371     		strb	r3, [r4, #4]
1310:Drivers/STM32F1xx_HAL_Driver/Src/stm32f1xx_hal_dac.c **** }
 856              		.loc 1 1310 1 view .LVU236
 857 000e 10BD     		pop	{r4, pc}
 858              		.loc 1 1310 1 view .LVU237
 859              		.cfi_endproc
 860              	.LFE83:
 862              		.section	.text.HAL_DAC_ConvHalfCpltCallbackCh1,"ax",%progbits
 863              		.align	1
 864              		.weak	HAL_DAC_ConvHalfCpltCallbackCh1
 865              		.syntax unified
 866              		.thumb
 867              		.thumb_func
 868              		.fpu softvfp
 870              	HAL_DAC_ConvHalfCpltCallbackCh1:
 871              	.LVL62:
 872              	.LFB76:
 860:Drivers/STM32F1xx_HAL_Driver/Src/stm32f1xx_hal_dac.c ****   /* Prevent unused argument(s) compilation warning */
 873              		.loc 1 860 1 is_stmt 1 view -0
 874              		.cfi_startproc
 875              		@ args = 0, pretend = 0, frame = 0
 876              		@ frame_needed = 0, uses_anonymous_args = 0
 877              		@ link register save eliminated.
 862:Drivers/STM32F1xx_HAL_Driver/Src/stm32f1xx_hal_dac.c **** 
 878              		.loc 1 862 3 view .LVU239
 867:Drivers/STM32F1xx_HAL_Driver/Src/stm32f1xx_hal_dac.c **** 
 879              		.loc 1 867 1 is_stmt 0 view .LVU240
 880 0000 7047     		bx	lr
 881              		.cfi_endproc
 882              	.LFE76:
 884              		.section	.text.DAC_DMAHalfConvCpltCh1,"ax",%progbits
 885              		.align	1
 886              		.global	DAC_DMAHalfConvCpltCh1
 887              		.syntax unified
 888              		.thumb
 889              		.thumb_func
 890              		.fpu softvfp
 892              	DAC_DMAHalfConvCpltCh1:
 893              	.LVL63:
ARM GAS  /tmp/ccMmQP8f.s 			page 41


 894              	.LFB84:
1311:Drivers/STM32F1xx_HAL_Driver/Src/stm32f1xx_hal_dac.c **** 
1312:Drivers/STM32F1xx_HAL_Driver/Src/stm32f1xx_hal_dac.c **** /**
1313:Drivers/STM32F1xx_HAL_Driver/Src/stm32f1xx_hal_dac.c ****   * @brief  DMA half transfer complete callback.
1314:Drivers/STM32F1xx_HAL_Driver/Src/stm32f1xx_hal_dac.c ****   * @param  hdma pointer to a DMA_HandleTypeDef structure that contains
1315:Drivers/STM32F1xx_HAL_Driver/Src/stm32f1xx_hal_dac.c ****   *                the configuration information for the specified DMA module.
1316:Drivers/STM32F1xx_HAL_Driver/Src/stm32f1xx_hal_dac.c ****   * @retval None
1317:Drivers/STM32F1xx_HAL_Driver/Src/stm32f1xx_hal_dac.c ****   */
1318:Drivers/STM32F1xx_HAL_Driver/Src/stm32f1xx_hal_dac.c **** void DAC_DMAHalfConvCpltCh1(DMA_HandleTypeDef *hdma)
1319:Drivers/STM32F1xx_HAL_Driver/Src/stm32f1xx_hal_dac.c **** {
 895              		.loc 1 1319 1 is_stmt 1 view -0
 896              		.cfi_startproc
 897              		@ args = 0, pretend = 0, frame = 0
 898              		@ frame_needed = 0, uses_anonymous_args = 0
 899              		.loc 1 1319 1 is_stmt 0 view .LVU242
 900 0000 08B5     		push	{r3, lr}
 901              	.LCFI18:
 902              		.cfi_def_cfa_offset 8
 903              		.cfi_offset 3, -8
 904              		.cfi_offset 14, -4
1320:Drivers/STM32F1xx_HAL_Driver/Src/stm32f1xx_hal_dac.c ****   DAC_HandleTypeDef *hdac = (DAC_HandleTypeDef *)((DMA_HandleTypeDef *)hdma)->Parent;
 905              		.loc 1 1320 3 is_stmt 1 view .LVU243
 906              	.LVL64:
1321:Drivers/STM32F1xx_HAL_Driver/Src/stm32f1xx_hal_dac.c ****   /* Conversion complete callback */
1322:Drivers/STM32F1xx_HAL_Driver/Src/stm32f1xx_hal_dac.c **** #if (USE_HAL_DAC_REGISTER_CALLBACKS == 1)
1323:Drivers/STM32F1xx_HAL_Driver/Src/stm32f1xx_hal_dac.c ****   hdac->ConvHalfCpltCallbackCh1(hdac);
1324:Drivers/STM32F1xx_HAL_Driver/Src/stm32f1xx_hal_dac.c **** #else
1325:Drivers/STM32F1xx_HAL_Driver/Src/stm32f1xx_hal_dac.c ****   HAL_DAC_ConvHalfCpltCallbackCh1(hdac);
 907              		.loc 1 1325 3 view .LVU244
 908 0002 406A     		ldr	r0, [r0, #36]
 909              	.LVL65:
 910              		.loc 1 1325 3 is_stmt 0 view .LVU245
 911 0004 FFF7FEFF 		bl	HAL_DAC_ConvHalfCpltCallbackCh1
 912              	.LVL66:
1326:Drivers/STM32F1xx_HAL_Driver/Src/stm32f1xx_hal_dac.c **** #endif  /* USE_HAL_DAC_REGISTER_CALLBACKS */
1327:Drivers/STM32F1xx_HAL_Driver/Src/stm32f1xx_hal_dac.c **** }
 913              		.loc 1 1327 1 view .LVU246
 914 0008 08BD     		pop	{r3, pc}
 915              		.cfi_endproc
 916              	.LFE84:
 918              		.section	.text.HAL_DAC_ErrorCallbackCh1,"ax",%progbits
 919              		.align	1
 920              		.weak	HAL_DAC_ErrorCallbackCh1
 921              		.syntax unified
 922              		.thumb
 923              		.thumb_func
 924              		.fpu softvfp
 926              	HAL_DAC_ErrorCallbackCh1:
 927              	.LVL67:
 928              	.LFB77:
 876:Drivers/STM32F1xx_HAL_Driver/Src/stm32f1xx_hal_dac.c ****   /* Prevent unused argument(s) compilation warning */
 929              		.loc 1 876 1 is_stmt 1 view -0
 930              		.cfi_startproc
 931              		@ args = 0, pretend = 0, frame = 0
 932              		@ frame_needed = 0, uses_anonymous_args = 0
 933              		@ link register save eliminated.
 878:Drivers/STM32F1xx_HAL_Driver/Src/stm32f1xx_hal_dac.c **** 
ARM GAS  /tmp/ccMmQP8f.s 			page 42


 934              		.loc 1 878 3 view .LVU248
 883:Drivers/STM32F1xx_HAL_Driver/Src/stm32f1xx_hal_dac.c **** 
 935              		.loc 1 883 1 is_stmt 0 view .LVU249
 936 0000 7047     		bx	lr
 937              		.cfi_endproc
 938              	.LFE77:
 940              		.section	.text.DAC_DMAErrorCh1,"ax",%progbits
 941              		.align	1
 942              		.global	DAC_DMAErrorCh1
 943              		.syntax unified
 944              		.thumb
 945              		.thumb_func
 946              		.fpu softvfp
 948              	DAC_DMAErrorCh1:
 949              	.LVL68:
 950              	.LFB85:
1328:Drivers/STM32F1xx_HAL_Driver/Src/stm32f1xx_hal_dac.c **** 
1329:Drivers/STM32F1xx_HAL_Driver/Src/stm32f1xx_hal_dac.c **** /**
1330:Drivers/STM32F1xx_HAL_Driver/Src/stm32f1xx_hal_dac.c ****   * @brief  DMA error callback
1331:Drivers/STM32F1xx_HAL_Driver/Src/stm32f1xx_hal_dac.c ****   * @param  hdma pointer to a DMA_HandleTypeDef structure that contains
1332:Drivers/STM32F1xx_HAL_Driver/Src/stm32f1xx_hal_dac.c ****   *                the configuration information for the specified DMA module.
1333:Drivers/STM32F1xx_HAL_Driver/Src/stm32f1xx_hal_dac.c ****   * @retval None
1334:Drivers/STM32F1xx_HAL_Driver/Src/stm32f1xx_hal_dac.c ****   */
1335:Drivers/STM32F1xx_HAL_Driver/Src/stm32f1xx_hal_dac.c **** void DAC_DMAErrorCh1(DMA_HandleTypeDef *hdma)
1336:Drivers/STM32F1xx_HAL_Driver/Src/stm32f1xx_hal_dac.c **** {
 951              		.loc 1 1336 1 is_stmt 1 view -0
 952              		.cfi_startproc
 953              		@ args = 0, pretend = 0, frame = 0
 954              		@ frame_needed = 0, uses_anonymous_args = 0
 955              		.loc 1 1336 1 is_stmt 0 view .LVU251
 956 0000 10B5     		push	{r4, lr}
 957              	.LCFI19:
 958              		.cfi_def_cfa_offset 8
 959              		.cfi_offset 4, -8
 960              		.cfi_offset 14, -4
1337:Drivers/STM32F1xx_HAL_Driver/Src/stm32f1xx_hal_dac.c ****   DAC_HandleTypeDef *hdac = (DAC_HandleTypeDef *)((DMA_HandleTypeDef *)hdma)->Parent;
 961              		.loc 1 1337 3 is_stmt 1 view .LVU252
 962              		.loc 1 1337 22 is_stmt 0 view .LVU253
 963 0002 446A     		ldr	r4, [r0, #36]
 964              	.LVL69:
1338:Drivers/STM32F1xx_HAL_Driver/Src/stm32f1xx_hal_dac.c **** 
1339:Drivers/STM32F1xx_HAL_Driver/Src/stm32f1xx_hal_dac.c ****   /* Set DAC error code to DMA error */
1340:Drivers/STM32F1xx_HAL_Driver/Src/stm32f1xx_hal_dac.c ****   hdac->ErrorCode |= HAL_DAC_ERROR_DMA;
 965              		.loc 1 1340 3 is_stmt 1 view .LVU254
 966              		.loc 1 1340 19 is_stmt 0 view .LVU255
 967 0004 2369     		ldr	r3, [r4, #16]
 968 0006 43F00403 		orr	r3, r3, #4
 969 000a 2361     		str	r3, [r4, #16]
1341:Drivers/STM32F1xx_HAL_Driver/Src/stm32f1xx_hal_dac.c **** 
1342:Drivers/STM32F1xx_HAL_Driver/Src/stm32f1xx_hal_dac.c **** #if (USE_HAL_DAC_REGISTER_CALLBACKS == 1)
1343:Drivers/STM32F1xx_HAL_Driver/Src/stm32f1xx_hal_dac.c ****   hdac->ErrorCallbackCh1(hdac);
1344:Drivers/STM32F1xx_HAL_Driver/Src/stm32f1xx_hal_dac.c **** #else
1345:Drivers/STM32F1xx_HAL_Driver/Src/stm32f1xx_hal_dac.c ****   HAL_DAC_ErrorCallbackCh1(hdac);
 970              		.loc 1 1345 3 is_stmt 1 view .LVU256
 971 000c 2046     		mov	r0, r4
 972              	.LVL70:
 973              		.loc 1 1345 3 is_stmt 0 view .LVU257
ARM GAS  /tmp/ccMmQP8f.s 			page 43


 974 000e FFF7FEFF 		bl	HAL_DAC_ErrorCallbackCh1
 975              	.LVL71:
1346:Drivers/STM32F1xx_HAL_Driver/Src/stm32f1xx_hal_dac.c **** #endif /* USE_HAL_DAC_REGISTER_CALLBACKS */
1347:Drivers/STM32F1xx_HAL_Driver/Src/stm32f1xx_hal_dac.c **** 
1348:Drivers/STM32F1xx_HAL_Driver/Src/stm32f1xx_hal_dac.c ****   hdac->State = HAL_DAC_STATE_READY;
 976              		.loc 1 1348 3 is_stmt 1 view .LVU258
 977              		.loc 1 1348 15 is_stmt 0 view .LVU259
 978 0012 0123     		movs	r3, #1
 979 0014 2371     		strb	r3, [r4, #4]
1349:Drivers/STM32F1xx_HAL_Driver/Src/stm32f1xx_hal_dac.c **** }
 980              		.loc 1 1349 1 view .LVU260
 981 0016 10BD     		pop	{r4, pc}
 982              		.loc 1 1349 1 view .LVU261
 983              		.cfi_endproc
 984              	.LFE85:
 986              		.section	.text.HAL_DAC_DMAUnderrunCallbackCh1,"ax",%progbits
 987              		.align	1
 988              		.weak	HAL_DAC_DMAUnderrunCallbackCh1
 989              		.syntax unified
 990              		.thumb
 991              		.thumb_func
 992              		.fpu softvfp
 994              	HAL_DAC_DMAUnderrunCallbackCh1:
 995              	.LVL72:
 996              	.LFB78:
 892:Drivers/STM32F1xx_HAL_Driver/Src/stm32f1xx_hal_dac.c ****   /* Prevent unused argument(s) compilation warning */
 997              		.loc 1 892 1 is_stmt 1 view -0
 998              		.cfi_startproc
 999              		@ args = 0, pretend = 0, frame = 0
 1000              		@ frame_needed = 0, uses_anonymous_args = 0
 1001              		@ link register save eliminated.
 894:Drivers/STM32F1xx_HAL_Driver/Src/stm32f1xx_hal_dac.c **** 
 1002              		.loc 1 894 3 view .LVU263
 899:Drivers/STM32F1xx_HAL_Driver/Src/stm32f1xx_hal_dac.c **** 
 1003              		.loc 1 899 1 is_stmt 0 view .LVU264
 1004 0000 7047     		bx	lr
 1005              		.cfi_endproc
 1006              	.LFE78:
 1008              		.section	.text.HAL_DAC_GetValue,"ax",%progbits
 1009              		.align	1
 1010              		.global	HAL_DAC_GetValue
 1011              		.syntax unified
 1012              		.thumb
 1013              		.thumb_func
 1014              		.fpu softvfp
 1016              	HAL_DAC_GetValue:
 1017              	.LVL73:
 1018              	.LFB79:
 931:Drivers/STM32F1xx_HAL_Driver/Src/stm32f1xx_hal_dac.c ****   /* Check the parameters */
 1019              		.loc 1 931 1 is_stmt 1 view -0
 1020              		.cfi_startproc
 1021              		@ args = 0, pretend = 0, frame = 0
 1022              		@ frame_needed = 0, uses_anonymous_args = 0
 1023              		@ link register save eliminated.
 933:Drivers/STM32F1xx_HAL_Driver/Src/stm32f1xx_hal_dac.c **** 
 1024              		.loc 1 933 3 view .LVU266
 936:Drivers/STM32F1xx_HAL_Driver/Src/stm32f1xx_hal_dac.c ****   {
ARM GAS  /tmp/ccMmQP8f.s 			page 44


 1025              		.loc 1 936 3 view .LVU267
 936:Drivers/STM32F1xx_HAL_Driver/Src/stm32f1xx_hal_dac.c ****   {
 1026              		.loc 1 936 6 is_stmt 0 view .LVU268
 1027 0000 11B9     		cbnz	r1, .L72
 938:Drivers/STM32F1xx_HAL_Driver/Src/stm32f1xx_hal_dac.c ****   }
 1028              		.loc 1 938 5 is_stmt 1 view .LVU269
 938:Drivers/STM32F1xx_HAL_Driver/Src/stm32f1xx_hal_dac.c ****   }
 1029              		.loc 1 938 16 is_stmt 0 view .LVU270
 1030 0002 0368     		ldr	r3, [r0]
 938:Drivers/STM32F1xx_HAL_Driver/Src/stm32f1xx_hal_dac.c ****   }
 1031              		.loc 1 938 26 view .LVU271
 1032 0004 D86A     		ldr	r0, [r3, #44]
 1033              	.LVL74:
 938:Drivers/STM32F1xx_HAL_Driver/Src/stm32f1xx_hal_dac.c ****   }
 1034              		.loc 1 938 26 view .LVU272
 1035 0006 7047     		bx	lr
 1036              	.LVL75:
 1037              	.L72:
 942:Drivers/STM32F1xx_HAL_Driver/Src/stm32f1xx_hal_dac.c ****   }
 1038              		.loc 1 942 5 is_stmt 1 view .LVU273
 942:Drivers/STM32F1xx_HAL_Driver/Src/stm32f1xx_hal_dac.c ****   }
 1039              		.loc 1 942 16 is_stmt 0 view .LVU274
 1040 0008 0368     		ldr	r3, [r0]
 942:Drivers/STM32F1xx_HAL_Driver/Src/stm32f1xx_hal_dac.c ****   }
 1041              		.loc 1 942 26 view .LVU275
 1042 000a 186B     		ldr	r0, [r3, #48]
 1043              	.LVL76:
 944:Drivers/STM32F1xx_HAL_Driver/Src/stm32f1xx_hal_dac.c **** 
 1044              		.loc 1 944 1 view .LVU276
 1045 000c 7047     		bx	lr
 1046              		.cfi_endproc
 1047              	.LFE79:
 1049              		.section	.text.HAL_DAC_ConfigChannel,"ax",%progbits
 1050              		.align	1
 1051              		.global	HAL_DAC_ConfigChannel
 1052              		.syntax unified
 1053              		.thumb
 1054              		.thumb_func
 1055              		.fpu softvfp
 1057              	HAL_DAC_ConfigChannel:
 1058              	.LVL77:
 1059              	.LFB80:
 958:Drivers/STM32F1xx_HAL_Driver/Src/stm32f1xx_hal_dac.c ****   uint32_t tmpreg1;
 1060              		.loc 1 958 1 is_stmt 1 view -0
 1061              		.cfi_startproc
 1062              		@ args = 0, pretend = 0, frame = 0
 1063              		@ frame_needed = 0, uses_anonymous_args = 0
 1064              		@ link register save eliminated.
 959:Drivers/STM32F1xx_HAL_Driver/Src/stm32f1xx_hal_dac.c ****   uint32_t tmpreg2;
 1065              		.loc 1 959 3 view .LVU278
 960:Drivers/STM32F1xx_HAL_Driver/Src/stm32f1xx_hal_dac.c **** 
 1066              		.loc 1 960 3 view .LVU279
 963:Drivers/STM32F1xx_HAL_Driver/Src/stm32f1xx_hal_dac.c ****   assert_param(IS_DAC_OUTPUT_BUFFER_STATE(sConfig->DAC_OutputBuffer));
 1067              		.loc 1 963 3 view .LVU280
 964:Drivers/STM32F1xx_HAL_Driver/Src/stm32f1xx_hal_dac.c ****   assert_param(IS_DAC_CHANNEL(Channel));
 1068              		.loc 1 964 3 view .LVU281
 965:Drivers/STM32F1xx_HAL_Driver/Src/stm32f1xx_hal_dac.c **** 
ARM GAS  /tmp/ccMmQP8f.s 			page 45


 1069              		.loc 1 965 3 view .LVU282
 968:Drivers/STM32F1xx_HAL_Driver/Src/stm32f1xx_hal_dac.c **** 
 1070              		.loc 1 968 3 view .LVU283
 968:Drivers/STM32F1xx_HAL_Driver/Src/stm32f1xx_hal_dac.c **** 
 1071              		.loc 1 968 3 view .LVU284
 1072 0000 4379     		ldrb	r3, [r0, #5]	@ zero_extendqisi2
 1073 0002 012B     		cmp	r3, #1
 1074 0004 26D0     		beq	.L76
 958:Drivers/STM32F1xx_HAL_Driver/Src/stm32f1xx_hal_dac.c ****   uint32_t tmpreg1;
 1075              		.loc 1 958 1 is_stmt 0 discriminator 2 view .LVU285
 1076 0006 70B4     		push	{r4, r5, r6}
 1077              	.LCFI20:
 1078              		.cfi_def_cfa_offset 12
 1079              		.cfi_offset 4, -12
 1080              		.cfi_offset 5, -8
 1081              		.cfi_offset 6, -4
 968:Drivers/STM32F1xx_HAL_Driver/Src/stm32f1xx_hal_dac.c **** 
 1082              		.loc 1 968 3 is_stmt 1 discriminator 2 view .LVU286
 1083 0008 0124     		movs	r4, #1
 1084 000a 4471     		strb	r4, [r0, #5]
 968:Drivers/STM32F1xx_HAL_Driver/Src/stm32f1xx_hal_dac.c **** 
 1085              		.loc 1 968 3 discriminator 2 view .LVU287
 971:Drivers/STM32F1xx_HAL_Driver/Src/stm32f1xx_hal_dac.c **** 
 1086              		.loc 1 971 3 discriminator 2 view .LVU288
 971:Drivers/STM32F1xx_HAL_Driver/Src/stm32f1xx_hal_dac.c **** 
 1087              		.loc 1 971 15 is_stmt 0 discriminator 2 view .LVU289
 1088 000c 0223     		movs	r3, #2
 1089 000e 0371     		strb	r3, [r0, #4]
 974:Drivers/STM32F1xx_HAL_Driver/Src/stm32f1xx_hal_dac.c ****   /* Clear BOFFx, TENx, TSELx, WAVEx and MAMPx bits */
 1090              		.loc 1 974 3 is_stmt 1 discriminator 2 view .LVU290
 974:Drivers/STM32F1xx_HAL_Driver/Src/stm32f1xx_hal_dac.c ****   /* Clear BOFFx, TENx, TSELx, WAVEx and MAMPx bits */
 1091              		.loc 1 974 17 is_stmt 0 discriminator 2 view .LVU291
 1092 0010 0668     		ldr	r6, [r0]
 974:Drivers/STM32F1xx_HAL_Driver/Src/stm32f1xx_hal_dac.c ****   /* Clear BOFFx, TENx, TSELx, WAVEx and MAMPx bits */
 1093              		.loc 1 974 11 discriminator 2 view .LVU292
 1094 0012 3368     		ldr	r3, [r6]
 1095              	.LVL78:
 976:Drivers/STM32F1xx_HAL_Driver/Src/stm32f1xx_hal_dac.c ****   /* Configure for the selected DAC channel: buffer output, trigger */
 1096              		.loc 1 976 3 is_stmt 1 discriminator 2 view .LVU293
 976:Drivers/STM32F1xx_HAL_Driver/Src/stm32f1xx_hal_dac.c ****   /* Configure for the selected DAC channel: buffer output, trigger */
 1097              		.loc 1 976 114 is_stmt 0 discriminator 2 view .LVU294
 1098 0014 02F01002 		and	r2, r2, #16
 1099              	.LVL79:
 976:Drivers/STM32F1xx_HAL_Driver/Src/stm32f1xx_hal_dac.c ****   /* Configure for the selected DAC channel: buffer output, trigger */
 1100              		.loc 1 976 102 discriminator 2 view .LVU295
 1101 0018 40F6FE75 		movw	r5, #4094
 1102 001c 9540     		lsls	r5, r5, r2
 976:Drivers/STM32F1xx_HAL_Driver/Src/stm32f1xx_hal_dac.c ****   /* Configure for the selected DAC channel: buffer output, trigger */
 1103              		.loc 1 976 11 discriminator 2 view .LVU296
 1104 001e 23EA0505 		bic	r5, r3, r5
 1105              	.LVL80:
 980:Drivers/STM32F1xx_HAL_Driver/Src/stm32f1xx_hal_dac.c ****   /* Calculate CR register value depending on DAC_Channel */
 1106              		.loc 1 980 3 is_stmt 1 discriminator 2 view .LVU297
 980:Drivers/STM32F1xx_HAL_Driver/Src/stm32f1xx_hal_dac.c ****   /* Calculate CR register value depending on DAC_Channel */
 1107              		.loc 1 980 21 is_stmt 0 discriminator 2 view .LVU298
 1108 0022 0B68     		ldr	r3, [r1]
 980:Drivers/STM32F1xx_HAL_Driver/Src/stm32f1xx_hal_dac.c ****   /* Calculate CR register value depending on DAC_Channel */
ARM GAS  /tmp/ccMmQP8f.s 			page 46


 1109              		.loc 1 980 44 discriminator 2 view .LVU299
 1110 0024 4968     		ldr	r1, [r1, #4]
 1111              	.LVL81:
 980:Drivers/STM32F1xx_HAL_Driver/Src/stm32f1xx_hal_dac.c ****   /* Calculate CR register value depending on DAC_Channel */
 1112              		.loc 1 980 11 discriminator 2 view .LVU300
 1113 0026 0B43     		orrs	r3, r3, r1
 1114              	.LVL82:
 982:Drivers/STM32F1xx_HAL_Driver/Src/stm32f1xx_hal_dac.c ****   /* Write to DAC CR */
 1115              		.loc 1 982 3 is_stmt 1 discriminator 2 view .LVU301
 982:Drivers/STM32F1xx_HAL_Driver/Src/stm32f1xx_hal_dac.c ****   /* Write to DAC CR */
 1116              		.loc 1 982 22 is_stmt 0 discriminator 2 view .LVU302
 1117 0028 9340     		lsls	r3, r3, r2
 1118              	.LVL83:
 982:Drivers/STM32F1xx_HAL_Driver/Src/stm32f1xx_hal_dac.c ****   /* Write to DAC CR */
 1119              		.loc 1 982 11 discriminator 2 view .LVU303
 1120 002a 2B43     		orrs	r3, r3, r5
 1121              	.LVL84:
 984:Drivers/STM32F1xx_HAL_Driver/Src/stm32f1xx_hal_dac.c ****   /* Disable wave generation */
 1122              		.loc 1 984 3 is_stmt 1 discriminator 2 view .LVU304
 984:Drivers/STM32F1xx_HAL_Driver/Src/stm32f1xx_hal_dac.c ****   /* Disable wave generation */
 1123              		.loc 1 984 22 is_stmt 0 discriminator 2 view .LVU305
 1124 002c 3360     		str	r3, [r6]
 1125              	.LVL85:
 986:Drivers/STM32F1xx_HAL_Driver/Src/stm32f1xx_hal_dac.c ****   /* Disable wave generation */
 1126              		.loc 1 986 3 is_stmt 1 discriminator 2 view .LVU306
 1127 002e 0568     		ldr	r5, [r0]
 1128 0030 2968     		ldr	r1, [r5]
 1129 0032 C023     		movs	r3, #192
 1130              	.LVL86:
 986:Drivers/STM32F1xx_HAL_Driver/Src/stm32f1xx_hal_dac.c ****   /* Disable wave generation */
 1131              		.loc 1 986 3 is_stmt 0 discriminator 2 view .LVU307
 1132 0034 03FA02F2 		lsl	r2, r3, r2
 1133 0038 21EA0201 		bic	r1, r1, r2
 1134 003c 2960     		str	r1, [r5]
 1135              	.LVL87:
 988:Drivers/STM32F1xx_HAL_Driver/Src/stm32f1xx_hal_dac.c **** 
 1136              		.loc 1 988 3 is_stmt 1 discriminator 2 view .LVU308
 988:Drivers/STM32F1xx_HAL_Driver/Src/stm32f1xx_hal_dac.c **** 
 1137              		.loc 1 988 7 is_stmt 0 discriminator 2 view .LVU309
 1138 003e 0168     		ldr	r1, [r0]
 988:Drivers/STM32F1xx_HAL_Driver/Src/stm32f1xx_hal_dac.c **** 
 1139              		.loc 1 988 22 discriminator 2 view .LVU310
 1140 0040 0B68     		ldr	r3, [r1]
 1141 0042 23EA0202 		bic	r2, r3, r2
 1142 0046 0A60     		str	r2, [r1]
 991:Drivers/STM32F1xx_HAL_Driver/Src/stm32f1xx_hal_dac.c **** 
 1143              		.loc 1 991 3 is_stmt 1 discriminator 2 view .LVU311
 991:Drivers/STM32F1xx_HAL_Driver/Src/stm32f1xx_hal_dac.c **** 
 1144              		.loc 1 991 15 is_stmt 0 discriminator 2 view .LVU312
 1145 0048 0471     		strb	r4, [r0, #4]
 994:Drivers/STM32F1xx_HAL_Driver/Src/stm32f1xx_hal_dac.c **** 
 1146              		.loc 1 994 3 is_stmt 1 discriminator 2 view .LVU313
 994:Drivers/STM32F1xx_HAL_Driver/Src/stm32f1xx_hal_dac.c **** 
 1147              		.loc 1 994 3 discriminator 2 view .LVU314
 1148 004a 0023     		movs	r3, #0
 1149 004c 4371     		strb	r3, [r0, #5]
 994:Drivers/STM32F1xx_HAL_Driver/Src/stm32f1xx_hal_dac.c **** 
ARM GAS  /tmp/ccMmQP8f.s 			page 47


 1150              		.loc 1 994 3 discriminator 2 view .LVU315
 997:Drivers/STM32F1xx_HAL_Driver/Src/stm32f1xx_hal_dac.c **** }
 1151              		.loc 1 997 3 discriminator 2 view .LVU316
 997:Drivers/STM32F1xx_HAL_Driver/Src/stm32f1xx_hal_dac.c **** }
 1152              		.loc 1 997 10 is_stmt 0 discriminator 2 view .LVU317
 1153 004e 1846     		mov	r0, r3
 1154              	.LVL88:
 998:Drivers/STM32F1xx_HAL_Driver/Src/stm32f1xx_hal_dac.c **** 
 1155              		.loc 1 998 1 discriminator 2 view .LVU318
 1156 0050 70BC     		pop	{r4, r5, r6}
 1157              	.LCFI21:
 1158              		.cfi_restore 6
 1159              		.cfi_restore 5
 1160              		.cfi_restore 4
 1161              		.cfi_def_cfa_offset 0
 1162 0052 7047     		bx	lr
 1163              	.LVL89:
 1164              	.L76:
 968:Drivers/STM32F1xx_HAL_Driver/Src/stm32f1xx_hal_dac.c **** 
 1165              		.loc 1 968 3 view .LVU319
 1166 0054 0220     		movs	r0, #2
 1167              	.LVL90:
 998:Drivers/STM32F1xx_HAL_Driver/Src/stm32f1xx_hal_dac.c **** 
 1168              		.loc 1 998 1 view .LVU320
 1169 0056 7047     		bx	lr
 1170              		.cfi_endproc
 1171              	.LFE80:
 1173              		.section	.text.HAL_DAC_GetState,"ax",%progbits
 1174              		.align	1
 1175              		.global	HAL_DAC_GetState
 1176              		.syntax unified
 1177              		.thumb
 1178              		.thumb_func
 1179              		.fpu softvfp
 1181              	HAL_DAC_GetState:
 1182              	.LVL91:
 1183              	.LFB81:
1027:Drivers/STM32F1xx_HAL_Driver/Src/stm32f1xx_hal_dac.c ****   /* Return DAC handle state */
 1184              		.loc 1 1027 1 is_stmt 1 view -0
 1185              		.cfi_startproc
 1186              		@ args = 0, pretend = 0, frame = 0
 1187              		@ frame_needed = 0, uses_anonymous_args = 0
 1188              		@ link register save eliminated.
1029:Drivers/STM32F1xx_HAL_Driver/Src/stm32f1xx_hal_dac.c **** }
 1189              		.loc 1 1029 3 view .LVU322
1029:Drivers/STM32F1xx_HAL_Driver/Src/stm32f1xx_hal_dac.c **** }
 1190              		.loc 1 1029 14 is_stmt 0 view .LVU323
 1191 0000 0079     		ldrb	r0, [r0, #4]	@ zero_extendqisi2
 1192              	.LVL92:
1030:Drivers/STM32F1xx_HAL_Driver/Src/stm32f1xx_hal_dac.c **** 
 1193              		.loc 1 1030 1 view .LVU324
 1194 0002 7047     		bx	lr
 1195              		.cfi_endproc
 1196              	.LFE81:
 1198              		.section	.text.HAL_DAC_GetError,"ax",%progbits
 1199              		.align	1
 1200              		.global	HAL_DAC_GetError
ARM GAS  /tmp/ccMmQP8f.s 			page 48


 1201              		.syntax unified
 1202              		.thumb
 1203              		.thumb_func
 1204              		.fpu softvfp
 1206              	HAL_DAC_GetError:
 1207              	.LVL93:
 1208              	.LFB82:
1040:Drivers/STM32F1xx_HAL_Driver/Src/stm32f1xx_hal_dac.c ****   return hdac->ErrorCode;
 1209              		.loc 1 1040 1 is_stmt 1 view -0
 1210              		.cfi_startproc
 1211              		@ args = 0, pretend = 0, frame = 0
 1212              		@ frame_needed = 0, uses_anonymous_args = 0
 1213              		@ link register save eliminated.
1041:Drivers/STM32F1xx_HAL_Driver/Src/stm32f1xx_hal_dac.c **** }
 1214              		.loc 1 1041 3 view .LVU326
1041:Drivers/STM32F1xx_HAL_Driver/Src/stm32f1xx_hal_dac.c **** }
 1215              		.loc 1 1041 14 is_stmt 0 view .LVU327
 1216 0000 0069     		ldr	r0, [r0, #16]
 1217              	.LVL94:
1042:Drivers/STM32F1xx_HAL_Driver/Src/stm32f1xx_hal_dac.c **** 
 1218              		.loc 1 1042 1 view .LVU328
 1219 0002 7047     		bx	lr
 1220              		.cfi_endproc
 1221              	.LFE82:
 1223              		.text
 1224              	.Letext0:
 1225              		.file 2 "/usr/lib/gcc/arm-none-eabi/9.2.1/include/stdint.h"
 1226              		.file 3 "Drivers/CMSIS/Include/core_cm3.h"
 1227              		.file 4 "Drivers/CMSIS/Device/ST/STM32F1xx/Include/system_stm32f1xx.h"
 1228              		.file 5 "Drivers/CMSIS/Device/ST/STM32F1xx/Include/stm32f103xe.h"
 1229              		.file 6 "Drivers/STM32F1xx_HAL_Driver/Inc/stm32f1xx_hal_def.h"
 1230              		.file 7 "Drivers/STM32F1xx_HAL_Driver/Inc/stm32f1xx_hal_dma.h"
 1231              		.file 8 "Drivers/STM32F1xx_HAL_Driver/Inc/stm32f1xx_hal_dac.h"
 1232              		.file 9 "Drivers/STM32F1xx_HAL_Driver/Inc/stm32f1xx_hal.h"
ARM GAS  /tmp/ccMmQP8f.s 			page 49

