ARM GAS  /tmp/ccFsX4OU.s 			page 1


   1              		.cpu cortex-m7
   2              		.eabi_attribute 28, 1
   3              		.eabi_attribute 20, 1
   4              		.eabi_attribute 21, 1
   5              		.eabi_attribute 23, 3
   6              		.eabi_attribute 24, 1
   7              		.eabi_attribute 25, 1
   8              		.eabi_attribute 26, 1
   9              		.eabi_attribute 30, 1
  10              		.eabi_attribute 34, 1
  11              		.eabi_attribute 18, 4
  12              		.file	"bsp_led.c"
  13              		.text
  14              	.Ltext0:
  15              		.cfi_sections	.debug_frame
  16              		.section	.text.LED_GPIO_Config,"ax",%progbits
  17              		.align	1
  18              		.global	LED_GPIO_Config
  19              		.syntax unified
  20              		.thumb
  21              		.thumb_func
  22              		.fpu fpv5-d16
  24              	LED_GPIO_Config:
  25              	.LFB141:
  26              		.file 1 "User/led/bsp_led.c"
   1:User/led/bsp_led.c **** /**
   2:User/led/bsp_led.c ****   ******************************************************************
   3:User/led/bsp_led.c ****   * @file    bsp_led.c
   4:User/led/bsp_led.c ****   * @author  fire
   5:User/led/bsp_led.c ****   * @version V1.0
   6:User/led/bsp_led.c ****   * @date    2018-xx-xx
   7:User/led/bsp_led.c ****   * @brief   led应用函数接口
   8:User/led/bsp_led.c ****   ******************************************************************
   9:User/led/bsp_led.c ****   * @attention
  10:User/led/bsp_led.c ****   *
  11:User/led/bsp_led.c ****   * 实验平台:野火 STM32H743 开发板 
  12:User/led/bsp_led.c ****   * 论坛    :http://www.firebbs.cn
  13:User/led/bsp_led.c ****   * 淘宝    :http://firestm32.taobao.com
  14:User/led/bsp_led.c ****   *
  15:User/led/bsp_led.c ****   ******************************************************************
  16:User/led/bsp_led.c ****   */  
  17:User/led/bsp_led.c ****   
  18:User/led/bsp_led.c **** #include "./led/bsp_led.h"   
  19:User/led/bsp_led.c **** 
  20:User/led/bsp_led.c ****  /**
  21:User/led/bsp_led.c ****   * @brief  初始化控制LED的IO
  22:User/led/bsp_led.c ****   * @param  无
  23:User/led/bsp_led.c ****   * @retval 无
  24:User/led/bsp_led.c ****   */
  25:User/led/bsp_led.c **** void LED_GPIO_Config(void)
  26:User/led/bsp_led.c **** {		
  27              		.loc 1 26 0
  28              		.cfi_startproc
  29              		@ args = 0, pretend = 0, frame = 32
  30              		@ frame_needed = 0, uses_anonymous_args = 0
  31 0000 2DE9F041 		push	{r4, r5, r6, r7, r8, lr}
  32              	.LCFI0:
ARM GAS  /tmp/ccFsX4OU.s 			page 2


  33              		.cfi_def_cfa_offset 24
  34              		.cfi_offset 4, -24
  35              		.cfi_offset 5, -20
  36              		.cfi_offset 6, -16
  37              		.cfi_offset 7, -12
  38              		.cfi_offset 8, -8
  39              		.cfi_offset 14, -4
  40 0004 88B0     		sub	sp, sp, #32
  41              	.LCFI1:
  42              		.cfi_def_cfa_offset 56
  43              	.LBB2:
  27:User/led/bsp_led.c **** 	/*定义一个GPIO_InitTypeDef类型的结构体*/
  28:User/led/bsp_led.c **** 	GPIO_InitTypeDef  GPIO_InitStruct;
  29:User/led/bsp_led.c **** 
  30:User/led/bsp_led.c **** 	/*开启LED相关的GPIO外设时钟*/
  31:User/led/bsp_led.c **** 	LED1_GPIO_CLK_ENABLE();
  44              		.loc 1 31 0
  45 0006 224B     		ldr	r3, .L3
  46 0008 D3F8E020 		ldr	r2, [r3, #224]
  47 000c 42F00202 		orr	r2, r2, #2
  48 0010 C3F8E020 		str	r2, [r3, #224]
  49 0014 D3F8E020 		ldr	r2, [r3, #224]
  50 0018 02F00202 		and	r2, r2, #2
  51 001c 0092     		str	r2, [sp]
  52 001e 009A     		ldr	r2, [sp]
  53              	.LBE2:
  54              	.LBB3:
  32:User/led/bsp_led.c **** 	LED2_GPIO_CLK_ENABLE();
  55              		.loc 1 32 0
  56 0020 D3F8E020 		ldr	r2, [r3, #224]
  57 0024 42F00202 		orr	r2, r2, #2
  58 0028 C3F8E020 		str	r2, [r3, #224]
  59 002c D3F8E020 		ldr	r2, [r3, #224]
  60 0030 02F00202 		and	r2, r2, #2
  61 0034 0192     		str	r2, [sp, #4]
  62 0036 019A     		ldr	r2, [sp, #4]
  63              	.LBE3:
  64              	.LBB4:
  33:User/led/bsp_led.c **** 	LED3_GPIO_CLK_ENABLE();
  65              		.loc 1 33 0
  66 0038 D3F8E020 		ldr	r2, [r3, #224]
  67 003c 42F00102 		orr	r2, r2, #1
  68 0040 C3F8E020 		str	r2, [r3, #224]
  69 0044 D3F8E030 		ldr	r3, [r3, #224]
  70 0048 03F00103 		and	r3, r3, #1
  71 004c 0293     		str	r3, [sp, #8]
  72 004e 029B     		ldr	r3, [sp, #8]
  73              	.LBE4:
  34:User/led/bsp_led.c **** 
  35:User/led/bsp_led.c **** 	/*选择要控制的GPIO引脚*/															   
  36:User/led/bsp_led.c **** 	GPIO_InitStruct.Pin = LED1_PIN;	
  74              		.loc 1 36 0
  75 0050 0125     		movs	r5, #1
  76 0052 0395     		str	r5, [sp, #12]
  37:User/led/bsp_led.c **** 
  38:User/led/bsp_led.c **** 	/*设置引脚的输出类型为推挽输出*/
  39:User/led/bsp_led.c **** 	GPIO_InitStruct.Mode  = GPIO_MODE_OUTPUT_PP;  
ARM GAS  /tmp/ccFsX4OU.s 			page 3


  77              		.loc 1 39 0
  78 0054 0495     		str	r5, [sp, #16]
  40:User/led/bsp_led.c **** 
  41:User/led/bsp_led.c **** 	/*设置引脚为上拉模式*/
  42:User/led/bsp_led.c **** 	GPIO_InitStruct.Pull  = GPIO_PULLUP;
  79              		.loc 1 42 0
  80 0056 0595     		str	r5, [sp, #20]
  43:User/led/bsp_led.c **** 
  44:User/led/bsp_led.c **** 	/*设置引脚速率为高速 */   
  45:User/led/bsp_led.c **** 	GPIO_InitStruct.Speed = GPIO_SPEED_FREQ_HIGH; 
  81              		.loc 1 45 0
  82 0058 0226     		movs	r6, #2
  83 005a 0696     		str	r6, [sp, #24]
  46:User/led/bsp_led.c **** 
  47:User/led/bsp_led.c **** 	/*调用库函数，使用上面配置的GPIO_InitStructure初始化GPIO*/
  48:User/led/bsp_led.c **** 	HAL_GPIO_Init(LED1_GPIO_PORT, &GPIO_InitStruct);	
  84              		.loc 1 48 0
  85 005c 0D4C     		ldr	r4, .L3+4
  86 005e 03A9     		add	r1, sp, #12
  87 0060 2046     		mov	r0, r4
  88 0062 FFF7FEFF 		bl	HAL_GPIO_Init
  89              	.LVL0:
  49:User/led/bsp_led.c **** 
  50:User/led/bsp_led.c **** 	/*选择要控制的GPIO引脚*/															   
  51:User/led/bsp_led.c **** 	GPIO_InitStruct.Pin = LED2_PIN;	
  90              		.loc 1 51 0
  91 0066 0396     		str	r6, [sp, #12]
  52:User/led/bsp_led.c **** 	HAL_GPIO_Init(LED2_GPIO_PORT, &GPIO_InitStruct);	
  92              		.loc 1 52 0
  93 0068 03A9     		add	r1, sp, #12
  94 006a 2046     		mov	r0, r4
  95 006c FFF7FEFF 		bl	HAL_GPIO_Init
  96              	.LVL1:
  53:User/led/bsp_led.c **** 
  54:User/led/bsp_led.c **** 	/*选择要控制的GPIO引脚*/															   
  55:User/led/bsp_led.c **** 	GPIO_InitStruct.Pin = LED3_PIN;	
  97              		.loc 1 55 0
  98 0070 4FF00808 		mov	r8, #8
  99 0074 CDF80C80 		str	r8, [sp, #12]
  56:User/led/bsp_led.c **** 	HAL_GPIO_Init(LED3_GPIO_PORT, &GPIO_InitStruct);	
 100              		.loc 1 56 0
 101 0078 074F     		ldr	r7, .L3+8
 102 007a 03A9     		add	r1, sp, #12
 103 007c 3846     		mov	r0, r7
 104 007e FFF7FEFF 		bl	HAL_GPIO_Init
 105              	.LVL2:
  57:User/led/bsp_led.c **** 
  58:User/led/bsp_led.c **** 	/*关闭RGB灯*/
  59:User/led/bsp_led.c **** 	LED_RGBOFF;	
 106              		.loc 1 59 0
 107 0082 A561     		str	r5, [r4, #24]
 108 0084 A661     		str	r6, [r4, #24]
 109 0086 C7F81880 		str	r8, [r7, #24]
  60:User/led/bsp_led.c **** }
 110              		.loc 1 60 0
 111 008a 08B0     		add	sp, sp, #32
 112              	.LCFI2:
ARM GAS  /tmp/ccFsX4OU.s 			page 4


 113              		.cfi_def_cfa_offset 24
 114              		@ sp needed
 115 008c BDE8F081 		pop	{r4, r5, r6, r7, r8, pc}
 116              	.L4:
 117              		.align	2
 118              	.L3:
 119 0090 00440258 		.word	1476543488
 120 0094 00040258 		.word	1476527104
 121 0098 00000258 		.word	1476526080
 122              		.cfi_endproc
 123              	.LFE141:
 125              		.text
 126              	.Letext0:
 127              		.file 2 "/usr/include/newlib/machine/_default_types.h"
 128              		.file 3 "/usr/include/newlib/sys/_stdint.h"
 129              		.file 4 "Libraries/CMSIS/Include/core_cm7.h"
 130              		.file 5 "Libraries/CMSIS/Device/ST/STM32H7xx/Include/system_stm32h7xx.h"
 131              		.file 6 "Libraries/CMSIS/Device/ST/STM32H7xx/Include/stm32h743xx.h"
 132              		.file 7 "/usr/include/newlib/sys/lock.h"
 133              		.file 8 "/usr/include/newlib/sys/_types.h"
 134              		.file 9 "/usr/lib/gcc/arm-none-eabi/6.3.1/include/stddef.h"
 135              		.file 10 "/usr/include/newlib/sys/reent.h"
 136              		.file 11 "/usr/include/newlib/math.h"
 137              		.file 12 "Libraries/STM32H7xx_HAL_Driver/Inc/stm32h7xx_hal_def.h"
 138              		.file 13 "Libraries/STM32H7xx_HAL_Driver/Inc/stm32h7xx_hal_gpio.h"
 139              		.file 14 "Libraries/STM32H7xx_HAL_Driver/Inc/stm32h7xx_hal_flash.h"
 140              		.file 15 "Libraries/STM32H7xx_HAL_Driver/Inc/stm32h7xx_hal.h"
ARM GAS  /tmp/ccFsX4OU.s 			page 5

