ARM GAS  /tmp/ccfAcV92.s 			page 1


   1              		.cpu cortex-m3
   2              		.eabi_attribute 20, 1
   3              		.eabi_attribute 21, 1
   4              		.eabi_attribute 23, 3
   5              		.eabi_attribute 24, 1
   6              		.eabi_attribute 25, 1
   7              		.eabi_attribute 26, 1
   8              		.eabi_attribute 30, 1
   9              		.eabi_attribute 34, 1
  10              		.eabi_attribute 18, 4
  11              		.file	"stm32f10x_flash.c"
  12              		.text
  13              	.Ltext0:
  14              		.cfi_sections	.debug_frame
  15              		.section	.text.FLASH_SetLatency,"ax",%progbits
  16              		.align	1
  17              		.global	FLASH_SetLatency
  18              		.syntax unified
  19              		.thumb
  20              		.thumb_func
  21              		.fpu softvfp
  23              	FLASH_SetLatency:
  24              	.LFB29:
  25              		.file 1 "Libraries/FWlib/src/stm32f10x_flash.c"
   1:Libraries/FWlib/src/stm32f10x_flash.c **** /**
   2:Libraries/FWlib/src/stm32f10x_flash.c ****   ******************************************************************************
   3:Libraries/FWlib/src/stm32f10x_flash.c ****   * @file    stm32f10x_flash.c
   4:Libraries/FWlib/src/stm32f10x_flash.c ****   * @author  MCD Application Team
   5:Libraries/FWlib/src/stm32f10x_flash.c ****   * @version V3.5.0
   6:Libraries/FWlib/src/stm32f10x_flash.c ****   * @date    11-March-2011
   7:Libraries/FWlib/src/stm32f10x_flash.c ****   * @brief   This file provides all the FLASH firmware functions.
   8:Libraries/FWlib/src/stm32f10x_flash.c ****   ******************************************************************************
   9:Libraries/FWlib/src/stm32f10x_flash.c ****   * @attention
  10:Libraries/FWlib/src/stm32f10x_flash.c ****   *
  11:Libraries/FWlib/src/stm32f10x_flash.c ****   * THE PRESENT FIRMWARE WHICH IS FOR GUIDANCE ONLY AIMS AT PROVIDING CUSTOMERS
  12:Libraries/FWlib/src/stm32f10x_flash.c ****   * WITH CODING INFORMATION REGARDING THEIR PRODUCTS IN ORDER FOR THEM TO SAVE
  13:Libraries/FWlib/src/stm32f10x_flash.c ****   * TIME. AS A RESULT, STMICROELECTRONICS SHALL NOT BE HELD LIABLE FOR ANY
  14:Libraries/FWlib/src/stm32f10x_flash.c ****   * DIRECT, INDIRECT OR CONSEQUENTIAL DAMAGES WITH RESPECT TO ANY CLAIMS ARISING
  15:Libraries/FWlib/src/stm32f10x_flash.c ****   * FROM THE CONTENT OF SUCH FIRMWARE AND/OR THE USE MADE BY CUSTOMERS OF THE
  16:Libraries/FWlib/src/stm32f10x_flash.c ****   * CODING INFORMATION CONTAINED HEREIN IN CONNECTION WITH THEIR PRODUCTS.
  17:Libraries/FWlib/src/stm32f10x_flash.c ****   *
  18:Libraries/FWlib/src/stm32f10x_flash.c ****   * <h2><center>&copy; COPYRIGHT 2011 STMicroelectronics</center></h2>
  19:Libraries/FWlib/src/stm32f10x_flash.c ****   ******************************************************************************
  20:Libraries/FWlib/src/stm32f10x_flash.c ****   */
  21:Libraries/FWlib/src/stm32f10x_flash.c **** 
  22:Libraries/FWlib/src/stm32f10x_flash.c **** /* Includes ------------------------------------------------------------------*/
  23:Libraries/FWlib/src/stm32f10x_flash.c **** #include "stm32f10x_flash.h"
  24:Libraries/FWlib/src/stm32f10x_flash.c **** 
  25:Libraries/FWlib/src/stm32f10x_flash.c **** /** @addtogroup STM32F10x_StdPeriph_Driver
  26:Libraries/FWlib/src/stm32f10x_flash.c ****   * @{
  27:Libraries/FWlib/src/stm32f10x_flash.c ****   */
  28:Libraries/FWlib/src/stm32f10x_flash.c **** 
  29:Libraries/FWlib/src/stm32f10x_flash.c **** /** @defgroup FLASH 
  30:Libraries/FWlib/src/stm32f10x_flash.c ****   * @brief FLASH driver modules
  31:Libraries/FWlib/src/stm32f10x_flash.c ****   * @{
  32:Libraries/FWlib/src/stm32f10x_flash.c ****   */ 
  33:Libraries/FWlib/src/stm32f10x_flash.c **** 
ARM GAS  /tmp/ccfAcV92.s 			page 2


  34:Libraries/FWlib/src/stm32f10x_flash.c **** /** @defgroup FLASH_Private_TypesDefinitions
  35:Libraries/FWlib/src/stm32f10x_flash.c ****   * @{
  36:Libraries/FWlib/src/stm32f10x_flash.c ****   */
  37:Libraries/FWlib/src/stm32f10x_flash.c **** 
  38:Libraries/FWlib/src/stm32f10x_flash.c **** /**
  39:Libraries/FWlib/src/stm32f10x_flash.c ****   * @}
  40:Libraries/FWlib/src/stm32f10x_flash.c ****   */ 
  41:Libraries/FWlib/src/stm32f10x_flash.c **** 
  42:Libraries/FWlib/src/stm32f10x_flash.c **** /** @defgroup FLASH_Private_Defines
  43:Libraries/FWlib/src/stm32f10x_flash.c ****   * @{
  44:Libraries/FWlib/src/stm32f10x_flash.c ****   */ 
  45:Libraries/FWlib/src/stm32f10x_flash.c **** 
  46:Libraries/FWlib/src/stm32f10x_flash.c **** /* Flash Access Control Register bits */
  47:Libraries/FWlib/src/stm32f10x_flash.c **** #define ACR_LATENCY_Mask         ((uint32_t)0x00000038)
  48:Libraries/FWlib/src/stm32f10x_flash.c **** #define ACR_HLFCYA_Mask          ((uint32_t)0xFFFFFFF7)
  49:Libraries/FWlib/src/stm32f10x_flash.c **** #define ACR_PRFTBE_Mask          ((uint32_t)0xFFFFFFEF)
  50:Libraries/FWlib/src/stm32f10x_flash.c **** 
  51:Libraries/FWlib/src/stm32f10x_flash.c **** /* Flash Access Control Register bits */
  52:Libraries/FWlib/src/stm32f10x_flash.c **** #define ACR_PRFTBS_Mask          ((uint32_t)0x00000020) 
  53:Libraries/FWlib/src/stm32f10x_flash.c **** 
  54:Libraries/FWlib/src/stm32f10x_flash.c **** /* Flash Control Register bits */
  55:Libraries/FWlib/src/stm32f10x_flash.c **** #define CR_PG_Set                ((uint32_t)0x00000001)
  56:Libraries/FWlib/src/stm32f10x_flash.c **** #define CR_PG_Reset              ((uint32_t)0x00001FFE) 
  57:Libraries/FWlib/src/stm32f10x_flash.c **** #define CR_PER_Set               ((uint32_t)0x00000002)
  58:Libraries/FWlib/src/stm32f10x_flash.c **** #define CR_PER_Reset             ((uint32_t)0x00001FFD)
  59:Libraries/FWlib/src/stm32f10x_flash.c **** #define CR_MER_Set               ((uint32_t)0x00000004)
  60:Libraries/FWlib/src/stm32f10x_flash.c **** #define CR_MER_Reset             ((uint32_t)0x00001FFB)
  61:Libraries/FWlib/src/stm32f10x_flash.c **** #define CR_OPTPG_Set             ((uint32_t)0x00000010)
  62:Libraries/FWlib/src/stm32f10x_flash.c **** #define CR_OPTPG_Reset           ((uint32_t)0x00001FEF)
  63:Libraries/FWlib/src/stm32f10x_flash.c **** #define CR_OPTER_Set             ((uint32_t)0x00000020)
  64:Libraries/FWlib/src/stm32f10x_flash.c **** #define CR_OPTER_Reset           ((uint32_t)0x00001FDF)
  65:Libraries/FWlib/src/stm32f10x_flash.c **** #define CR_STRT_Set              ((uint32_t)0x00000040)
  66:Libraries/FWlib/src/stm32f10x_flash.c **** #define CR_LOCK_Set              ((uint32_t)0x00000080)
  67:Libraries/FWlib/src/stm32f10x_flash.c **** 
  68:Libraries/FWlib/src/stm32f10x_flash.c **** /* FLASH Mask */
  69:Libraries/FWlib/src/stm32f10x_flash.c **** #define RDPRT_Mask               ((uint32_t)0x00000002)
  70:Libraries/FWlib/src/stm32f10x_flash.c **** #define WRP0_Mask                ((uint32_t)0x000000FF)
  71:Libraries/FWlib/src/stm32f10x_flash.c **** #define WRP1_Mask                ((uint32_t)0x0000FF00)
  72:Libraries/FWlib/src/stm32f10x_flash.c **** #define WRP2_Mask                ((uint32_t)0x00FF0000)
  73:Libraries/FWlib/src/stm32f10x_flash.c **** #define WRP3_Mask                ((uint32_t)0xFF000000)
  74:Libraries/FWlib/src/stm32f10x_flash.c **** #define OB_USER_BFB2             ((uint16_t)0x0008)
  75:Libraries/FWlib/src/stm32f10x_flash.c **** 
  76:Libraries/FWlib/src/stm32f10x_flash.c **** /* FLASH Keys */
  77:Libraries/FWlib/src/stm32f10x_flash.c **** #define RDP_Key                  ((uint16_t)0x00A5)
  78:Libraries/FWlib/src/stm32f10x_flash.c **** #define FLASH_KEY1               ((uint32_t)0x45670123)
  79:Libraries/FWlib/src/stm32f10x_flash.c **** #define FLASH_KEY2               ((uint32_t)0xCDEF89AB)
  80:Libraries/FWlib/src/stm32f10x_flash.c **** 
  81:Libraries/FWlib/src/stm32f10x_flash.c **** /* FLASH BANK address */
  82:Libraries/FWlib/src/stm32f10x_flash.c **** #define FLASH_BANK1_END_ADDRESS   ((uint32_t)0x807FFFF)
  83:Libraries/FWlib/src/stm32f10x_flash.c **** 
  84:Libraries/FWlib/src/stm32f10x_flash.c **** /* Delay definition */   
  85:Libraries/FWlib/src/stm32f10x_flash.c **** #define EraseTimeout          ((uint32_t)0x000B0000)
  86:Libraries/FWlib/src/stm32f10x_flash.c **** #define ProgramTimeout        ((uint32_t)0x00002000)
  87:Libraries/FWlib/src/stm32f10x_flash.c **** /**
  88:Libraries/FWlib/src/stm32f10x_flash.c ****   * @}
  89:Libraries/FWlib/src/stm32f10x_flash.c ****   */ 
  90:Libraries/FWlib/src/stm32f10x_flash.c **** 
ARM GAS  /tmp/ccfAcV92.s 			page 3


  91:Libraries/FWlib/src/stm32f10x_flash.c **** /** @defgroup FLASH_Private_Macros
  92:Libraries/FWlib/src/stm32f10x_flash.c ****   * @{
  93:Libraries/FWlib/src/stm32f10x_flash.c ****   */
  94:Libraries/FWlib/src/stm32f10x_flash.c **** 
  95:Libraries/FWlib/src/stm32f10x_flash.c **** /**
  96:Libraries/FWlib/src/stm32f10x_flash.c ****   * @}
  97:Libraries/FWlib/src/stm32f10x_flash.c ****   */ 
  98:Libraries/FWlib/src/stm32f10x_flash.c **** 
  99:Libraries/FWlib/src/stm32f10x_flash.c **** /** @defgroup FLASH_Private_Variables
 100:Libraries/FWlib/src/stm32f10x_flash.c ****   * @{
 101:Libraries/FWlib/src/stm32f10x_flash.c ****   */
 102:Libraries/FWlib/src/stm32f10x_flash.c **** 
 103:Libraries/FWlib/src/stm32f10x_flash.c **** /**
 104:Libraries/FWlib/src/stm32f10x_flash.c ****   * @}
 105:Libraries/FWlib/src/stm32f10x_flash.c ****   */ 
 106:Libraries/FWlib/src/stm32f10x_flash.c **** 
 107:Libraries/FWlib/src/stm32f10x_flash.c **** /** @defgroup FLASH_Private_FunctionPrototypes
 108:Libraries/FWlib/src/stm32f10x_flash.c ****   * @{
 109:Libraries/FWlib/src/stm32f10x_flash.c ****   */
 110:Libraries/FWlib/src/stm32f10x_flash.c ****   
 111:Libraries/FWlib/src/stm32f10x_flash.c **** /**
 112:Libraries/FWlib/src/stm32f10x_flash.c ****   * @}
 113:Libraries/FWlib/src/stm32f10x_flash.c ****   */
 114:Libraries/FWlib/src/stm32f10x_flash.c **** 
 115:Libraries/FWlib/src/stm32f10x_flash.c **** /** @defgroup FLASH_Private_Functions
 116:Libraries/FWlib/src/stm32f10x_flash.c ****   * @{
 117:Libraries/FWlib/src/stm32f10x_flash.c ****   */
 118:Libraries/FWlib/src/stm32f10x_flash.c **** 
 119:Libraries/FWlib/src/stm32f10x_flash.c **** /**
 120:Libraries/FWlib/src/stm32f10x_flash.c **** @code  
 121:Libraries/FWlib/src/stm32f10x_flash.c ****  
 122:Libraries/FWlib/src/stm32f10x_flash.c ****  This driver provides functions to configure and program the Flash memory of all STM32F10x devices,
 123:Libraries/FWlib/src/stm32f10x_flash.c ****  including the latest STM32F10x_XL density devices. 
 124:Libraries/FWlib/src/stm32f10x_flash.c **** 
 125:Libraries/FWlib/src/stm32f10x_flash.c ****  STM32F10x_XL devices feature up to 1 Mbyte with dual bank architecture for read-while-write (RWW) 
 126:Libraries/FWlib/src/stm32f10x_flash.c ****     - bank1: fixed size of 512 Kbytes (256 pages of 2Kbytes each)
 127:Libraries/FWlib/src/stm32f10x_flash.c ****     - bank2: up to 512 Kbytes (up to 256 pages of 2Kbytes each)
 128:Libraries/FWlib/src/stm32f10x_flash.c ****  While other STM32F10x devices features only one bank with memory up to 512 Kbytes.
 129:Libraries/FWlib/src/stm32f10x_flash.c **** 
 130:Libraries/FWlib/src/stm32f10x_flash.c ****  In version V3.3.0, some functions were updated and new ones were added to support
 131:Libraries/FWlib/src/stm32f10x_flash.c ****  STM32F10x_XL devices. Thus some functions manages all devices, while other are 
 132:Libraries/FWlib/src/stm32f10x_flash.c ****  dedicated for XL devices only.
 133:Libraries/FWlib/src/stm32f10x_flash.c ****  
 134:Libraries/FWlib/src/stm32f10x_flash.c ****  The table below presents the list of available functions depending on the used STM32F10x devices. 
 135:Libraries/FWlib/src/stm32f10x_flash.c ****       
 136:Libraries/FWlib/src/stm32f10x_flash.c ****    ***************************************************
 137:Libraries/FWlib/src/stm32f10x_flash.c ****    * Legacy functions used for all STM32F10x devices *
 138:Libraries/FWlib/src/stm32f10x_flash.c ****    ***************************************************
 139:Libraries/FWlib/src/stm32f10x_flash.c ****    +-----------------------------------------------------------------------------------------------
 140:Libraries/FWlib/src/stm32f10x_flash.c ****    |       Functions prototypes         |STM32F10x_XL|Other STM32F10x|    Comments                 
 141:Libraries/FWlib/src/stm32f10x_flash.c ****    |                                    |   devices  |  devices      |                             
 142:Libraries/FWlib/src/stm32f10x_flash.c ****    |-----------------------------------------------------------------------------------------------
 143:Libraries/FWlib/src/stm32f10x_flash.c ****    |FLASH_SetLatency                    |    Yes     |      Yes      | No change                   
 144:Libraries/FWlib/src/stm32f10x_flash.c ****    |-----------------------------------------------------------------------------------------------
 145:Libraries/FWlib/src/stm32f10x_flash.c ****    |FLASH_HalfCycleAccessCmd            |    Yes     |      Yes      | No change                   
 146:Libraries/FWlib/src/stm32f10x_flash.c ****    |-----------------------------------------------------------------------------------------------
 147:Libraries/FWlib/src/stm32f10x_flash.c ****    |FLASH_PrefetchBufferCmd             |    Yes     |      Yes      | No change                   
ARM GAS  /tmp/ccfAcV92.s 			page 4


 148:Libraries/FWlib/src/stm32f10x_flash.c ****    |-----------------------------------------------------------------------------------------------
 149:Libraries/FWlib/src/stm32f10x_flash.c ****    |FLASH_Unlock                        |    Yes     |      Yes      | - For STM32F10X_XL devices: 
 150:Libraries/FWlib/src/stm32f10x_flash.c ****    |                                    |            |               | - For other devices: unlock 
 151:Libraries/FWlib/src/stm32f10x_flash.c ****    |                                    |            |               |   to FLASH_UnlockBank1 funct
 152:Libraries/FWlib/src/stm32f10x_flash.c ****    |-----------------------------------------------------------------------------------------------
 153:Libraries/FWlib/src/stm32f10x_flash.c ****    |FLASH_Lock                          |    Yes     |      Yes      | - For STM32F10X_XL devices: 
 154:Libraries/FWlib/src/stm32f10x_flash.c ****    |                                    |            |               | - For other devices: lock Ba
 155:Libraries/FWlib/src/stm32f10x_flash.c ****    |                                    |            |               |   to FLASH_LockBank1 functio
 156:Libraries/FWlib/src/stm32f10x_flash.c ****    |-----------------------------------------------------------------------------------------------
 157:Libraries/FWlib/src/stm32f10x_flash.c ****    |FLASH_ErasePage                     |    Yes     |      Yes      | - For STM32F10x_XL devices: 
 158:Libraries/FWlib/src/stm32f10x_flash.c ****    |                                    |            |               | - For other devices: erase a
 159:Libraries/FWlib/src/stm32f10x_flash.c ****    |-----------------------------------------------------------------------------------------------
 160:Libraries/FWlib/src/stm32f10x_flash.c ****    |FLASH_EraseAllPages                 |    Yes     |      Yes      | - For STM32F10x_XL devices: 
 161:Libraries/FWlib/src/stm32f10x_flash.c ****    |                                    |            |               | - For other devices: erase a
 162:Libraries/FWlib/src/stm32f10x_flash.c ****    |-----------------------------------------------------------------------------------------------
 163:Libraries/FWlib/src/stm32f10x_flash.c ****    |FLASH_EraseOptionBytes              |    Yes     |      Yes      | No change                   
 164:Libraries/FWlib/src/stm32f10x_flash.c ****    |-----------------------------------------------------------------------------------------------
 165:Libraries/FWlib/src/stm32f10x_flash.c ****    |FLASH_ProgramWord                   |    Yes     |      Yes      | Updated to program up to 1MB
 166:Libraries/FWlib/src/stm32f10x_flash.c ****    |-----------------------------------------------------------------------------------------------
 167:Libraries/FWlib/src/stm32f10x_flash.c ****    |FLASH_ProgramHalfWord               |    Yes     |      Yes      | Updated to program up to 1MB
 168:Libraries/FWlib/src/stm32f10x_flash.c ****    |-----------------------------------------------------------------------------------------------
 169:Libraries/FWlib/src/stm32f10x_flash.c ****    |FLASH_ProgramOptionByteData         |    Yes     |      Yes      | No change                   
 170:Libraries/FWlib/src/stm32f10x_flash.c ****    |-----------------------------------------------------------------------------------------------
 171:Libraries/FWlib/src/stm32f10x_flash.c ****    |FLASH_EnableWriteProtection         |    Yes     |      Yes      | No change                   
 172:Libraries/FWlib/src/stm32f10x_flash.c ****    |-----------------------------------------------------------------------------------------------
 173:Libraries/FWlib/src/stm32f10x_flash.c ****    |FLASH_ReadOutProtection             |    Yes     |      Yes      | No change                   
 174:Libraries/FWlib/src/stm32f10x_flash.c ****    |-----------------------------------------------------------------------------------------------
 175:Libraries/FWlib/src/stm32f10x_flash.c ****    |FLASH_UserOptionByteConfig          |    Yes     |      Yes      | No change                   
 176:Libraries/FWlib/src/stm32f10x_flash.c ****    |-----------------------------------------------------------------------------------------------
 177:Libraries/FWlib/src/stm32f10x_flash.c ****    |FLASH_GetUserOptionByte             |    Yes     |      Yes      | No change                   
 178:Libraries/FWlib/src/stm32f10x_flash.c ****    |-----------------------------------------------------------------------------------------------
 179:Libraries/FWlib/src/stm32f10x_flash.c ****    |FLASH_GetWriteProtectionOptionByte  |    Yes     |      Yes      | No change                   
 180:Libraries/FWlib/src/stm32f10x_flash.c ****    |-----------------------------------------------------------------------------------------------
 181:Libraries/FWlib/src/stm32f10x_flash.c ****    |FLASH_GetReadOutProtectionStatus    |    Yes     |      Yes      | No change                   
 182:Libraries/FWlib/src/stm32f10x_flash.c ****    |-----------------------------------------------------------------------------------------------
 183:Libraries/FWlib/src/stm32f10x_flash.c ****    |FLASH_GetPrefetchBufferStatus       |    Yes     |      Yes      | No change                   
 184:Libraries/FWlib/src/stm32f10x_flash.c ****    |-----------------------------------------------------------------------------------------------
 185:Libraries/FWlib/src/stm32f10x_flash.c ****    |FLASH_ITConfig                      |    Yes     |      Yes      | - For STM32F10x_XL devices: 
 186:Libraries/FWlib/src/stm32f10x_flash.c ****    |                                    |            |               | - For other devices: enable 
 187:Libraries/FWlib/src/stm32f10x_flash.c ****    |-----------------------------------------------------------------------------------------------
 188:Libraries/FWlib/src/stm32f10x_flash.c ****    |FLASH_GetFlagStatus                 |    Yes     |      Yes      | - For STM32F10x_XL devices: 
 189:Libraries/FWlib/src/stm32f10x_flash.c ****    |                                    |            |               | - For other devices: return 
 190:Libraries/FWlib/src/stm32f10x_flash.c ****    |-----------------------------------------------------------------------------------------------
 191:Libraries/FWlib/src/stm32f10x_flash.c ****    |FLASH_ClearFlag                     |    Yes     |      Yes      | - For STM32F10x_XL devices: 
 192:Libraries/FWlib/src/stm32f10x_flash.c ****    |                                    |            |               | - For other devices: clear B
 193:Libraries/FWlib/src/stm32f10x_flash.c ****    |-----------------------------------------------------------------------------------------------
 194:Libraries/FWlib/src/stm32f10x_flash.c ****    |FLASH_GetStatus                     |    Yes     |      Yes      | - Return the status of Bank1
 195:Libraries/FWlib/src/stm32f10x_flash.c ****    |                                    |            |               |   equivalent to FLASH_GetBan
 196:Libraries/FWlib/src/stm32f10x_flash.c ****    |-----------------------------------------------------------------------------------------------
 197:Libraries/FWlib/src/stm32f10x_flash.c ****    |FLASH_WaitForLastOperation          |    Yes     |      Yes      | - Wait for Bank1 last operat
 198:Libraries/FWlib/src/stm32f10x_flash.c ****    |                                    |            |               |   equivalent to: FLASH_WaitF
 199:Libraries/FWlib/src/stm32f10x_flash.c ****    +-----------------------------------------------------------------------------------------------
 200:Libraries/FWlib/src/stm32f10x_flash.c **** 
 201:Libraries/FWlib/src/stm32f10x_flash.c ****    ************************************************************************************************
 202:Libraries/FWlib/src/stm32f10x_flash.c ****    * New functions used for all STM32F10x devices to manage Bank1:                                 
 203:Libraries/FWlib/src/stm32f10x_flash.c ****    *   - These functions are mainly useful for STM32F10x_XL density devices, to have separate contr
 204:Libraries/FWlib/src/stm32f10x_flash.c ****    *   - For other devices, these functions are optional (covered by functions listed above)       
ARM GAS  /tmp/ccfAcV92.s 			page 5


 205:Libraries/FWlib/src/stm32f10x_flash.c ****    ************************************************************************************************
 206:Libraries/FWlib/src/stm32f10x_flash.c ****    +-----------------------------------------------------------------------------------------------
 207:Libraries/FWlib/src/stm32f10x_flash.c ****    |       Functions prototypes         |STM32F10x_XL|Other STM32F10x|    Comments                 
 208:Libraries/FWlib/src/stm32f10x_flash.c ****    |                                    |   devices  |  devices      |                             
 209:Libraries/FWlib/src/stm32f10x_flash.c ****    |-----------------------------------------------------------------------------------------------
 210:Libraries/FWlib/src/stm32f10x_flash.c ****    | FLASH_UnlockBank1                  |    Yes     |      Yes      | - Unlock Bank1              
 211:Libraries/FWlib/src/stm32f10x_flash.c ****    |-----------------------------------------------------------------------------------------------
 212:Libraries/FWlib/src/stm32f10x_flash.c ****    |FLASH_LockBank1                     |    Yes     |      Yes      | - Lock Bank1                
 213:Libraries/FWlib/src/stm32f10x_flash.c ****    |-----------------------------------------------------------------------------------------------
 214:Libraries/FWlib/src/stm32f10x_flash.c ****    | FLASH_EraseAllBank1Pages           |    Yes     |      Yes      | - Erase all pages in Bank1  
 215:Libraries/FWlib/src/stm32f10x_flash.c ****    |-----------------------------------------------------------------------------------------------
 216:Libraries/FWlib/src/stm32f10x_flash.c ****    | FLASH_GetBank1Status               |    Yes     |      Yes      | - Return the status of Bank1
 217:Libraries/FWlib/src/stm32f10x_flash.c ****    |-----------------------------------------------------------------------------------------------
 218:Libraries/FWlib/src/stm32f10x_flash.c ****    | FLASH_WaitForLastBank1Operation    |    Yes     |      Yes      | - Wait for Bank1 last operat
 219:Libraries/FWlib/src/stm32f10x_flash.c ****    +-----------------------------------------------------------------------------------------------
 220:Libraries/FWlib/src/stm32f10x_flash.c **** 
 221:Libraries/FWlib/src/stm32f10x_flash.c ****    *****************************************************************************
 222:Libraries/FWlib/src/stm32f10x_flash.c ****    * New Functions used only with STM32F10x_XL density devices to manage Bank2 *
 223:Libraries/FWlib/src/stm32f10x_flash.c ****    *****************************************************************************
 224:Libraries/FWlib/src/stm32f10x_flash.c ****    +-----------------------------------------------------------------------------------------------
 225:Libraries/FWlib/src/stm32f10x_flash.c ****    |       Functions prototypes         |STM32F10x_XL|Other STM32F10x|    Comments                 
 226:Libraries/FWlib/src/stm32f10x_flash.c ****    |                                    |   devices  |  devices      |                             
 227:Libraries/FWlib/src/stm32f10x_flash.c ****    |-----------------------------------------------------------------------------------------------
 228:Libraries/FWlib/src/stm32f10x_flash.c ****    | FLASH_UnlockBank2                  |    Yes     |      No       | - Unlock Bank2              
 229:Libraries/FWlib/src/stm32f10x_flash.c ****    |-----------------------------------------------------------------------------------------------
 230:Libraries/FWlib/src/stm32f10x_flash.c ****    |FLASH_LockBank2                     |    Yes     |      No       | - Lock Bank2                
 231:Libraries/FWlib/src/stm32f10x_flash.c ****    |-----------------------------------------------------------------------------------------------
 232:Libraries/FWlib/src/stm32f10x_flash.c ****    | FLASH_EraseAllBank2Pages           |    Yes     |      No       | - Erase all pages in Bank2  
 233:Libraries/FWlib/src/stm32f10x_flash.c ****    |-----------------------------------------------------------------------------------------------
 234:Libraries/FWlib/src/stm32f10x_flash.c ****    | FLASH_GetBank2Status               |    Yes     |      No       | - Return the status of Bank2
 235:Libraries/FWlib/src/stm32f10x_flash.c ****    |-----------------------------------------------------------------------------------------------
 236:Libraries/FWlib/src/stm32f10x_flash.c ****    | FLASH_WaitForLastBank2Operation    |    Yes     |      No       | - Wait for Bank2 last operat
 237:Libraries/FWlib/src/stm32f10x_flash.c ****    |-----------------------------------------------------------------------------------------------
 238:Libraries/FWlib/src/stm32f10x_flash.c ****    | FLASH_BootConfig                   |    Yes     |      No       | - Configure to boot from Ban
 239:Libraries/FWlib/src/stm32f10x_flash.c ****    +-----------------------------------------------------------------------------------------------
 240:Libraries/FWlib/src/stm32f10x_flash.c **** @endcode
 241:Libraries/FWlib/src/stm32f10x_flash.c **** */
 242:Libraries/FWlib/src/stm32f10x_flash.c **** 
 243:Libraries/FWlib/src/stm32f10x_flash.c **** 
 244:Libraries/FWlib/src/stm32f10x_flash.c **** /**
 245:Libraries/FWlib/src/stm32f10x_flash.c ****   * @brief  Sets the code latency value.
 246:Libraries/FWlib/src/stm32f10x_flash.c ****   * @note   This function can be used for all STM32F10x devices.
 247:Libraries/FWlib/src/stm32f10x_flash.c ****   * @param  FLASH_Latency: specifies the FLASH Latency value.
 248:Libraries/FWlib/src/stm32f10x_flash.c ****   *   This parameter can be one of the following values:
 249:Libraries/FWlib/src/stm32f10x_flash.c ****   *     @arg FLASH_Latency_0: FLASH Zero Latency cycle
 250:Libraries/FWlib/src/stm32f10x_flash.c ****   *     @arg FLASH_Latency_1: FLASH One Latency cycle
 251:Libraries/FWlib/src/stm32f10x_flash.c ****   *     @arg FLASH_Latency_2: FLASH Two Latency cycles
 252:Libraries/FWlib/src/stm32f10x_flash.c ****   * @retval None
 253:Libraries/FWlib/src/stm32f10x_flash.c ****   */
 254:Libraries/FWlib/src/stm32f10x_flash.c **** void FLASH_SetLatency(uint32_t FLASH_Latency)
 255:Libraries/FWlib/src/stm32f10x_flash.c **** {
  26              		.loc 1 255 0
  27              		.cfi_startproc
  28              		@ args = 0, pretend = 0, frame = 0
  29              		@ frame_needed = 0, uses_anonymous_args = 0
  30              		@ link register save eliminated.
  31              	.LVL0:
ARM GAS  /tmp/ccfAcV92.s 			page 6


 256:Libraries/FWlib/src/stm32f10x_flash.c ****   uint32_t tmpreg = 0;
 257:Libraries/FWlib/src/stm32f10x_flash.c ****   
 258:Libraries/FWlib/src/stm32f10x_flash.c ****   /* Check the parameters */
 259:Libraries/FWlib/src/stm32f10x_flash.c ****   assert_param(IS_FLASH_LATENCY(FLASH_Latency));
 260:Libraries/FWlib/src/stm32f10x_flash.c ****   
 261:Libraries/FWlib/src/stm32f10x_flash.c ****   /* Read the ACR register */
 262:Libraries/FWlib/src/stm32f10x_flash.c ****   tmpreg = FLASH->ACR;  
  32              		.loc 1 262 0
  33 0000 034A     		ldr	r2, .L2
  34 0002 1368     		ldr	r3, [r2]
  35              	.LVL1:
 263:Libraries/FWlib/src/stm32f10x_flash.c ****   
 264:Libraries/FWlib/src/stm32f10x_flash.c ****   /* Sets the Latency value */
 265:Libraries/FWlib/src/stm32f10x_flash.c ****   tmpreg &= ACR_LATENCY_Mask;
  36              		.loc 1 265 0
  37 0004 03F03803 		and	r3, r3, #56
  38              	.LVL2:
 266:Libraries/FWlib/src/stm32f10x_flash.c ****   tmpreg |= FLASH_Latency;
  39              		.loc 1 266 0
  40 0008 1843     		orrs	r0, r0, r3
  41              	.LVL3:
 267:Libraries/FWlib/src/stm32f10x_flash.c ****   
 268:Libraries/FWlib/src/stm32f10x_flash.c ****   /* Write the ACR register */
 269:Libraries/FWlib/src/stm32f10x_flash.c ****   FLASH->ACR = tmpreg;
  42              		.loc 1 269 0
  43 000a 1060     		str	r0, [r2]
  44 000c 7047     		bx	lr
  45              	.L3:
  46 000e 00BF     		.align	2
  47              	.L2:
  48 0010 00200240 		.word	1073881088
  49              		.cfi_endproc
  50              	.LFE29:
  52              		.section	.text.FLASH_HalfCycleAccessCmd,"ax",%progbits
  53              		.align	1
  54              		.global	FLASH_HalfCycleAccessCmd
  55              		.syntax unified
  56              		.thumb
  57              		.thumb_func
  58              		.fpu softvfp
  60              	FLASH_HalfCycleAccessCmd:
  61              	.LFB30:
 270:Libraries/FWlib/src/stm32f10x_flash.c **** }
 271:Libraries/FWlib/src/stm32f10x_flash.c **** 
 272:Libraries/FWlib/src/stm32f10x_flash.c **** /**
 273:Libraries/FWlib/src/stm32f10x_flash.c ****   * @brief  Enables or disables the Half cycle flash access.
 274:Libraries/FWlib/src/stm32f10x_flash.c ****   * @note   This function can be used for all STM32F10x devices.
 275:Libraries/FWlib/src/stm32f10x_flash.c ****   * @param  FLASH_HalfCycleAccess: specifies the FLASH Half cycle Access mode.
 276:Libraries/FWlib/src/stm32f10x_flash.c ****   *   This parameter can be one of the following values:
 277:Libraries/FWlib/src/stm32f10x_flash.c ****   *     @arg FLASH_HalfCycleAccess_Enable: FLASH Half Cycle Enable
 278:Libraries/FWlib/src/stm32f10x_flash.c ****   *     @arg FLASH_HalfCycleAccess_Disable: FLASH Half Cycle Disable
 279:Libraries/FWlib/src/stm32f10x_flash.c ****   * @retval None
 280:Libraries/FWlib/src/stm32f10x_flash.c ****   */
 281:Libraries/FWlib/src/stm32f10x_flash.c **** void FLASH_HalfCycleAccessCmd(uint32_t FLASH_HalfCycleAccess)
 282:Libraries/FWlib/src/stm32f10x_flash.c **** {
  62              		.loc 1 282 0
  63              		.cfi_startproc
ARM GAS  /tmp/ccfAcV92.s 			page 7


  64              		@ args = 0, pretend = 0, frame = 0
  65              		@ frame_needed = 0, uses_anonymous_args = 0
  66              		@ link register save eliminated.
  67              	.LVL4:
 283:Libraries/FWlib/src/stm32f10x_flash.c ****   /* Check the parameters */
 284:Libraries/FWlib/src/stm32f10x_flash.c ****   assert_param(IS_FLASH_HALFCYCLEACCESS_STATE(FLASH_HalfCycleAccess));
 285:Libraries/FWlib/src/stm32f10x_flash.c ****   
 286:Libraries/FWlib/src/stm32f10x_flash.c ****   /* Enable or disable the Half cycle access */
 287:Libraries/FWlib/src/stm32f10x_flash.c ****   FLASH->ACR &= ACR_HLFCYA_Mask;
  68              		.loc 1 287 0
  69 0000 044B     		ldr	r3, .L5
  70 0002 1A68     		ldr	r2, [r3]
  71 0004 22F00802 		bic	r2, r2, #8
  72 0008 1A60     		str	r2, [r3]
 288:Libraries/FWlib/src/stm32f10x_flash.c ****   FLASH->ACR |= FLASH_HalfCycleAccess;
  73              		.loc 1 288 0
  74 000a 1A68     		ldr	r2, [r3]
  75 000c 1043     		orrs	r0, r0, r2
  76              	.LVL5:
  77 000e 1860     		str	r0, [r3]
  78 0010 7047     		bx	lr
  79              	.L6:
  80 0012 00BF     		.align	2
  81              	.L5:
  82 0014 00200240 		.word	1073881088
  83              		.cfi_endproc
  84              	.LFE30:
  86              		.section	.text.FLASH_PrefetchBufferCmd,"ax",%progbits
  87              		.align	1
  88              		.global	FLASH_PrefetchBufferCmd
  89              		.syntax unified
  90              		.thumb
  91              		.thumb_func
  92              		.fpu softvfp
  94              	FLASH_PrefetchBufferCmd:
  95              	.LFB31:
 289:Libraries/FWlib/src/stm32f10x_flash.c **** }
 290:Libraries/FWlib/src/stm32f10x_flash.c **** 
 291:Libraries/FWlib/src/stm32f10x_flash.c **** /**
 292:Libraries/FWlib/src/stm32f10x_flash.c ****   * @brief  Enables or disables the Prefetch Buffer.
 293:Libraries/FWlib/src/stm32f10x_flash.c ****   * @note   This function can be used for all STM32F10x devices.
 294:Libraries/FWlib/src/stm32f10x_flash.c ****   * @param  FLASH_PrefetchBuffer: specifies the Prefetch buffer status.
 295:Libraries/FWlib/src/stm32f10x_flash.c ****   *   This parameter can be one of the following values:
 296:Libraries/FWlib/src/stm32f10x_flash.c ****   *     @arg FLASH_PrefetchBuffer_Enable: FLASH Prefetch Buffer Enable
 297:Libraries/FWlib/src/stm32f10x_flash.c ****   *     @arg FLASH_PrefetchBuffer_Disable: FLASH Prefetch Buffer Disable
 298:Libraries/FWlib/src/stm32f10x_flash.c ****   * @retval None
 299:Libraries/FWlib/src/stm32f10x_flash.c ****   */
 300:Libraries/FWlib/src/stm32f10x_flash.c **** void FLASH_PrefetchBufferCmd(uint32_t FLASH_PrefetchBuffer)
 301:Libraries/FWlib/src/stm32f10x_flash.c **** {
  96              		.loc 1 301 0
  97              		.cfi_startproc
  98              		@ args = 0, pretend = 0, frame = 0
  99              		@ frame_needed = 0, uses_anonymous_args = 0
 100              		@ link register save eliminated.
 101              	.LVL6:
 302:Libraries/FWlib/src/stm32f10x_flash.c ****   /* Check the parameters */
 303:Libraries/FWlib/src/stm32f10x_flash.c ****   assert_param(IS_FLASH_PREFETCHBUFFER_STATE(FLASH_PrefetchBuffer));
ARM GAS  /tmp/ccfAcV92.s 			page 8


 304:Libraries/FWlib/src/stm32f10x_flash.c ****   
 305:Libraries/FWlib/src/stm32f10x_flash.c ****   /* Enable or disable the Prefetch Buffer */
 306:Libraries/FWlib/src/stm32f10x_flash.c ****   FLASH->ACR &= ACR_PRFTBE_Mask;
 102              		.loc 1 306 0
 103 0000 044B     		ldr	r3, .L8
 104 0002 1A68     		ldr	r2, [r3]
 105 0004 22F01002 		bic	r2, r2, #16
 106 0008 1A60     		str	r2, [r3]
 307:Libraries/FWlib/src/stm32f10x_flash.c ****   FLASH->ACR |= FLASH_PrefetchBuffer;
 107              		.loc 1 307 0
 108 000a 1A68     		ldr	r2, [r3]
 109 000c 1043     		orrs	r0, r0, r2
 110              	.LVL7:
 111 000e 1860     		str	r0, [r3]
 112 0010 7047     		bx	lr
 113              	.L9:
 114 0012 00BF     		.align	2
 115              	.L8:
 116 0014 00200240 		.word	1073881088
 117              		.cfi_endproc
 118              	.LFE31:
 120              		.section	.text.FLASH_Unlock,"ax",%progbits
 121              		.align	1
 122              		.global	FLASH_Unlock
 123              		.syntax unified
 124              		.thumb
 125              		.thumb_func
 126              		.fpu softvfp
 128              	FLASH_Unlock:
 129              	.LFB32:
 308:Libraries/FWlib/src/stm32f10x_flash.c **** }
 309:Libraries/FWlib/src/stm32f10x_flash.c **** 
 310:Libraries/FWlib/src/stm32f10x_flash.c **** /**
 311:Libraries/FWlib/src/stm32f10x_flash.c ****   * @brief  Unlocks the FLASH Program Erase Controller.
 312:Libraries/FWlib/src/stm32f10x_flash.c ****   * @note   This function can be used for all STM32F10x devices.
 313:Libraries/FWlib/src/stm32f10x_flash.c ****   *         - For STM32F10X_XL devices this function unlocks Bank1 and Bank2.
 314:Libraries/FWlib/src/stm32f10x_flash.c ****   *         - For all other devices it unlocks Bank1 and it is equivalent 
 315:Libraries/FWlib/src/stm32f10x_flash.c ****   *           to FLASH_UnlockBank1 function.. 
 316:Libraries/FWlib/src/stm32f10x_flash.c ****   * @param  None
 317:Libraries/FWlib/src/stm32f10x_flash.c ****   * @retval None
 318:Libraries/FWlib/src/stm32f10x_flash.c ****   */
 319:Libraries/FWlib/src/stm32f10x_flash.c **** void FLASH_Unlock(void)
 320:Libraries/FWlib/src/stm32f10x_flash.c **** {
 130              		.loc 1 320 0
 131              		.cfi_startproc
 132              		@ args = 0, pretend = 0, frame = 0
 133              		@ frame_needed = 0, uses_anonymous_args = 0
 134              		@ link register save eliminated.
 321:Libraries/FWlib/src/stm32f10x_flash.c ****   /* Authorize the FPEC of Bank1 Access */
 322:Libraries/FWlib/src/stm32f10x_flash.c ****   FLASH->KEYR = FLASH_KEY1;
 135              		.loc 1 322 0
 136 0000 034B     		ldr	r3, .L11
 137 0002 044A     		ldr	r2, .L11+4
 138 0004 5A60     		str	r2, [r3, #4]
 323:Libraries/FWlib/src/stm32f10x_flash.c ****   FLASH->KEYR = FLASH_KEY2;
 139              		.loc 1 323 0
 140 0006 02F18832 		add	r2, r2, #-2004318072
ARM GAS  /tmp/ccfAcV92.s 			page 9


 141 000a 5A60     		str	r2, [r3, #4]
 142 000c 7047     		bx	lr
 143              	.L12:
 144 000e 00BF     		.align	2
 145              	.L11:
 146 0010 00200240 		.word	1073881088
 147 0014 23016745 		.word	1164378403
 148              		.cfi_endproc
 149              	.LFE32:
 151              		.section	.text.FLASH_UnlockBank1,"ax",%progbits
 152              		.align	1
 153              		.global	FLASH_UnlockBank1
 154              		.syntax unified
 155              		.thumb
 156              		.thumb_func
 157              		.fpu softvfp
 159              	FLASH_UnlockBank1:
 160              	.LFB33:
 324:Libraries/FWlib/src/stm32f10x_flash.c **** 
 325:Libraries/FWlib/src/stm32f10x_flash.c **** #ifdef STM32F10X_XL
 326:Libraries/FWlib/src/stm32f10x_flash.c ****   /* Authorize the FPEC of Bank2 Access */
 327:Libraries/FWlib/src/stm32f10x_flash.c ****   FLASH->KEYR2 = FLASH_KEY1;
 328:Libraries/FWlib/src/stm32f10x_flash.c ****   FLASH->KEYR2 = FLASH_KEY2;
 329:Libraries/FWlib/src/stm32f10x_flash.c **** #endif /* STM32F10X_XL */
 330:Libraries/FWlib/src/stm32f10x_flash.c **** }
 331:Libraries/FWlib/src/stm32f10x_flash.c **** /**
 332:Libraries/FWlib/src/stm32f10x_flash.c ****   * @brief  Unlocks the FLASH Bank1 Program Erase Controller.
 333:Libraries/FWlib/src/stm32f10x_flash.c ****   * @note   This function can be used for all STM32F10x devices.
 334:Libraries/FWlib/src/stm32f10x_flash.c ****   *         - For STM32F10X_XL devices this function unlocks Bank1.
 335:Libraries/FWlib/src/stm32f10x_flash.c ****   *         - For all other devices it unlocks Bank1 and it is 
 336:Libraries/FWlib/src/stm32f10x_flash.c ****   *           equivalent to FLASH_Unlock function.
 337:Libraries/FWlib/src/stm32f10x_flash.c ****   * @param  None
 338:Libraries/FWlib/src/stm32f10x_flash.c ****   * @retval None
 339:Libraries/FWlib/src/stm32f10x_flash.c ****   */
 340:Libraries/FWlib/src/stm32f10x_flash.c **** void FLASH_UnlockBank1(void)
 341:Libraries/FWlib/src/stm32f10x_flash.c **** {
 161              		.loc 1 341 0
 162              		.cfi_startproc
 163              		@ args = 0, pretend = 0, frame = 0
 164              		@ frame_needed = 0, uses_anonymous_args = 0
 165              		@ link register save eliminated.
 342:Libraries/FWlib/src/stm32f10x_flash.c ****   /* Authorize the FPEC of Bank1 Access */
 343:Libraries/FWlib/src/stm32f10x_flash.c ****   FLASH->KEYR = FLASH_KEY1;
 166              		.loc 1 343 0
 167 0000 034B     		ldr	r3, .L14
 168 0002 044A     		ldr	r2, .L14+4
 169 0004 5A60     		str	r2, [r3, #4]
 344:Libraries/FWlib/src/stm32f10x_flash.c ****   FLASH->KEYR = FLASH_KEY2;
 170              		.loc 1 344 0
 171 0006 02F18832 		add	r2, r2, #-2004318072
 172 000a 5A60     		str	r2, [r3, #4]
 173 000c 7047     		bx	lr
 174              	.L15:
 175 000e 00BF     		.align	2
 176              	.L14:
 177 0010 00200240 		.word	1073881088
 178 0014 23016745 		.word	1164378403
ARM GAS  /tmp/ccfAcV92.s 			page 10


 179              		.cfi_endproc
 180              	.LFE33:
 182              		.section	.text.FLASH_Lock,"ax",%progbits
 183              		.align	1
 184              		.global	FLASH_Lock
 185              		.syntax unified
 186              		.thumb
 187              		.thumb_func
 188              		.fpu softvfp
 190              	FLASH_Lock:
 191              	.LFB34:
 345:Libraries/FWlib/src/stm32f10x_flash.c **** }
 346:Libraries/FWlib/src/stm32f10x_flash.c **** 
 347:Libraries/FWlib/src/stm32f10x_flash.c **** #ifdef STM32F10X_XL
 348:Libraries/FWlib/src/stm32f10x_flash.c **** /**
 349:Libraries/FWlib/src/stm32f10x_flash.c ****   * @brief  Unlocks the FLASH Bank2 Program Erase Controller.
 350:Libraries/FWlib/src/stm32f10x_flash.c ****   * @note   This function can be used only for STM32F10X_XL density devices.
 351:Libraries/FWlib/src/stm32f10x_flash.c ****   * @param  None
 352:Libraries/FWlib/src/stm32f10x_flash.c ****   * @retval None
 353:Libraries/FWlib/src/stm32f10x_flash.c ****   */
 354:Libraries/FWlib/src/stm32f10x_flash.c **** void FLASH_UnlockBank2(void)
 355:Libraries/FWlib/src/stm32f10x_flash.c **** {
 356:Libraries/FWlib/src/stm32f10x_flash.c ****   /* Authorize the FPEC of Bank2 Access */
 357:Libraries/FWlib/src/stm32f10x_flash.c ****   FLASH->KEYR2 = FLASH_KEY1;
 358:Libraries/FWlib/src/stm32f10x_flash.c ****   FLASH->KEYR2 = FLASH_KEY2;
 359:Libraries/FWlib/src/stm32f10x_flash.c **** 
 360:Libraries/FWlib/src/stm32f10x_flash.c **** }
 361:Libraries/FWlib/src/stm32f10x_flash.c **** #endif /* STM32F10X_XL */
 362:Libraries/FWlib/src/stm32f10x_flash.c **** 
 363:Libraries/FWlib/src/stm32f10x_flash.c **** /**
 364:Libraries/FWlib/src/stm32f10x_flash.c ****   * @brief  Locks the FLASH Program Erase Controller.
 365:Libraries/FWlib/src/stm32f10x_flash.c ****   * @note   This function can be used for all STM32F10x devices.
 366:Libraries/FWlib/src/stm32f10x_flash.c ****   *         - For STM32F10X_XL devices this function Locks Bank1 and Bank2.
 367:Libraries/FWlib/src/stm32f10x_flash.c ****   *         - For all other devices it Locks Bank1 and it is equivalent 
 368:Libraries/FWlib/src/stm32f10x_flash.c ****   *           to FLASH_LockBank1 function.
 369:Libraries/FWlib/src/stm32f10x_flash.c ****   * @param  None
 370:Libraries/FWlib/src/stm32f10x_flash.c ****   * @retval None
 371:Libraries/FWlib/src/stm32f10x_flash.c ****   */
 372:Libraries/FWlib/src/stm32f10x_flash.c **** void FLASH_Lock(void)
 373:Libraries/FWlib/src/stm32f10x_flash.c **** {
 192              		.loc 1 373 0
 193              		.cfi_startproc
 194              		@ args = 0, pretend = 0, frame = 0
 195              		@ frame_needed = 0, uses_anonymous_args = 0
 196              		@ link register save eliminated.
 374:Libraries/FWlib/src/stm32f10x_flash.c ****   /* Set the Lock Bit to lock the FPEC and the CR of  Bank1 */
 375:Libraries/FWlib/src/stm32f10x_flash.c ****   FLASH->CR |= CR_LOCK_Set;
 197              		.loc 1 375 0
 198 0000 024A     		ldr	r2, .L17
 199 0002 1369     		ldr	r3, [r2, #16]
 200 0004 43F08003 		orr	r3, r3, #128
 201 0008 1361     		str	r3, [r2, #16]
 202 000a 7047     		bx	lr
 203              	.L18:
 204              		.align	2
 205              	.L17:
 206 000c 00200240 		.word	1073881088
ARM GAS  /tmp/ccfAcV92.s 			page 11


 207              		.cfi_endproc
 208              	.LFE34:
 210              		.section	.text.FLASH_LockBank1,"ax",%progbits
 211              		.align	1
 212              		.global	FLASH_LockBank1
 213              		.syntax unified
 214              		.thumb
 215              		.thumb_func
 216              		.fpu softvfp
 218              	FLASH_LockBank1:
 219              	.LFB35:
 376:Libraries/FWlib/src/stm32f10x_flash.c **** 
 377:Libraries/FWlib/src/stm32f10x_flash.c **** #ifdef STM32F10X_XL
 378:Libraries/FWlib/src/stm32f10x_flash.c ****   /* Set the Lock Bit to lock the FPEC and the CR of  Bank2 */
 379:Libraries/FWlib/src/stm32f10x_flash.c ****   FLASH->CR2 |= CR_LOCK_Set;
 380:Libraries/FWlib/src/stm32f10x_flash.c **** #endif /* STM32F10X_XL */
 381:Libraries/FWlib/src/stm32f10x_flash.c **** }
 382:Libraries/FWlib/src/stm32f10x_flash.c **** 
 383:Libraries/FWlib/src/stm32f10x_flash.c **** /**
 384:Libraries/FWlib/src/stm32f10x_flash.c ****   * @brief  Locks the FLASH Bank1 Program Erase Controller.
 385:Libraries/FWlib/src/stm32f10x_flash.c ****   * @note   this function can be used for all STM32F10x devices.
 386:Libraries/FWlib/src/stm32f10x_flash.c ****   *         - For STM32F10X_XL devices this function Locks Bank1.
 387:Libraries/FWlib/src/stm32f10x_flash.c ****   *         - For all other devices it Locks Bank1 and it is equivalent 
 388:Libraries/FWlib/src/stm32f10x_flash.c ****   *           to FLASH_Lock function.
 389:Libraries/FWlib/src/stm32f10x_flash.c ****   * @param  None
 390:Libraries/FWlib/src/stm32f10x_flash.c ****   * @retval None
 391:Libraries/FWlib/src/stm32f10x_flash.c ****   */
 392:Libraries/FWlib/src/stm32f10x_flash.c **** void FLASH_LockBank1(void)
 393:Libraries/FWlib/src/stm32f10x_flash.c **** {
 220              		.loc 1 393 0
 221              		.cfi_startproc
 222              		@ args = 0, pretend = 0, frame = 0
 223              		@ frame_needed = 0, uses_anonymous_args = 0
 224              		@ link register save eliminated.
 394:Libraries/FWlib/src/stm32f10x_flash.c ****   /* Set the Lock Bit to lock the FPEC and the CR of  Bank1 */
 395:Libraries/FWlib/src/stm32f10x_flash.c ****   FLASH->CR |= CR_LOCK_Set;
 225              		.loc 1 395 0
 226 0000 024A     		ldr	r2, .L20
 227 0002 1369     		ldr	r3, [r2, #16]
 228 0004 43F08003 		orr	r3, r3, #128
 229 0008 1361     		str	r3, [r2, #16]
 230 000a 7047     		bx	lr
 231              	.L21:
 232              		.align	2
 233              	.L20:
 234 000c 00200240 		.word	1073881088
 235              		.cfi_endproc
 236              	.LFE35:
 238              		.section	.text.FLASH_GetUserOptionByte,"ax",%progbits
 239              		.align	1
 240              		.global	FLASH_GetUserOptionByte
 241              		.syntax unified
 242              		.thumb
 243              		.thumb_func
 244              		.fpu softvfp
 246              	FLASH_GetUserOptionByte:
 247              	.LFB46:
ARM GAS  /tmp/ccfAcV92.s 			page 12


 396:Libraries/FWlib/src/stm32f10x_flash.c **** }
 397:Libraries/FWlib/src/stm32f10x_flash.c **** 
 398:Libraries/FWlib/src/stm32f10x_flash.c **** #ifdef STM32F10X_XL
 399:Libraries/FWlib/src/stm32f10x_flash.c **** /**
 400:Libraries/FWlib/src/stm32f10x_flash.c ****   * @brief  Locks the FLASH Bank2 Program Erase Controller.
 401:Libraries/FWlib/src/stm32f10x_flash.c ****   * @note   This function can be used only for STM32F10X_XL density devices.
 402:Libraries/FWlib/src/stm32f10x_flash.c ****   * @param  None
 403:Libraries/FWlib/src/stm32f10x_flash.c ****   * @retval None
 404:Libraries/FWlib/src/stm32f10x_flash.c ****   */
 405:Libraries/FWlib/src/stm32f10x_flash.c **** void FLASH_LockBank2(void)
 406:Libraries/FWlib/src/stm32f10x_flash.c **** {
 407:Libraries/FWlib/src/stm32f10x_flash.c ****   /* Set the Lock Bit to lock the FPEC and the CR of  Bank2 */
 408:Libraries/FWlib/src/stm32f10x_flash.c ****   FLASH->CR2 |= CR_LOCK_Set;
 409:Libraries/FWlib/src/stm32f10x_flash.c **** }
 410:Libraries/FWlib/src/stm32f10x_flash.c **** #endif /* STM32F10X_XL */
 411:Libraries/FWlib/src/stm32f10x_flash.c **** 
 412:Libraries/FWlib/src/stm32f10x_flash.c **** /**
 413:Libraries/FWlib/src/stm32f10x_flash.c ****   * @brief  Erases a specified FLASH page.
 414:Libraries/FWlib/src/stm32f10x_flash.c ****   * @note   This function can be used for all STM32F10x devices.
 415:Libraries/FWlib/src/stm32f10x_flash.c ****   * @param  Page_Address: The page address to be erased.
 416:Libraries/FWlib/src/stm32f10x_flash.c ****   * @retval FLASH Status: The returned value can be: FLASH_BUSY, FLASH_ERROR_PG,
 417:Libraries/FWlib/src/stm32f10x_flash.c ****   *         FLASH_ERROR_WRP, FLASH_COMPLETE or FLASH_TIMEOUT.
 418:Libraries/FWlib/src/stm32f10x_flash.c ****   */
 419:Libraries/FWlib/src/stm32f10x_flash.c **** FLASH_Status FLASH_ErasePage(uint32_t Page_Address)
 420:Libraries/FWlib/src/stm32f10x_flash.c **** {
 421:Libraries/FWlib/src/stm32f10x_flash.c ****   FLASH_Status status = FLASH_COMPLETE;
 422:Libraries/FWlib/src/stm32f10x_flash.c ****   /* Check the parameters */
 423:Libraries/FWlib/src/stm32f10x_flash.c ****   assert_param(IS_FLASH_ADDRESS(Page_Address));
 424:Libraries/FWlib/src/stm32f10x_flash.c **** 
 425:Libraries/FWlib/src/stm32f10x_flash.c **** #ifdef STM32F10X_XL
 426:Libraries/FWlib/src/stm32f10x_flash.c ****   if(Page_Address < FLASH_BANK1_END_ADDRESS)  
 427:Libraries/FWlib/src/stm32f10x_flash.c ****   {
 428:Libraries/FWlib/src/stm32f10x_flash.c ****     /* Wait for last operation to be completed */
 429:Libraries/FWlib/src/stm32f10x_flash.c ****     status = FLASH_WaitForLastBank1Operation(EraseTimeout);
 430:Libraries/FWlib/src/stm32f10x_flash.c ****     if(status == FLASH_COMPLETE)
 431:Libraries/FWlib/src/stm32f10x_flash.c ****     { 
 432:Libraries/FWlib/src/stm32f10x_flash.c ****       /* if the previous operation is completed, proceed to erase the page */
 433:Libraries/FWlib/src/stm32f10x_flash.c ****       FLASH->CR|= CR_PER_Set;
 434:Libraries/FWlib/src/stm32f10x_flash.c ****       FLASH->AR = Page_Address; 
 435:Libraries/FWlib/src/stm32f10x_flash.c ****       FLASH->CR|= CR_STRT_Set;
 436:Libraries/FWlib/src/stm32f10x_flash.c ****     
 437:Libraries/FWlib/src/stm32f10x_flash.c ****       /* Wait for last operation to be completed */
 438:Libraries/FWlib/src/stm32f10x_flash.c ****       status = FLASH_WaitForLastBank1Operation(EraseTimeout);
 439:Libraries/FWlib/src/stm32f10x_flash.c **** 
 440:Libraries/FWlib/src/stm32f10x_flash.c ****       /* Disable the PER Bit */
 441:Libraries/FWlib/src/stm32f10x_flash.c ****       FLASH->CR &= CR_PER_Reset;
 442:Libraries/FWlib/src/stm32f10x_flash.c ****     }
 443:Libraries/FWlib/src/stm32f10x_flash.c ****   }
 444:Libraries/FWlib/src/stm32f10x_flash.c ****   else
 445:Libraries/FWlib/src/stm32f10x_flash.c ****   {
 446:Libraries/FWlib/src/stm32f10x_flash.c ****     /* Wait for last operation to be completed */
 447:Libraries/FWlib/src/stm32f10x_flash.c ****     status = FLASH_WaitForLastBank2Operation(EraseTimeout);
 448:Libraries/FWlib/src/stm32f10x_flash.c ****     if(status == FLASH_COMPLETE)
 449:Libraries/FWlib/src/stm32f10x_flash.c ****     { 
 450:Libraries/FWlib/src/stm32f10x_flash.c ****       /* if the previous operation is completed, proceed to erase the page */
 451:Libraries/FWlib/src/stm32f10x_flash.c ****       FLASH->CR2|= CR_PER_Set;
 452:Libraries/FWlib/src/stm32f10x_flash.c ****       FLASH->AR2 = Page_Address; 
ARM GAS  /tmp/ccfAcV92.s 			page 13


 453:Libraries/FWlib/src/stm32f10x_flash.c ****       FLASH->CR2|= CR_STRT_Set;
 454:Libraries/FWlib/src/stm32f10x_flash.c ****     
 455:Libraries/FWlib/src/stm32f10x_flash.c ****       /* Wait for last operation to be completed */
 456:Libraries/FWlib/src/stm32f10x_flash.c ****       status = FLASH_WaitForLastBank2Operation(EraseTimeout);
 457:Libraries/FWlib/src/stm32f10x_flash.c ****       
 458:Libraries/FWlib/src/stm32f10x_flash.c ****       /* Disable the PER Bit */
 459:Libraries/FWlib/src/stm32f10x_flash.c ****       FLASH->CR2 &= CR_PER_Reset;
 460:Libraries/FWlib/src/stm32f10x_flash.c ****     }
 461:Libraries/FWlib/src/stm32f10x_flash.c ****   }
 462:Libraries/FWlib/src/stm32f10x_flash.c **** #else
 463:Libraries/FWlib/src/stm32f10x_flash.c ****   /* Wait for last operation to be completed */
 464:Libraries/FWlib/src/stm32f10x_flash.c ****   status = FLASH_WaitForLastOperation(EraseTimeout);
 465:Libraries/FWlib/src/stm32f10x_flash.c ****   
 466:Libraries/FWlib/src/stm32f10x_flash.c ****   if(status == FLASH_COMPLETE)
 467:Libraries/FWlib/src/stm32f10x_flash.c ****   { 
 468:Libraries/FWlib/src/stm32f10x_flash.c ****     /* if the previous operation is completed, proceed to erase the page */
 469:Libraries/FWlib/src/stm32f10x_flash.c ****     FLASH->CR|= CR_PER_Set;
 470:Libraries/FWlib/src/stm32f10x_flash.c ****     FLASH->AR = Page_Address; 
 471:Libraries/FWlib/src/stm32f10x_flash.c ****     FLASH->CR|= CR_STRT_Set;
 472:Libraries/FWlib/src/stm32f10x_flash.c ****     
 473:Libraries/FWlib/src/stm32f10x_flash.c ****     /* Wait for last operation to be completed */
 474:Libraries/FWlib/src/stm32f10x_flash.c ****     status = FLASH_WaitForLastOperation(EraseTimeout);
 475:Libraries/FWlib/src/stm32f10x_flash.c ****     
 476:Libraries/FWlib/src/stm32f10x_flash.c ****     /* Disable the PER Bit */
 477:Libraries/FWlib/src/stm32f10x_flash.c ****     FLASH->CR &= CR_PER_Reset;
 478:Libraries/FWlib/src/stm32f10x_flash.c ****   }
 479:Libraries/FWlib/src/stm32f10x_flash.c **** #endif /* STM32F10X_XL */
 480:Libraries/FWlib/src/stm32f10x_flash.c **** 
 481:Libraries/FWlib/src/stm32f10x_flash.c ****   /* Return the Erase Status */
 482:Libraries/FWlib/src/stm32f10x_flash.c ****   return status;
 483:Libraries/FWlib/src/stm32f10x_flash.c **** }
 484:Libraries/FWlib/src/stm32f10x_flash.c **** 
 485:Libraries/FWlib/src/stm32f10x_flash.c **** /**
 486:Libraries/FWlib/src/stm32f10x_flash.c ****   * @brief  Erases all FLASH pages.
 487:Libraries/FWlib/src/stm32f10x_flash.c ****   * @note   This function can be used for all STM32F10x devices.
 488:Libraries/FWlib/src/stm32f10x_flash.c ****   * @param  None
 489:Libraries/FWlib/src/stm32f10x_flash.c ****   * @retval FLASH Status: The returned value can be: FLASH_ERROR_PG,
 490:Libraries/FWlib/src/stm32f10x_flash.c ****   *         FLASH_ERROR_WRP, FLASH_COMPLETE or FLASH_TIMEOUT.
 491:Libraries/FWlib/src/stm32f10x_flash.c ****   */
 492:Libraries/FWlib/src/stm32f10x_flash.c **** FLASH_Status FLASH_EraseAllPages(void)
 493:Libraries/FWlib/src/stm32f10x_flash.c **** {
 494:Libraries/FWlib/src/stm32f10x_flash.c ****   FLASH_Status status = FLASH_COMPLETE;
 495:Libraries/FWlib/src/stm32f10x_flash.c **** 
 496:Libraries/FWlib/src/stm32f10x_flash.c **** #ifdef STM32F10X_XL
 497:Libraries/FWlib/src/stm32f10x_flash.c ****   /* Wait for last operation to be completed */
 498:Libraries/FWlib/src/stm32f10x_flash.c ****   status = FLASH_WaitForLastBank1Operation(EraseTimeout);
 499:Libraries/FWlib/src/stm32f10x_flash.c ****   
 500:Libraries/FWlib/src/stm32f10x_flash.c ****   if(status == FLASH_COMPLETE)
 501:Libraries/FWlib/src/stm32f10x_flash.c ****   {
 502:Libraries/FWlib/src/stm32f10x_flash.c ****     /* if the previous operation is completed, proceed to erase all pages */
 503:Libraries/FWlib/src/stm32f10x_flash.c ****      FLASH->CR |= CR_MER_Set;
 504:Libraries/FWlib/src/stm32f10x_flash.c ****      FLASH->CR |= CR_STRT_Set;
 505:Libraries/FWlib/src/stm32f10x_flash.c ****     
 506:Libraries/FWlib/src/stm32f10x_flash.c ****     /* Wait for last operation to be completed */
 507:Libraries/FWlib/src/stm32f10x_flash.c ****     status = FLASH_WaitForLastBank1Operation(EraseTimeout);
 508:Libraries/FWlib/src/stm32f10x_flash.c ****     
 509:Libraries/FWlib/src/stm32f10x_flash.c ****     /* Disable the MER Bit */
ARM GAS  /tmp/ccfAcV92.s 			page 14


 510:Libraries/FWlib/src/stm32f10x_flash.c ****     FLASH->CR &= CR_MER_Reset;
 511:Libraries/FWlib/src/stm32f10x_flash.c ****   }    
 512:Libraries/FWlib/src/stm32f10x_flash.c ****   if(status == FLASH_COMPLETE)
 513:Libraries/FWlib/src/stm32f10x_flash.c ****   {
 514:Libraries/FWlib/src/stm32f10x_flash.c ****     /* if the previous operation is completed, proceed to erase all pages */
 515:Libraries/FWlib/src/stm32f10x_flash.c ****      FLASH->CR2 |= CR_MER_Set;
 516:Libraries/FWlib/src/stm32f10x_flash.c ****      FLASH->CR2 |= CR_STRT_Set;
 517:Libraries/FWlib/src/stm32f10x_flash.c ****     
 518:Libraries/FWlib/src/stm32f10x_flash.c ****     /* Wait for last operation to be completed */
 519:Libraries/FWlib/src/stm32f10x_flash.c ****     status = FLASH_WaitForLastBank2Operation(EraseTimeout);
 520:Libraries/FWlib/src/stm32f10x_flash.c ****     
 521:Libraries/FWlib/src/stm32f10x_flash.c ****     /* Disable the MER Bit */
 522:Libraries/FWlib/src/stm32f10x_flash.c ****     FLASH->CR2 &= CR_MER_Reset;
 523:Libraries/FWlib/src/stm32f10x_flash.c ****   }
 524:Libraries/FWlib/src/stm32f10x_flash.c **** #else
 525:Libraries/FWlib/src/stm32f10x_flash.c ****   /* Wait for last operation to be completed */
 526:Libraries/FWlib/src/stm32f10x_flash.c ****   status = FLASH_WaitForLastOperation(EraseTimeout);
 527:Libraries/FWlib/src/stm32f10x_flash.c ****   if(status == FLASH_COMPLETE)
 528:Libraries/FWlib/src/stm32f10x_flash.c ****   {
 529:Libraries/FWlib/src/stm32f10x_flash.c ****     /* if the previous operation is completed, proceed to erase all pages */
 530:Libraries/FWlib/src/stm32f10x_flash.c ****      FLASH->CR |= CR_MER_Set;
 531:Libraries/FWlib/src/stm32f10x_flash.c ****      FLASH->CR |= CR_STRT_Set;
 532:Libraries/FWlib/src/stm32f10x_flash.c ****     
 533:Libraries/FWlib/src/stm32f10x_flash.c ****     /* Wait for last operation to be completed */
 534:Libraries/FWlib/src/stm32f10x_flash.c ****     status = FLASH_WaitForLastOperation(EraseTimeout);
 535:Libraries/FWlib/src/stm32f10x_flash.c **** 
 536:Libraries/FWlib/src/stm32f10x_flash.c ****     /* Disable the MER Bit */
 537:Libraries/FWlib/src/stm32f10x_flash.c ****     FLASH->CR &= CR_MER_Reset;
 538:Libraries/FWlib/src/stm32f10x_flash.c ****   }
 539:Libraries/FWlib/src/stm32f10x_flash.c **** #endif /* STM32F10X_XL */
 540:Libraries/FWlib/src/stm32f10x_flash.c **** 
 541:Libraries/FWlib/src/stm32f10x_flash.c ****   /* Return the Erase Status */
 542:Libraries/FWlib/src/stm32f10x_flash.c ****   return status;
 543:Libraries/FWlib/src/stm32f10x_flash.c **** }
 544:Libraries/FWlib/src/stm32f10x_flash.c **** 
 545:Libraries/FWlib/src/stm32f10x_flash.c **** /**
 546:Libraries/FWlib/src/stm32f10x_flash.c ****   * @brief  Erases all Bank1 FLASH pages.
 547:Libraries/FWlib/src/stm32f10x_flash.c ****   * @note   This function can be used for all STM32F10x devices.
 548:Libraries/FWlib/src/stm32f10x_flash.c ****   *         - For STM32F10X_XL devices this function erases all Bank1 pages.
 549:Libraries/FWlib/src/stm32f10x_flash.c ****   *         - For all other devices it erases all Bank1 pages and it is equivalent 
 550:Libraries/FWlib/src/stm32f10x_flash.c ****   *           to FLASH_EraseAllPages function.
 551:Libraries/FWlib/src/stm32f10x_flash.c ****   * @param  None
 552:Libraries/FWlib/src/stm32f10x_flash.c ****   * @retval FLASH Status: The returned value can be: FLASH_ERROR_PG,
 553:Libraries/FWlib/src/stm32f10x_flash.c ****   *         FLASH_ERROR_WRP, FLASH_COMPLETE or FLASH_TIMEOUT.
 554:Libraries/FWlib/src/stm32f10x_flash.c ****   */
 555:Libraries/FWlib/src/stm32f10x_flash.c **** FLASH_Status FLASH_EraseAllBank1Pages(void)
 556:Libraries/FWlib/src/stm32f10x_flash.c **** {
 557:Libraries/FWlib/src/stm32f10x_flash.c ****   FLASH_Status status = FLASH_COMPLETE;
 558:Libraries/FWlib/src/stm32f10x_flash.c ****   /* Wait for last operation to be completed */
 559:Libraries/FWlib/src/stm32f10x_flash.c ****   status = FLASH_WaitForLastBank1Operation(EraseTimeout);
 560:Libraries/FWlib/src/stm32f10x_flash.c ****   
 561:Libraries/FWlib/src/stm32f10x_flash.c ****   if(status == FLASH_COMPLETE)
 562:Libraries/FWlib/src/stm32f10x_flash.c ****   {
 563:Libraries/FWlib/src/stm32f10x_flash.c ****     /* if the previous operation is completed, proceed to erase all pages */
 564:Libraries/FWlib/src/stm32f10x_flash.c ****      FLASH->CR |= CR_MER_Set;
 565:Libraries/FWlib/src/stm32f10x_flash.c ****      FLASH->CR |= CR_STRT_Set;
 566:Libraries/FWlib/src/stm32f10x_flash.c ****     
ARM GAS  /tmp/ccfAcV92.s 			page 15


 567:Libraries/FWlib/src/stm32f10x_flash.c ****     /* Wait for last operation to be completed */
 568:Libraries/FWlib/src/stm32f10x_flash.c ****     status = FLASH_WaitForLastBank1Operation(EraseTimeout);
 569:Libraries/FWlib/src/stm32f10x_flash.c ****     
 570:Libraries/FWlib/src/stm32f10x_flash.c ****     /* Disable the MER Bit */
 571:Libraries/FWlib/src/stm32f10x_flash.c ****     FLASH->CR &= CR_MER_Reset;
 572:Libraries/FWlib/src/stm32f10x_flash.c ****   }    
 573:Libraries/FWlib/src/stm32f10x_flash.c ****   /* Return the Erase Status */
 574:Libraries/FWlib/src/stm32f10x_flash.c ****   return status;
 575:Libraries/FWlib/src/stm32f10x_flash.c **** }
 576:Libraries/FWlib/src/stm32f10x_flash.c **** 
 577:Libraries/FWlib/src/stm32f10x_flash.c **** #ifdef STM32F10X_XL
 578:Libraries/FWlib/src/stm32f10x_flash.c **** /**
 579:Libraries/FWlib/src/stm32f10x_flash.c ****   * @brief  Erases all Bank2 FLASH pages.
 580:Libraries/FWlib/src/stm32f10x_flash.c ****   * @note   This function can be used only for STM32F10x_XL density devices.
 581:Libraries/FWlib/src/stm32f10x_flash.c ****   * @param  None
 582:Libraries/FWlib/src/stm32f10x_flash.c ****   * @retval FLASH Status: The returned value can be: FLASH_ERROR_PG,
 583:Libraries/FWlib/src/stm32f10x_flash.c ****   *         FLASH_ERROR_WRP, FLASH_COMPLETE or FLASH_TIMEOUT.
 584:Libraries/FWlib/src/stm32f10x_flash.c ****   */
 585:Libraries/FWlib/src/stm32f10x_flash.c **** FLASH_Status FLASH_EraseAllBank2Pages(void)
 586:Libraries/FWlib/src/stm32f10x_flash.c **** {
 587:Libraries/FWlib/src/stm32f10x_flash.c ****   FLASH_Status status = FLASH_COMPLETE;
 588:Libraries/FWlib/src/stm32f10x_flash.c ****   /* Wait for last operation to be completed */
 589:Libraries/FWlib/src/stm32f10x_flash.c ****   status = FLASH_WaitForLastBank2Operation(EraseTimeout);
 590:Libraries/FWlib/src/stm32f10x_flash.c ****   
 591:Libraries/FWlib/src/stm32f10x_flash.c ****   if(status == FLASH_COMPLETE)
 592:Libraries/FWlib/src/stm32f10x_flash.c ****   {
 593:Libraries/FWlib/src/stm32f10x_flash.c ****     /* if the previous operation is completed, proceed to erase all pages */
 594:Libraries/FWlib/src/stm32f10x_flash.c ****      FLASH->CR2 |= CR_MER_Set;
 595:Libraries/FWlib/src/stm32f10x_flash.c ****      FLASH->CR2 |= CR_STRT_Set;
 596:Libraries/FWlib/src/stm32f10x_flash.c ****     
 597:Libraries/FWlib/src/stm32f10x_flash.c ****     /* Wait for last operation to be completed */
 598:Libraries/FWlib/src/stm32f10x_flash.c ****     status = FLASH_WaitForLastBank2Operation(EraseTimeout);
 599:Libraries/FWlib/src/stm32f10x_flash.c **** 
 600:Libraries/FWlib/src/stm32f10x_flash.c ****     /* Disable the MER Bit */
 601:Libraries/FWlib/src/stm32f10x_flash.c ****     FLASH->CR2 &= CR_MER_Reset;
 602:Libraries/FWlib/src/stm32f10x_flash.c ****   }    
 603:Libraries/FWlib/src/stm32f10x_flash.c ****   /* Return the Erase Status */
 604:Libraries/FWlib/src/stm32f10x_flash.c ****   return status;
 605:Libraries/FWlib/src/stm32f10x_flash.c **** }
 606:Libraries/FWlib/src/stm32f10x_flash.c **** #endif /* STM32F10X_XL */
 607:Libraries/FWlib/src/stm32f10x_flash.c **** 
 608:Libraries/FWlib/src/stm32f10x_flash.c **** /**
 609:Libraries/FWlib/src/stm32f10x_flash.c ****   * @brief  Erases the FLASH option bytes.
 610:Libraries/FWlib/src/stm32f10x_flash.c ****   * @note   This functions erases all option bytes except the Read protection (RDP). 
 611:Libraries/FWlib/src/stm32f10x_flash.c ****   * @note   This function can be used for all STM32F10x devices.
 612:Libraries/FWlib/src/stm32f10x_flash.c ****   * @param  None
 613:Libraries/FWlib/src/stm32f10x_flash.c ****   * @retval FLASH Status: The returned value can be: FLASH_ERROR_PG,
 614:Libraries/FWlib/src/stm32f10x_flash.c ****   *         FLASH_ERROR_WRP, FLASH_COMPLETE or FLASH_TIMEOUT.
 615:Libraries/FWlib/src/stm32f10x_flash.c ****   */
 616:Libraries/FWlib/src/stm32f10x_flash.c **** FLASH_Status FLASH_EraseOptionBytes(void)
 617:Libraries/FWlib/src/stm32f10x_flash.c **** {
 618:Libraries/FWlib/src/stm32f10x_flash.c ****   uint16_t rdptmp = RDP_Key;
 619:Libraries/FWlib/src/stm32f10x_flash.c **** 
 620:Libraries/FWlib/src/stm32f10x_flash.c ****   FLASH_Status status = FLASH_COMPLETE;
 621:Libraries/FWlib/src/stm32f10x_flash.c **** 
 622:Libraries/FWlib/src/stm32f10x_flash.c ****   /* Get the actual read protection Option Byte value */ 
 623:Libraries/FWlib/src/stm32f10x_flash.c ****   if(FLASH_GetReadOutProtectionStatus() != RESET)
ARM GAS  /tmp/ccfAcV92.s 			page 16


 624:Libraries/FWlib/src/stm32f10x_flash.c ****   {
 625:Libraries/FWlib/src/stm32f10x_flash.c ****     rdptmp = 0x00;  
 626:Libraries/FWlib/src/stm32f10x_flash.c ****   }
 627:Libraries/FWlib/src/stm32f10x_flash.c **** 
 628:Libraries/FWlib/src/stm32f10x_flash.c ****   /* Wait for last operation to be completed */
 629:Libraries/FWlib/src/stm32f10x_flash.c ****   status = FLASH_WaitForLastOperation(EraseTimeout);
 630:Libraries/FWlib/src/stm32f10x_flash.c ****   if(status == FLASH_COMPLETE)
 631:Libraries/FWlib/src/stm32f10x_flash.c ****   {
 632:Libraries/FWlib/src/stm32f10x_flash.c ****     /* Authorize the small information block programming */
 633:Libraries/FWlib/src/stm32f10x_flash.c ****     FLASH->OPTKEYR = FLASH_KEY1;
 634:Libraries/FWlib/src/stm32f10x_flash.c ****     FLASH->OPTKEYR = FLASH_KEY2;
 635:Libraries/FWlib/src/stm32f10x_flash.c ****     
 636:Libraries/FWlib/src/stm32f10x_flash.c ****     /* if the previous operation is completed, proceed to erase the option bytes */
 637:Libraries/FWlib/src/stm32f10x_flash.c ****     FLASH->CR |= CR_OPTER_Set;
 638:Libraries/FWlib/src/stm32f10x_flash.c ****     FLASH->CR |= CR_STRT_Set;
 639:Libraries/FWlib/src/stm32f10x_flash.c ****     /* Wait for last operation to be completed */
 640:Libraries/FWlib/src/stm32f10x_flash.c ****     status = FLASH_WaitForLastOperation(EraseTimeout);
 641:Libraries/FWlib/src/stm32f10x_flash.c ****     
 642:Libraries/FWlib/src/stm32f10x_flash.c ****     if(status == FLASH_COMPLETE)
 643:Libraries/FWlib/src/stm32f10x_flash.c ****     {
 644:Libraries/FWlib/src/stm32f10x_flash.c ****       /* if the erase operation is completed, disable the OPTER Bit */
 645:Libraries/FWlib/src/stm32f10x_flash.c ****       FLASH->CR &= CR_OPTER_Reset;
 646:Libraries/FWlib/src/stm32f10x_flash.c ****        
 647:Libraries/FWlib/src/stm32f10x_flash.c ****       /* Enable the Option Bytes Programming operation */
 648:Libraries/FWlib/src/stm32f10x_flash.c ****       FLASH->CR |= CR_OPTPG_Set;
 649:Libraries/FWlib/src/stm32f10x_flash.c ****       /* Restore the last read protection Option Byte value */
 650:Libraries/FWlib/src/stm32f10x_flash.c ****       OB->RDP = (uint16_t)rdptmp; 
 651:Libraries/FWlib/src/stm32f10x_flash.c ****       /* Wait for last operation to be completed */
 652:Libraries/FWlib/src/stm32f10x_flash.c ****       status = FLASH_WaitForLastOperation(ProgramTimeout);
 653:Libraries/FWlib/src/stm32f10x_flash.c ****  
 654:Libraries/FWlib/src/stm32f10x_flash.c ****       if(status != FLASH_TIMEOUT)
 655:Libraries/FWlib/src/stm32f10x_flash.c ****       {
 656:Libraries/FWlib/src/stm32f10x_flash.c ****         /* if the program operation is completed, disable the OPTPG Bit */
 657:Libraries/FWlib/src/stm32f10x_flash.c ****         FLASH->CR &= CR_OPTPG_Reset;
 658:Libraries/FWlib/src/stm32f10x_flash.c ****       }
 659:Libraries/FWlib/src/stm32f10x_flash.c ****     }
 660:Libraries/FWlib/src/stm32f10x_flash.c ****     else
 661:Libraries/FWlib/src/stm32f10x_flash.c ****     {
 662:Libraries/FWlib/src/stm32f10x_flash.c ****       if (status != FLASH_TIMEOUT)
 663:Libraries/FWlib/src/stm32f10x_flash.c ****       {
 664:Libraries/FWlib/src/stm32f10x_flash.c ****         /* Disable the OPTPG Bit */
 665:Libraries/FWlib/src/stm32f10x_flash.c ****         FLASH->CR &= CR_OPTPG_Reset;
 666:Libraries/FWlib/src/stm32f10x_flash.c ****       }
 667:Libraries/FWlib/src/stm32f10x_flash.c ****     }  
 668:Libraries/FWlib/src/stm32f10x_flash.c ****   }
 669:Libraries/FWlib/src/stm32f10x_flash.c ****   /* Return the erase status */
 670:Libraries/FWlib/src/stm32f10x_flash.c ****   return status;
 671:Libraries/FWlib/src/stm32f10x_flash.c **** }
 672:Libraries/FWlib/src/stm32f10x_flash.c **** 
 673:Libraries/FWlib/src/stm32f10x_flash.c **** /**
 674:Libraries/FWlib/src/stm32f10x_flash.c ****   * @brief  Programs a word at a specified address.
 675:Libraries/FWlib/src/stm32f10x_flash.c ****   * @note   This function can be used for all STM32F10x devices.
 676:Libraries/FWlib/src/stm32f10x_flash.c ****   * @param  Address: specifies the address to be programmed.
 677:Libraries/FWlib/src/stm32f10x_flash.c ****   * @param  Data: specifies the data to be programmed.
 678:Libraries/FWlib/src/stm32f10x_flash.c ****   * @retval FLASH Status: The returned value can be: FLASH_ERROR_PG,
 679:Libraries/FWlib/src/stm32f10x_flash.c ****   *         FLASH_ERROR_WRP, FLASH_COMPLETE or FLASH_TIMEOUT. 
 680:Libraries/FWlib/src/stm32f10x_flash.c ****   */
ARM GAS  /tmp/ccfAcV92.s 			page 17


 681:Libraries/FWlib/src/stm32f10x_flash.c **** FLASH_Status FLASH_ProgramWord(uint32_t Address, uint32_t Data)
 682:Libraries/FWlib/src/stm32f10x_flash.c **** {
 683:Libraries/FWlib/src/stm32f10x_flash.c ****   FLASH_Status status = FLASH_COMPLETE;
 684:Libraries/FWlib/src/stm32f10x_flash.c ****   __IO uint32_t tmp = 0;
 685:Libraries/FWlib/src/stm32f10x_flash.c **** 
 686:Libraries/FWlib/src/stm32f10x_flash.c ****   /* Check the parameters */
 687:Libraries/FWlib/src/stm32f10x_flash.c ****   assert_param(IS_FLASH_ADDRESS(Address));
 688:Libraries/FWlib/src/stm32f10x_flash.c **** 
 689:Libraries/FWlib/src/stm32f10x_flash.c **** #ifdef STM32F10X_XL
 690:Libraries/FWlib/src/stm32f10x_flash.c ****   if(Address < FLASH_BANK1_END_ADDRESS - 2)
 691:Libraries/FWlib/src/stm32f10x_flash.c ****   { 
 692:Libraries/FWlib/src/stm32f10x_flash.c ****     /* Wait for last operation to be completed */
 693:Libraries/FWlib/src/stm32f10x_flash.c ****     status = FLASH_WaitForLastBank1Operation(ProgramTimeout); 
 694:Libraries/FWlib/src/stm32f10x_flash.c ****     if(status == FLASH_COMPLETE)
 695:Libraries/FWlib/src/stm32f10x_flash.c ****     {
 696:Libraries/FWlib/src/stm32f10x_flash.c ****       /* if the previous operation is completed, proceed to program the new first 
 697:Libraries/FWlib/src/stm32f10x_flash.c ****         half word */
 698:Libraries/FWlib/src/stm32f10x_flash.c ****       FLASH->CR |= CR_PG_Set;
 699:Libraries/FWlib/src/stm32f10x_flash.c ****   
 700:Libraries/FWlib/src/stm32f10x_flash.c ****       *(__IO uint16_t*)Address = (uint16_t)Data;
 701:Libraries/FWlib/src/stm32f10x_flash.c ****       /* Wait for last operation to be completed */
 702:Libraries/FWlib/src/stm32f10x_flash.c ****       status = FLASH_WaitForLastOperation(ProgramTimeout);
 703:Libraries/FWlib/src/stm32f10x_flash.c ****  
 704:Libraries/FWlib/src/stm32f10x_flash.c ****       if(status == FLASH_COMPLETE)
 705:Libraries/FWlib/src/stm32f10x_flash.c ****       {
 706:Libraries/FWlib/src/stm32f10x_flash.c ****         /* if the previous operation is completed, proceed to program the new second 
 707:Libraries/FWlib/src/stm32f10x_flash.c ****         half word */
 708:Libraries/FWlib/src/stm32f10x_flash.c ****         tmp = Address + 2;
 709:Libraries/FWlib/src/stm32f10x_flash.c **** 
 710:Libraries/FWlib/src/stm32f10x_flash.c ****         *(__IO uint16_t*) tmp = Data >> 16;
 711:Libraries/FWlib/src/stm32f10x_flash.c ****     
 712:Libraries/FWlib/src/stm32f10x_flash.c ****         /* Wait for last operation to be completed */
 713:Libraries/FWlib/src/stm32f10x_flash.c ****         status = FLASH_WaitForLastOperation(ProgramTimeout);
 714:Libraries/FWlib/src/stm32f10x_flash.c ****         
 715:Libraries/FWlib/src/stm32f10x_flash.c ****         /* Disable the PG Bit */
 716:Libraries/FWlib/src/stm32f10x_flash.c ****         FLASH->CR &= CR_PG_Reset;
 717:Libraries/FWlib/src/stm32f10x_flash.c ****       }
 718:Libraries/FWlib/src/stm32f10x_flash.c ****       else
 719:Libraries/FWlib/src/stm32f10x_flash.c ****       {
 720:Libraries/FWlib/src/stm32f10x_flash.c ****         /* Disable the PG Bit */
 721:Libraries/FWlib/src/stm32f10x_flash.c ****         FLASH->CR &= CR_PG_Reset;
 722:Libraries/FWlib/src/stm32f10x_flash.c ****        }
 723:Libraries/FWlib/src/stm32f10x_flash.c ****     }
 724:Libraries/FWlib/src/stm32f10x_flash.c ****   }
 725:Libraries/FWlib/src/stm32f10x_flash.c ****   else if(Address == (FLASH_BANK1_END_ADDRESS - 1))
 726:Libraries/FWlib/src/stm32f10x_flash.c ****   {
 727:Libraries/FWlib/src/stm32f10x_flash.c ****     /* Wait for last operation to be completed */
 728:Libraries/FWlib/src/stm32f10x_flash.c ****     status = FLASH_WaitForLastBank1Operation(ProgramTimeout);
 729:Libraries/FWlib/src/stm32f10x_flash.c **** 
 730:Libraries/FWlib/src/stm32f10x_flash.c ****     if(status == FLASH_COMPLETE)
 731:Libraries/FWlib/src/stm32f10x_flash.c ****     {
 732:Libraries/FWlib/src/stm32f10x_flash.c ****       /* if the previous operation is completed, proceed to program the new first 
 733:Libraries/FWlib/src/stm32f10x_flash.c ****         half word */
 734:Libraries/FWlib/src/stm32f10x_flash.c ****       FLASH->CR |= CR_PG_Set;
 735:Libraries/FWlib/src/stm32f10x_flash.c ****   
 736:Libraries/FWlib/src/stm32f10x_flash.c ****       *(__IO uint16_t*)Address = (uint16_t)Data;
 737:Libraries/FWlib/src/stm32f10x_flash.c **** 
ARM GAS  /tmp/ccfAcV92.s 			page 18


 738:Libraries/FWlib/src/stm32f10x_flash.c ****       /* Wait for last operation to be completed */
 739:Libraries/FWlib/src/stm32f10x_flash.c ****       status = FLASH_WaitForLastBank1Operation(ProgramTimeout);
 740:Libraries/FWlib/src/stm32f10x_flash.c ****       
 741:Libraries/FWlib/src/stm32f10x_flash.c **** 	  /* Disable the PG Bit */
 742:Libraries/FWlib/src/stm32f10x_flash.c ****       FLASH->CR &= CR_PG_Reset;
 743:Libraries/FWlib/src/stm32f10x_flash.c ****     }
 744:Libraries/FWlib/src/stm32f10x_flash.c ****     else
 745:Libraries/FWlib/src/stm32f10x_flash.c ****     {
 746:Libraries/FWlib/src/stm32f10x_flash.c ****       /* Disable the PG Bit */
 747:Libraries/FWlib/src/stm32f10x_flash.c ****       FLASH->CR &= CR_PG_Reset;
 748:Libraries/FWlib/src/stm32f10x_flash.c ****     }
 749:Libraries/FWlib/src/stm32f10x_flash.c **** 
 750:Libraries/FWlib/src/stm32f10x_flash.c ****     /* Wait for last operation to be completed */
 751:Libraries/FWlib/src/stm32f10x_flash.c ****     status = FLASH_WaitForLastBank2Operation(ProgramTimeout);
 752:Libraries/FWlib/src/stm32f10x_flash.c **** 
 753:Libraries/FWlib/src/stm32f10x_flash.c ****     if(status == FLASH_COMPLETE)
 754:Libraries/FWlib/src/stm32f10x_flash.c ****     {
 755:Libraries/FWlib/src/stm32f10x_flash.c ****       /* if the previous operation is completed, proceed to program the new second 
 756:Libraries/FWlib/src/stm32f10x_flash.c ****       half word */
 757:Libraries/FWlib/src/stm32f10x_flash.c ****       FLASH->CR2 |= CR_PG_Set;
 758:Libraries/FWlib/src/stm32f10x_flash.c ****       tmp = Address + 2;
 759:Libraries/FWlib/src/stm32f10x_flash.c **** 
 760:Libraries/FWlib/src/stm32f10x_flash.c ****       *(__IO uint16_t*) tmp = Data >> 16;
 761:Libraries/FWlib/src/stm32f10x_flash.c ****     
 762:Libraries/FWlib/src/stm32f10x_flash.c ****       /* Wait for last operation to be completed */
 763:Libraries/FWlib/src/stm32f10x_flash.c ****       status = FLASH_WaitForLastBank2Operation(ProgramTimeout);
 764:Libraries/FWlib/src/stm32f10x_flash.c ****         
 765:Libraries/FWlib/src/stm32f10x_flash.c ****       /* Disable the PG Bit */
 766:Libraries/FWlib/src/stm32f10x_flash.c ****       FLASH->CR2 &= CR_PG_Reset;
 767:Libraries/FWlib/src/stm32f10x_flash.c ****     }
 768:Libraries/FWlib/src/stm32f10x_flash.c ****     else
 769:Libraries/FWlib/src/stm32f10x_flash.c ****     {
 770:Libraries/FWlib/src/stm32f10x_flash.c ****       /* Disable the PG Bit */
 771:Libraries/FWlib/src/stm32f10x_flash.c ****       FLASH->CR2 &= CR_PG_Reset;
 772:Libraries/FWlib/src/stm32f10x_flash.c ****     }
 773:Libraries/FWlib/src/stm32f10x_flash.c ****   }
 774:Libraries/FWlib/src/stm32f10x_flash.c ****   else
 775:Libraries/FWlib/src/stm32f10x_flash.c ****   {
 776:Libraries/FWlib/src/stm32f10x_flash.c ****     /* Wait for last operation to be completed */
 777:Libraries/FWlib/src/stm32f10x_flash.c ****     status = FLASH_WaitForLastBank2Operation(ProgramTimeout);
 778:Libraries/FWlib/src/stm32f10x_flash.c **** 
 779:Libraries/FWlib/src/stm32f10x_flash.c ****     if(status == FLASH_COMPLETE)
 780:Libraries/FWlib/src/stm32f10x_flash.c ****     {
 781:Libraries/FWlib/src/stm32f10x_flash.c ****       /* if the previous operation is completed, proceed to program the new first 
 782:Libraries/FWlib/src/stm32f10x_flash.c ****         half word */
 783:Libraries/FWlib/src/stm32f10x_flash.c ****       FLASH->CR2 |= CR_PG_Set;
 784:Libraries/FWlib/src/stm32f10x_flash.c ****   
 785:Libraries/FWlib/src/stm32f10x_flash.c ****       *(__IO uint16_t*)Address = (uint16_t)Data;
 786:Libraries/FWlib/src/stm32f10x_flash.c ****       /* Wait for last operation to be completed */
 787:Libraries/FWlib/src/stm32f10x_flash.c ****       status = FLASH_WaitForLastBank2Operation(ProgramTimeout);
 788:Libraries/FWlib/src/stm32f10x_flash.c ****  
 789:Libraries/FWlib/src/stm32f10x_flash.c ****       if(status == FLASH_COMPLETE)
 790:Libraries/FWlib/src/stm32f10x_flash.c ****       {
 791:Libraries/FWlib/src/stm32f10x_flash.c ****         /* if the previous operation is completed, proceed to program the new second 
 792:Libraries/FWlib/src/stm32f10x_flash.c ****         half word */
 793:Libraries/FWlib/src/stm32f10x_flash.c ****         tmp = Address + 2;
 794:Libraries/FWlib/src/stm32f10x_flash.c **** 
ARM GAS  /tmp/ccfAcV92.s 			page 19


 795:Libraries/FWlib/src/stm32f10x_flash.c ****         *(__IO uint16_t*) tmp = Data >> 16;
 796:Libraries/FWlib/src/stm32f10x_flash.c ****     
 797:Libraries/FWlib/src/stm32f10x_flash.c ****         /* Wait for last operation to be completed */
 798:Libraries/FWlib/src/stm32f10x_flash.c ****         status = FLASH_WaitForLastBank2Operation(ProgramTimeout);
 799:Libraries/FWlib/src/stm32f10x_flash.c ****         
 800:Libraries/FWlib/src/stm32f10x_flash.c ****         /* Disable the PG Bit */
 801:Libraries/FWlib/src/stm32f10x_flash.c ****         FLASH->CR2 &= CR_PG_Reset;
 802:Libraries/FWlib/src/stm32f10x_flash.c ****       }
 803:Libraries/FWlib/src/stm32f10x_flash.c ****       else
 804:Libraries/FWlib/src/stm32f10x_flash.c ****       {
 805:Libraries/FWlib/src/stm32f10x_flash.c ****         /* Disable the PG Bit */
 806:Libraries/FWlib/src/stm32f10x_flash.c ****         FLASH->CR2 &= CR_PG_Reset;
 807:Libraries/FWlib/src/stm32f10x_flash.c ****       }
 808:Libraries/FWlib/src/stm32f10x_flash.c ****     }
 809:Libraries/FWlib/src/stm32f10x_flash.c ****   }
 810:Libraries/FWlib/src/stm32f10x_flash.c **** #else
 811:Libraries/FWlib/src/stm32f10x_flash.c ****   /* Wait for last operation to be completed */
 812:Libraries/FWlib/src/stm32f10x_flash.c ****   status = FLASH_WaitForLastOperation(ProgramTimeout);
 813:Libraries/FWlib/src/stm32f10x_flash.c ****   
 814:Libraries/FWlib/src/stm32f10x_flash.c ****   if(status == FLASH_COMPLETE)
 815:Libraries/FWlib/src/stm32f10x_flash.c ****   {
 816:Libraries/FWlib/src/stm32f10x_flash.c ****     /* if the previous operation is completed, proceed to program the new first 
 817:Libraries/FWlib/src/stm32f10x_flash.c ****     half word */
 818:Libraries/FWlib/src/stm32f10x_flash.c ****     FLASH->CR |= CR_PG_Set;
 819:Libraries/FWlib/src/stm32f10x_flash.c ****   
 820:Libraries/FWlib/src/stm32f10x_flash.c ****     *(__IO uint16_t*)Address = (uint16_t)Data;
 821:Libraries/FWlib/src/stm32f10x_flash.c ****     /* Wait for last operation to be completed */
 822:Libraries/FWlib/src/stm32f10x_flash.c ****     status = FLASH_WaitForLastOperation(ProgramTimeout);
 823:Libraries/FWlib/src/stm32f10x_flash.c ****  
 824:Libraries/FWlib/src/stm32f10x_flash.c ****     if(status == FLASH_COMPLETE)
 825:Libraries/FWlib/src/stm32f10x_flash.c ****     {
 826:Libraries/FWlib/src/stm32f10x_flash.c ****       /* if the previous operation is completed, proceed to program the new second 
 827:Libraries/FWlib/src/stm32f10x_flash.c ****       half word */
 828:Libraries/FWlib/src/stm32f10x_flash.c ****       tmp = Address + 2;
 829:Libraries/FWlib/src/stm32f10x_flash.c **** 
 830:Libraries/FWlib/src/stm32f10x_flash.c ****       *(__IO uint16_t*) tmp = Data >> 16;
 831:Libraries/FWlib/src/stm32f10x_flash.c ****     
 832:Libraries/FWlib/src/stm32f10x_flash.c ****       /* Wait for last operation to be completed */
 833:Libraries/FWlib/src/stm32f10x_flash.c ****       status = FLASH_WaitForLastOperation(ProgramTimeout);
 834:Libraries/FWlib/src/stm32f10x_flash.c ****         
 835:Libraries/FWlib/src/stm32f10x_flash.c ****       /* Disable the PG Bit */
 836:Libraries/FWlib/src/stm32f10x_flash.c ****       FLASH->CR &= CR_PG_Reset;
 837:Libraries/FWlib/src/stm32f10x_flash.c ****     }
 838:Libraries/FWlib/src/stm32f10x_flash.c ****     else
 839:Libraries/FWlib/src/stm32f10x_flash.c ****     {
 840:Libraries/FWlib/src/stm32f10x_flash.c ****       /* Disable the PG Bit */
 841:Libraries/FWlib/src/stm32f10x_flash.c ****       FLASH->CR &= CR_PG_Reset;
 842:Libraries/FWlib/src/stm32f10x_flash.c ****     }
 843:Libraries/FWlib/src/stm32f10x_flash.c ****   }         
 844:Libraries/FWlib/src/stm32f10x_flash.c **** #endif /* STM32F10X_XL */
 845:Libraries/FWlib/src/stm32f10x_flash.c ****    
 846:Libraries/FWlib/src/stm32f10x_flash.c ****   /* Return the Program Status */
 847:Libraries/FWlib/src/stm32f10x_flash.c ****   return status;
 848:Libraries/FWlib/src/stm32f10x_flash.c **** }
 849:Libraries/FWlib/src/stm32f10x_flash.c **** 
 850:Libraries/FWlib/src/stm32f10x_flash.c **** /**
 851:Libraries/FWlib/src/stm32f10x_flash.c ****   * @brief  Programs a half word at a specified address.
ARM GAS  /tmp/ccfAcV92.s 			page 20


 852:Libraries/FWlib/src/stm32f10x_flash.c ****   * @note   This function can be used for all STM32F10x devices.
 853:Libraries/FWlib/src/stm32f10x_flash.c ****   * @param  Address: specifies the address to be programmed.
 854:Libraries/FWlib/src/stm32f10x_flash.c ****   * @param  Data: specifies the data to be programmed.
 855:Libraries/FWlib/src/stm32f10x_flash.c ****   * @retval FLASH Status: The returned value can be: FLASH_ERROR_PG,
 856:Libraries/FWlib/src/stm32f10x_flash.c ****   *         FLASH_ERROR_WRP, FLASH_COMPLETE or FLASH_TIMEOUT. 
 857:Libraries/FWlib/src/stm32f10x_flash.c ****   */
 858:Libraries/FWlib/src/stm32f10x_flash.c **** FLASH_Status FLASH_ProgramHalfWord(uint32_t Address, uint16_t Data)
 859:Libraries/FWlib/src/stm32f10x_flash.c **** {
 860:Libraries/FWlib/src/stm32f10x_flash.c ****   FLASH_Status status = FLASH_COMPLETE;
 861:Libraries/FWlib/src/stm32f10x_flash.c ****   /* Check the parameters */
 862:Libraries/FWlib/src/stm32f10x_flash.c ****   assert_param(IS_FLASH_ADDRESS(Address));
 863:Libraries/FWlib/src/stm32f10x_flash.c **** 
 864:Libraries/FWlib/src/stm32f10x_flash.c **** #ifdef STM32F10X_XL
 865:Libraries/FWlib/src/stm32f10x_flash.c ****   /* Wait for last operation to be completed */
 866:Libraries/FWlib/src/stm32f10x_flash.c ****   status = FLASH_WaitForLastOperation(ProgramTimeout);
 867:Libraries/FWlib/src/stm32f10x_flash.c ****   
 868:Libraries/FWlib/src/stm32f10x_flash.c ****   if(Address < FLASH_BANK1_END_ADDRESS)
 869:Libraries/FWlib/src/stm32f10x_flash.c ****   {
 870:Libraries/FWlib/src/stm32f10x_flash.c ****     if(status == FLASH_COMPLETE)
 871:Libraries/FWlib/src/stm32f10x_flash.c ****     {
 872:Libraries/FWlib/src/stm32f10x_flash.c ****       /* if the previous operation is completed, proceed to program the new data */
 873:Libraries/FWlib/src/stm32f10x_flash.c ****       FLASH->CR |= CR_PG_Set;
 874:Libraries/FWlib/src/stm32f10x_flash.c ****   
 875:Libraries/FWlib/src/stm32f10x_flash.c ****       *(__IO uint16_t*)Address = Data;
 876:Libraries/FWlib/src/stm32f10x_flash.c ****       /* Wait for last operation to be completed */
 877:Libraries/FWlib/src/stm32f10x_flash.c ****       status = FLASH_WaitForLastBank1Operation(ProgramTimeout);
 878:Libraries/FWlib/src/stm32f10x_flash.c **** 
 879:Libraries/FWlib/src/stm32f10x_flash.c ****       /* Disable the PG Bit */
 880:Libraries/FWlib/src/stm32f10x_flash.c ****       FLASH->CR &= CR_PG_Reset;
 881:Libraries/FWlib/src/stm32f10x_flash.c ****     }
 882:Libraries/FWlib/src/stm32f10x_flash.c ****   }
 883:Libraries/FWlib/src/stm32f10x_flash.c ****   else
 884:Libraries/FWlib/src/stm32f10x_flash.c ****   {
 885:Libraries/FWlib/src/stm32f10x_flash.c ****     if(status == FLASH_COMPLETE)
 886:Libraries/FWlib/src/stm32f10x_flash.c ****     {
 887:Libraries/FWlib/src/stm32f10x_flash.c ****       /* if the previous operation is completed, proceed to program the new data */
 888:Libraries/FWlib/src/stm32f10x_flash.c ****       FLASH->CR2 |= CR_PG_Set;
 889:Libraries/FWlib/src/stm32f10x_flash.c ****   
 890:Libraries/FWlib/src/stm32f10x_flash.c ****       *(__IO uint16_t*)Address = Data;
 891:Libraries/FWlib/src/stm32f10x_flash.c ****       /* Wait for last operation to be completed */
 892:Libraries/FWlib/src/stm32f10x_flash.c ****       status = FLASH_WaitForLastBank2Operation(ProgramTimeout);
 893:Libraries/FWlib/src/stm32f10x_flash.c **** 
 894:Libraries/FWlib/src/stm32f10x_flash.c ****       /* Disable the PG Bit */
 895:Libraries/FWlib/src/stm32f10x_flash.c ****       FLASH->CR2 &= CR_PG_Reset;
 896:Libraries/FWlib/src/stm32f10x_flash.c ****     }
 897:Libraries/FWlib/src/stm32f10x_flash.c ****   }
 898:Libraries/FWlib/src/stm32f10x_flash.c **** #else
 899:Libraries/FWlib/src/stm32f10x_flash.c ****   /* Wait for last operation to be completed */
 900:Libraries/FWlib/src/stm32f10x_flash.c ****   status = FLASH_WaitForLastOperation(ProgramTimeout);
 901:Libraries/FWlib/src/stm32f10x_flash.c ****   
 902:Libraries/FWlib/src/stm32f10x_flash.c ****   if(status == FLASH_COMPLETE)
 903:Libraries/FWlib/src/stm32f10x_flash.c ****   {
 904:Libraries/FWlib/src/stm32f10x_flash.c ****     /* if the previous operation is completed, proceed to program the new data */
 905:Libraries/FWlib/src/stm32f10x_flash.c ****     FLASH->CR |= CR_PG_Set;
 906:Libraries/FWlib/src/stm32f10x_flash.c ****   
 907:Libraries/FWlib/src/stm32f10x_flash.c ****     *(__IO uint16_t*)Address = Data;
 908:Libraries/FWlib/src/stm32f10x_flash.c ****     /* Wait for last operation to be completed */
ARM GAS  /tmp/ccfAcV92.s 			page 21


 909:Libraries/FWlib/src/stm32f10x_flash.c ****     status = FLASH_WaitForLastOperation(ProgramTimeout);
 910:Libraries/FWlib/src/stm32f10x_flash.c ****     
 911:Libraries/FWlib/src/stm32f10x_flash.c ****     /* Disable the PG Bit */
 912:Libraries/FWlib/src/stm32f10x_flash.c ****     FLASH->CR &= CR_PG_Reset;
 913:Libraries/FWlib/src/stm32f10x_flash.c ****   } 
 914:Libraries/FWlib/src/stm32f10x_flash.c **** #endif  /* STM32F10X_XL */
 915:Libraries/FWlib/src/stm32f10x_flash.c ****   
 916:Libraries/FWlib/src/stm32f10x_flash.c ****   /* Return the Program Status */
 917:Libraries/FWlib/src/stm32f10x_flash.c ****   return status;
 918:Libraries/FWlib/src/stm32f10x_flash.c **** }
 919:Libraries/FWlib/src/stm32f10x_flash.c **** 
 920:Libraries/FWlib/src/stm32f10x_flash.c **** /**
 921:Libraries/FWlib/src/stm32f10x_flash.c ****   * @brief  Programs a half word at a specified Option Byte Data address.
 922:Libraries/FWlib/src/stm32f10x_flash.c ****   * @note   This function can be used for all STM32F10x devices.
 923:Libraries/FWlib/src/stm32f10x_flash.c ****   * @param  Address: specifies the address to be programmed.
 924:Libraries/FWlib/src/stm32f10x_flash.c ****   *   This parameter can be 0x1FFFF804 or 0x1FFFF806. 
 925:Libraries/FWlib/src/stm32f10x_flash.c ****   * @param  Data: specifies the data to be programmed.
 926:Libraries/FWlib/src/stm32f10x_flash.c ****   * @retval FLASH Status: The returned value can be: FLASH_ERROR_PG,
 927:Libraries/FWlib/src/stm32f10x_flash.c ****   *         FLASH_ERROR_WRP, FLASH_COMPLETE or FLASH_TIMEOUT. 
 928:Libraries/FWlib/src/stm32f10x_flash.c ****   */
 929:Libraries/FWlib/src/stm32f10x_flash.c **** FLASH_Status FLASH_ProgramOptionByteData(uint32_t Address, uint8_t Data)
 930:Libraries/FWlib/src/stm32f10x_flash.c **** {
 931:Libraries/FWlib/src/stm32f10x_flash.c ****   FLASH_Status status = FLASH_COMPLETE;
 932:Libraries/FWlib/src/stm32f10x_flash.c ****   /* Check the parameters */
 933:Libraries/FWlib/src/stm32f10x_flash.c ****   assert_param(IS_OB_DATA_ADDRESS(Address));
 934:Libraries/FWlib/src/stm32f10x_flash.c ****   status = FLASH_WaitForLastOperation(ProgramTimeout);
 935:Libraries/FWlib/src/stm32f10x_flash.c **** 
 936:Libraries/FWlib/src/stm32f10x_flash.c ****   if(status == FLASH_COMPLETE)
 937:Libraries/FWlib/src/stm32f10x_flash.c ****   {
 938:Libraries/FWlib/src/stm32f10x_flash.c ****     /* Authorize the small information block programming */
 939:Libraries/FWlib/src/stm32f10x_flash.c ****     FLASH->OPTKEYR = FLASH_KEY1;
 940:Libraries/FWlib/src/stm32f10x_flash.c ****     FLASH->OPTKEYR = FLASH_KEY2;
 941:Libraries/FWlib/src/stm32f10x_flash.c ****     /* Enables the Option Bytes Programming operation */
 942:Libraries/FWlib/src/stm32f10x_flash.c ****     FLASH->CR |= CR_OPTPG_Set; 
 943:Libraries/FWlib/src/stm32f10x_flash.c ****     *(__IO uint16_t*)Address = Data;
 944:Libraries/FWlib/src/stm32f10x_flash.c ****     
 945:Libraries/FWlib/src/stm32f10x_flash.c ****     /* Wait for last operation to be completed */
 946:Libraries/FWlib/src/stm32f10x_flash.c ****     status = FLASH_WaitForLastOperation(ProgramTimeout);
 947:Libraries/FWlib/src/stm32f10x_flash.c ****     if(status != FLASH_TIMEOUT)
 948:Libraries/FWlib/src/stm32f10x_flash.c ****     {
 949:Libraries/FWlib/src/stm32f10x_flash.c ****       /* if the program operation is completed, disable the OPTPG Bit */
 950:Libraries/FWlib/src/stm32f10x_flash.c ****       FLASH->CR &= CR_OPTPG_Reset;
 951:Libraries/FWlib/src/stm32f10x_flash.c ****     }
 952:Libraries/FWlib/src/stm32f10x_flash.c ****   }
 953:Libraries/FWlib/src/stm32f10x_flash.c ****   /* Return the Option Byte Data Program Status */
 954:Libraries/FWlib/src/stm32f10x_flash.c ****   return status;
 955:Libraries/FWlib/src/stm32f10x_flash.c **** }
 956:Libraries/FWlib/src/stm32f10x_flash.c **** 
 957:Libraries/FWlib/src/stm32f10x_flash.c **** /**
 958:Libraries/FWlib/src/stm32f10x_flash.c ****   * @brief  Write protects the desired pages
 959:Libraries/FWlib/src/stm32f10x_flash.c ****   * @note   This function can be used for all STM32F10x devices.
 960:Libraries/FWlib/src/stm32f10x_flash.c ****   * @param  FLASH_Pages: specifies the address of the pages to be write protected.
 961:Libraries/FWlib/src/stm32f10x_flash.c ****   *   This parameter can be:
 962:Libraries/FWlib/src/stm32f10x_flash.c ****   *     @arg For @b STM32_Low-density_devices: value between FLASH_WRProt_Pages0to3 and FLASH_WRPro
 963:Libraries/FWlib/src/stm32f10x_flash.c ****   *     @arg For @b STM32_Medium-density_devices: value between FLASH_WRProt_Pages0to3
 964:Libraries/FWlib/src/stm32f10x_flash.c ****   *       and FLASH_WRProt_Pages124to127
 965:Libraries/FWlib/src/stm32f10x_flash.c ****   *     @arg For @b STM32_High-density_devices: value between FLASH_WRProt_Pages0to1 and
ARM GAS  /tmp/ccfAcV92.s 			page 22


 966:Libraries/FWlib/src/stm32f10x_flash.c ****   *       FLASH_WRProt_Pages60to61 or FLASH_WRProt_Pages62to255
 967:Libraries/FWlib/src/stm32f10x_flash.c ****   *     @arg For @b STM32_Connectivity_line_devices: value between FLASH_WRProt_Pages0to1 and
 968:Libraries/FWlib/src/stm32f10x_flash.c ****   *       FLASH_WRProt_Pages60to61 or FLASH_WRProt_Pages62to127    
 969:Libraries/FWlib/src/stm32f10x_flash.c ****   *     @arg For @b STM32_XL-density_devices: value between FLASH_WRProt_Pages0to1 and
 970:Libraries/FWlib/src/stm32f10x_flash.c ****   *       FLASH_WRProt_Pages60to61 or FLASH_WRProt_Pages62to511
 971:Libraries/FWlib/src/stm32f10x_flash.c ****   *     @arg FLASH_WRProt_AllPages
 972:Libraries/FWlib/src/stm32f10x_flash.c ****   * @retval FLASH Status: The returned value can be: FLASH_ERROR_PG,
 973:Libraries/FWlib/src/stm32f10x_flash.c ****   *         FLASH_ERROR_WRP, FLASH_COMPLETE or FLASH_TIMEOUT.
 974:Libraries/FWlib/src/stm32f10x_flash.c ****   */
 975:Libraries/FWlib/src/stm32f10x_flash.c **** FLASH_Status FLASH_EnableWriteProtection(uint32_t FLASH_Pages)
 976:Libraries/FWlib/src/stm32f10x_flash.c **** {
 977:Libraries/FWlib/src/stm32f10x_flash.c ****   uint16_t WRP0_Data = 0xFFFF, WRP1_Data = 0xFFFF, WRP2_Data = 0xFFFF, WRP3_Data = 0xFFFF;
 978:Libraries/FWlib/src/stm32f10x_flash.c ****   
 979:Libraries/FWlib/src/stm32f10x_flash.c ****   FLASH_Status status = FLASH_COMPLETE;
 980:Libraries/FWlib/src/stm32f10x_flash.c ****   
 981:Libraries/FWlib/src/stm32f10x_flash.c ****   /* Check the parameters */
 982:Libraries/FWlib/src/stm32f10x_flash.c ****   assert_param(IS_FLASH_WRPROT_PAGE(FLASH_Pages));
 983:Libraries/FWlib/src/stm32f10x_flash.c ****   
 984:Libraries/FWlib/src/stm32f10x_flash.c ****   FLASH_Pages = (uint32_t)(~FLASH_Pages);
 985:Libraries/FWlib/src/stm32f10x_flash.c ****   WRP0_Data = (uint16_t)(FLASH_Pages & WRP0_Mask);
 986:Libraries/FWlib/src/stm32f10x_flash.c ****   WRP1_Data = (uint16_t)((FLASH_Pages & WRP1_Mask) >> 8);
 987:Libraries/FWlib/src/stm32f10x_flash.c ****   WRP2_Data = (uint16_t)((FLASH_Pages & WRP2_Mask) >> 16);
 988:Libraries/FWlib/src/stm32f10x_flash.c ****   WRP3_Data = (uint16_t)((FLASH_Pages & WRP3_Mask) >> 24);
 989:Libraries/FWlib/src/stm32f10x_flash.c ****   
 990:Libraries/FWlib/src/stm32f10x_flash.c ****   /* Wait for last operation to be completed */
 991:Libraries/FWlib/src/stm32f10x_flash.c ****   status = FLASH_WaitForLastOperation(ProgramTimeout);
 992:Libraries/FWlib/src/stm32f10x_flash.c ****   
 993:Libraries/FWlib/src/stm32f10x_flash.c ****   if(status == FLASH_COMPLETE)
 994:Libraries/FWlib/src/stm32f10x_flash.c ****   {
 995:Libraries/FWlib/src/stm32f10x_flash.c ****     /* Authorizes the small information block programming */
 996:Libraries/FWlib/src/stm32f10x_flash.c ****     FLASH->OPTKEYR = FLASH_KEY1;
 997:Libraries/FWlib/src/stm32f10x_flash.c ****     FLASH->OPTKEYR = FLASH_KEY2;
 998:Libraries/FWlib/src/stm32f10x_flash.c ****     FLASH->CR |= CR_OPTPG_Set;
 999:Libraries/FWlib/src/stm32f10x_flash.c ****     if(WRP0_Data != 0xFF)
1000:Libraries/FWlib/src/stm32f10x_flash.c ****     {
1001:Libraries/FWlib/src/stm32f10x_flash.c ****       OB->WRP0 = WRP0_Data;
1002:Libraries/FWlib/src/stm32f10x_flash.c ****       
1003:Libraries/FWlib/src/stm32f10x_flash.c ****       /* Wait for last operation to be completed */
1004:Libraries/FWlib/src/stm32f10x_flash.c ****       status = FLASH_WaitForLastOperation(ProgramTimeout);
1005:Libraries/FWlib/src/stm32f10x_flash.c ****     }
1006:Libraries/FWlib/src/stm32f10x_flash.c ****     if((status == FLASH_COMPLETE) && (WRP1_Data != 0xFF))
1007:Libraries/FWlib/src/stm32f10x_flash.c ****     {
1008:Libraries/FWlib/src/stm32f10x_flash.c ****       OB->WRP1 = WRP1_Data;
1009:Libraries/FWlib/src/stm32f10x_flash.c ****       
1010:Libraries/FWlib/src/stm32f10x_flash.c ****       /* Wait for last operation to be completed */
1011:Libraries/FWlib/src/stm32f10x_flash.c ****       status = FLASH_WaitForLastOperation(ProgramTimeout);
1012:Libraries/FWlib/src/stm32f10x_flash.c ****     }
1013:Libraries/FWlib/src/stm32f10x_flash.c ****     if((status == FLASH_COMPLETE) && (WRP2_Data != 0xFF))
1014:Libraries/FWlib/src/stm32f10x_flash.c ****     {
1015:Libraries/FWlib/src/stm32f10x_flash.c ****       OB->WRP2 = WRP2_Data;
1016:Libraries/FWlib/src/stm32f10x_flash.c ****       
1017:Libraries/FWlib/src/stm32f10x_flash.c ****       /* Wait for last operation to be completed */
1018:Libraries/FWlib/src/stm32f10x_flash.c ****       status = FLASH_WaitForLastOperation(ProgramTimeout);
1019:Libraries/FWlib/src/stm32f10x_flash.c ****     }
1020:Libraries/FWlib/src/stm32f10x_flash.c ****     
1021:Libraries/FWlib/src/stm32f10x_flash.c ****     if((status == FLASH_COMPLETE)&& (WRP3_Data != 0xFF))
1022:Libraries/FWlib/src/stm32f10x_flash.c ****     {
ARM GAS  /tmp/ccfAcV92.s 			page 23


1023:Libraries/FWlib/src/stm32f10x_flash.c ****       OB->WRP3 = WRP3_Data;
1024:Libraries/FWlib/src/stm32f10x_flash.c ****      
1025:Libraries/FWlib/src/stm32f10x_flash.c ****       /* Wait for last operation to be completed */
1026:Libraries/FWlib/src/stm32f10x_flash.c ****       status = FLASH_WaitForLastOperation(ProgramTimeout);
1027:Libraries/FWlib/src/stm32f10x_flash.c ****     }
1028:Libraries/FWlib/src/stm32f10x_flash.c ****           
1029:Libraries/FWlib/src/stm32f10x_flash.c ****     if(status != FLASH_TIMEOUT)
1030:Libraries/FWlib/src/stm32f10x_flash.c ****     {
1031:Libraries/FWlib/src/stm32f10x_flash.c ****       /* if the program operation is completed, disable the OPTPG Bit */
1032:Libraries/FWlib/src/stm32f10x_flash.c ****       FLASH->CR &= CR_OPTPG_Reset;
1033:Libraries/FWlib/src/stm32f10x_flash.c ****     }
1034:Libraries/FWlib/src/stm32f10x_flash.c ****   } 
1035:Libraries/FWlib/src/stm32f10x_flash.c ****   /* Return the write protection operation Status */
1036:Libraries/FWlib/src/stm32f10x_flash.c ****   return status;       
1037:Libraries/FWlib/src/stm32f10x_flash.c **** }
1038:Libraries/FWlib/src/stm32f10x_flash.c **** 
1039:Libraries/FWlib/src/stm32f10x_flash.c **** /**
1040:Libraries/FWlib/src/stm32f10x_flash.c ****   * @brief  Enables or disables the read out protection.
1041:Libraries/FWlib/src/stm32f10x_flash.c ****   * @note   If the user has already programmed the other option bytes before calling 
1042:Libraries/FWlib/src/stm32f10x_flash.c ****   *   this function, he must re-program them since this function erases all option bytes.
1043:Libraries/FWlib/src/stm32f10x_flash.c ****   * @note   This function can be used for all STM32F10x devices.
1044:Libraries/FWlib/src/stm32f10x_flash.c ****   * @param  Newstate: new state of the ReadOut Protection.
1045:Libraries/FWlib/src/stm32f10x_flash.c ****   *   This parameter can be: ENABLE or DISABLE.
1046:Libraries/FWlib/src/stm32f10x_flash.c ****   * @retval FLASH Status: The returned value can be: FLASH_ERROR_PG,
1047:Libraries/FWlib/src/stm32f10x_flash.c ****   *         FLASH_ERROR_WRP, FLASH_COMPLETE or FLASH_TIMEOUT.
1048:Libraries/FWlib/src/stm32f10x_flash.c ****   */
1049:Libraries/FWlib/src/stm32f10x_flash.c **** FLASH_Status FLASH_ReadOutProtection(FunctionalState NewState)
1050:Libraries/FWlib/src/stm32f10x_flash.c **** {
1051:Libraries/FWlib/src/stm32f10x_flash.c ****   FLASH_Status status = FLASH_COMPLETE;
1052:Libraries/FWlib/src/stm32f10x_flash.c ****   /* Check the parameters */
1053:Libraries/FWlib/src/stm32f10x_flash.c ****   assert_param(IS_FUNCTIONAL_STATE(NewState));
1054:Libraries/FWlib/src/stm32f10x_flash.c ****   status = FLASH_WaitForLastOperation(EraseTimeout);
1055:Libraries/FWlib/src/stm32f10x_flash.c ****   if(status == FLASH_COMPLETE)
1056:Libraries/FWlib/src/stm32f10x_flash.c ****   {
1057:Libraries/FWlib/src/stm32f10x_flash.c ****     /* Authorizes the small information block programming */
1058:Libraries/FWlib/src/stm32f10x_flash.c ****     FLASH->OPTKEYR = FLASH_KEY1;
1059:Libraries/FWlib/src/stm32f10x_flash.c ****     FLASH->OPTKEYR = FLASH_KEY2;
1060:Libraries/FWlib/src/stm32f10x_flash.c ****     FLASH->CR |= CR_OPTER_Set;
1061:Libraries/FWlib/src/stm32f10x_flash.c ****     FLASH->CR |= CR_STRT_Set;
1062:Libraries/FWlib/src/stm32f10x_flash.c ****     /* Wait for last operation to be completed */
1063:Libraries/FWlib/src/stm32f10x_flash.c ****     status = FLASH_WaitForLastOperation(EraseTimeout);
1064:Libraries/FWlib/src/stm32f10x_flash.c ****     if(status == FLASH_COMPLETE)
1065:Libraries/FWlib/src/stm32f10x_flash.c ****     {
1066:Libraries/FWlib/src/stm32f10x_flash.c ****       /* if the erase operation is completed, disable the OPTER Bit */
1067:Libraries/FWlib/src/stm32f10x_flash.c ****       FLASH->CR &= CR_OPTER_Reset;
1068:Libraries/FWlib/src/stm32f10x_flash.c ****       /* Enable the Option Bytes Programming operation */
1069:Libraries/FWlib/src/stm32f10x_flash.c ****       FLASH->CR |= CR_OPTPG_Set; 
1070:Libraries/FWlib/src/stm32f10x_flash.c ****       if(NewState != DISABLE)
1071:Libraries/FWlib/src/stm32f10x_flash.c ****       {
1072:Libraries/FWlib/src/stm32f10x_flash.c ****         OB->RDP = 0x00;
1073:Libraries/FWlib/src/stm32f10x_flash.c ****       }
1074:Libraries/FWlib/src/stm32f10x_flash.c ****       else
1075:Libraries/FWlib/src/stm32f10x_flash.c ****       {
1076:Libraries/FWlib/src/stm32f10x_flash.c ****         OB->RDP = RDP_Key;  
1077:Libraries/FWlib/src/stm32f10x_flash.c ****       }
1078:Libraries/FWlib/src/stm32f10x_flash.c ****       /* Wait for last operation to be completed */
1079:Libraries/FWlib/src/stm32f10x_flash.c ****       status = FLASH_WaitForLastOperation(EraseTimeout); 
ARM GAS  /tmp/ccfAcV92.s 			page 24


1080:Libraries/FWlib/src/stm32f10x_flash.c ****     
1081:Libraries/FWlib/src/stm32f10x_flash.c ****       if(status != FLASH_TIMEOUT)
1082:Libraries/FWlib/src/stm32f10x_flash.c ****       {
1083:Libraries/FWlib/src/stm32f10x_flash.c ****         /* if the program operation is completed, disable the OPTPG Bit */
1084:Libraries/FWlib/src/stm32f10x_flash.c ****         FLASH->CR &= CR_OPTPG_Reset;
1085:Libraries/FWlib/src/stm32f10x_flash.c ****       }
1086:Libraries/FWlib/src/stm32f10x_flash.c ****     }
1087:Libraries/FWlib/src/stm32f10x_flash.c ****     else 
1088:Libraries/FWlib/src/stm32f10x_flash.c ****     {
1089:Libraries/FWlib/src/stm32f10x_flash.c ****       if(status != FLASH_TIMEOUT)
1090:Libraries/FWlib/src/stm32f10x_flash.c ****       {
1091:Libraries/FWlib/src/stm32f10x_flash.c ****         /* Disable the OPTER Bit */
1092:Libraries/FWlib/src/stm32f10x_flash.c ****         FLASH->CR &= CR_OPTER_Reset;
1093:Libraries/FWlib/src/stm32f10x_flash.c ****       }
1094:Libraries/FWlib/src/stm32f10x_flash.c ****     }
1095:Libraries/FWlib/src/stm32f10x_flash.c ****   }
1096:Libraries/FWlib/src/stm32f10x_flash.c ****   /* Return the protection operation Status */
1097:Libraries/FWlib/src/stm32f10x_flash.c ****   return status;       
1098:Libraries/FWlib/src/stm32f10x_flash.c **** }
1099:Libraries/FWlib/src/stm32f10x_flash.c **** 
1100:Libraries/FWlib/src/stm32f10x_flash.c **** /**
1101:Libraries/FWlib/src/stm32f10x_flash.c ****   * @brief  Programs the FLASH User Option Byte: IWDG_SW / RST_STOP / RST_STDBY.
1102:Libraries/FWlib/src/stm32f10x_flash.c ****   * @note   This function can be used for all STM32F10x devices.
1103:Libraries/FWlib/src/stm32f10x_flash.c ****   * @param  OB_IWDG: Selects the IWDG mode
1104:Libraries/FWlib/src/stm32f10x_flash.c ****   *   This parameter can be one of the following values:
1105:Libraries/FWlib/src/stm32f10x_flash.c ****   *     @arg OB_IWDG_SW: Software IWDG selected
1106:Libraries/FWlib/src/stm32f10x_flash.c ****   *     @arg OB_IWDG_HW: Hardware IWDG selected
1107:Libraries/FWlib/src/stm32f10x_flash.c ****   * @param  OB_STOP: Reset event when entering STOP mode.
1108:Libraries/FWlib/src/stm32f10x_flash.c ****   *   This parameter can be one of the following values:
1109:Libraries/FWlib/src/stm32f10x_flash.c ****   *     @arg OB_STOP_NoRST: No reset generated when entering in STOP
1110:Libraries/FWlib/src/stm32f10x_flash.c ****   *     @arg OB_STOP_RST: Reset generated when entering in STOP
1111:Libraries/FWlib/src/stm32f10x_flash.c ****   * @param  OB_STDBY: Reset event when entering Standby mode.
1112:Libraries/FWlib/src/stm32f10x_flash.c ****   *   This parameter can be one of the following values:
1113:Libraries/FWlib/src/stm32f10x_flash.c ****   *     @arg OB_STDBY_NoRST: No reset generated when entering in STANDBY
1114:Libraries/FWlib/src/stm32f10x_flash.c ****   *     @arg OB_STDBY_RST: Reset generated when entering in STANDBY
1115:Libraries/FWlib/src/stm32f10x_flash.c ****   * @retval FLASH Status: The returned value can be: FLASH_ERROR_PG, 
1116:Libraries/FWlib/src/stm32f10x_flash.c ****   *         FLASH_ERROR_WRP, FLASH_COMPLETE or FLASH_TIMEOUT.
1117:Libraries/FWlib/src/stm32f10x_flash.c ****   */
1118:Libraries/FWlib/src/stm32f10x_flash.c **** FLASH_Status FLASH_UserOptionByteConfig(uint16_t OB_IWDG, uint16_t OB_STOP, uint16_t OB_STDBY)
1119:Libraries/FWlib/src/stm32f10x_flash.c **** {
1120:Libraries/FWlib/src/stm32f10x_flash.c ****   FLASH_Status status = FLASH_COMPLETE; 
1121:Libraries/FWlib/src/stm32f10x_flash.c **** 
1122:Libraries/FWlib/src/stm32f10x_flash.c ****   /* Check the parameters */
1123:Libraries/FWlib/src/stm32f10x_flash.c ****   assert_param(IS_OB_IWDG_SOURCE(OB_IWDG));
1124:Libraries/FWlib/src/stm32f10x_flash.c ****   assert_param(IS_OB_STOP_SOURCE(OB_STOP));
1125:Libraries/FWlib/src/stm32f10x_flash.c ****   assert_param(IS_OB_STDBY_SOURCE(OB_STDBY));
1126:Libraries/FWlib/src/stm32f10x_flash.c **** 
1127:Libraries/FWlib/src/stm32f10x_flash.c ****   /* Authorize the small information block programming */
1128:Libraries/FWlib/src/stm32f10x_flash.c ****   FLASH->OPTKEYR = FLASH_KEY1;
1129:Libraries/FWlib/src/stm32f10x_flash.c ****   FLASH->OPTKEYR = FLASH_KEY2;
1130:Libraries/FWlib/src/stm32f10x_flash.c ****   
1131:Libraries/FWlib/src/stm32f10x_flash.c ****   /* Wait for last operation to be completed */
1132:Libraries/FWlib/src/stm32f10x_flash.c ****   status = FLASH_WaitForLastOperation(ProgramTimeout);
1133:Libraries/FWlib/src/stm32f10x_flash.c ****   
1134:Libraries/FWlib/src/stm32f10x_flash.c ****   if(status == FLASH_COMPLETE)
1135:Libraries/FWlib/src/stm32f10x_flash.c ****   {  
1136:Libraries/FWlib/src/stm32f10x_flash.c ****     /* Enable the Option Bytes Programming operation */
ARM GAS  /tmp/ccfAcV92.s 			page 25


1137:Libraries/FWlib/src/stm32f10x_flash.c ****     FLASH->CR |= CR_OPTPG_Set; 
1138:Libraries/FWlib/src/stm32f10x_flash.c ****            
1139:Libraries/FWlib/src/stm32f10x_flash.c ****     OB->USER = OB_IWDG | (uint16_t)(OB_STOP | (uint16_t)(OB_STDBY | ((uint16_t)0xF8))); 
1140:Libraries/FWlib/src/stm32f10x_flash.c ****   
1141:Libraries/FWlib/src/stm32f10x_flash.c ****     /* Wait for last operation to be completed */
1142:Libraries/FWlib/src/stm32f10x_flash.c ****     status = FLASH_WaitForLastOperation(ProgramTimeout);
1143:Libraries/FWlib/src/stm32f10x_flash.c ****     if(status != FLASH_TIMEOUT)
1144:Libraries/FWlib/src/stm32f10x_flash.c ****     {
1145:Libraries/FWlib/src/stm32f10x_flash.c ****       /* if the program operation is completed, disable the OPTPG Bit */
1146:Libraries/FWlib/src/stm32f10x_flash.c ****       FLASH->CR &= CR_OPTPG_Reset;
1147:Libraries/FWlib/src/stm32f10x_flash.c ****     }
1148:Libraries/FWlib/src/stm32f10x_flash.c ****   }    
1149:Libraries/FWlib/src/stm32f10x_flash.c ****   /* Return the Option Byte program Status */
1150:Libraries/FWlib/src/stm32f10x_flash.c ****   return status;
1151:Libraries/FWlib/src/stm32f10x_flash.c **** }
1152:Libraries/FWlib/src/stm32f10x_flash.c **** 
1153:Libraries/FWlib/src/stm32f10x_flash.c **** #ifdef STM32F10X_XL
1154:Libraries/FWlib/src/stm32f10x_flash.c **** /**
1155:Libraries/FWlib/src/stm32f10x_flash.c ****   * @brief  Configures to boot from Bank1 or Bank2.  
1156:Libraries/FWlib/src/stm32f10x_flash.c ****   * @note   This function can be used only for STM32F10x_XL density devices.
1157:Libraries/FWlib/src/stm32f10x_flash.c ****   * @param  FLASH_BOOT: select the FLASH Bank to boot from.
1158:Libraries/FWlib/src/stm32f10x_flash.c ****   *   This parameter can be one of the following values:
1159:Libraries/FWlib/src/stm32f10x_flash.c ****   *     @arg FLASH_BOOT_Bank1: At startup, if boot pins are set in boot from user Flash
1160:Libraries/FWlib/src/stm32f10x_flash.c ****   *        position and this parameter is selected the device will boot from Bank1(Default).
1161:Libraries/FWlib/src/stm32f10x_flash.c ****   *     @arg FLASH_BOOT_Bank2: At startup, if boot pins are set in boot from user Flash
1162:Libraries/FWlib/src/stm32f10x_flash.c ****   *        position and this parameter is selected the device will boot from Bank2 or Bank1,
1163:Libraries/FWlib/src/stm32f10x_flash.c ****   *        depending on the activation of the bank. The active banks are checked in
1164:Libraries/FWlib/src/stm32f10x_flash.c ****   *        the following order: Bank2, followed by Bank1.
1165:Libraries/FWlib/src/stm32f10x_flash.c ****   *        The active bank is recognized by the value programmed at the base address
1166:Libraries/FWlib/src/stm32f10x_flash.c ****   *        of the respective bank (corresponding to the initial stack pointer value
1167:Libraries/FWlib/src/stm32f10x_flash.c ****   *        in the interrupt vector table).
1168:Libraries/FWlib/src/stm32f10x_flash.c ****   *        For more information, please refer to AN2606 from www.st.com.    
1169:Libraries/FWlib/src/stm32f10x_flash.c ****   * @retval FLASH Status: The returned value can be: FLASH_ERROR_PG, 
1170:Libraries/FWlib/src/stm32f10x_flash.c ****   *         FLASH_ERROR_WRP, FLASH_COMPLETE or FLASH_TIMEOUT.
1171:Libraries/FWlib/src/stm32f10x_flash.c ****   */
1172:Libraries/FWlib/src/stm32f10x_flash.c **** FLASH_Status FLASH_BootConfig(uint16_t FLASH_BOOT)
1173:Libraries/FWlib/src/stm32f10x_flash.c **** { 
1174:Libraries/FWlib/src/stm32f10x_flash.c ****   FLASH_Status status = FLASH_COMPLETE; 
1175:Libraries/FWlib/src/stm32f10x_flash.c ****   assert_param(IS_FLASH_BOOT(FLASH_BOOT));
1176:Libraries/FWlib/src/stm32f10x_flash.c ****   /* Authorize the small information block programming */
1177:Libraries/FWlib/src/stm32f10x_flash.c ****   FLASH->OPTKEYR = FLASH_KEY1;
1178:Libraries/FWlib/src/stm32f10x_flash.c ****   FLASH->OPTKEYR = FLASH_KEY2;
1179:Libraries/FWlib/src/stm32f10x_flash.c ****   
1180:Libraries/FWlib/src/stm32f10x_flash.c ****   /* Wait for last operation to be completed */
1181:Libraries/FWlib/src/stm32f10x_flash.c ****   status = FLASH_WaitForLastOperation(ProgramTimeout);
1182:Libraries/FWlib/src/stm32f10x_flash.c ****   
1183:Libraries/FWlib/src/stm32f10x_flash.c ****   if(status == FLASH_COMPLETE)
1184:Libraries/FWlib/src/stm32f10x_flash.c ****   {  
1185:Libraries/FWlib/src/stm32f10x_flash.c ****     /* Enable the Option Bytes Programming operation */
1186:Libraries/FWlib/src/stm32f10x_flash.c ****     FLASH->CR |= CR_OPTPG_Set; 
1187:Libraries/FWlib/src/stm32f10x_flash.c **** 
1188:Libraries/FWlib/src/stm32f10x_flash.c ****     if(FLASH_BOOT == FLASH_BOOT_Bank1)
1189:Libraries/FWlib/src/stm32f10x_flash.c ****     {
1190:Libraries/FWlib/src/stm32f10x_flash.c ****       OB->USER |= OB_USER_BFB2;
1191:Libraries/FWlib/src/stm32f10x_flash.c ****     }
1192:Libraries/FWlib/src/stm32f10x_flash.c ****     else
1193:Libraries/FWlib/src/stm32f10x_flash.c ****     {
ARM GAS  /tmp/ccfAcV92.s 			page 26


1194:Libraries/FWlib/src/stm32f10x_flash.c ****       OB->USER &= (uint16_t)(~(uint16_t)(OB_USER_BFB2));
1195:Libraries/FWlib/src/stm32f10x_flash.c ****     }
1196:Libraries/FWlib/src/stm32f10x_flash.c ****     /* Wait for last operation to be completed */
1197:Libraries/FWlib/src/stm32f10x_flash.c ****     status = FLASH_WaitForLastOperation(ProgramTimeout);
1198:Libraries/FWlib/src/stm32f10x_flash.c ****     if(status != FLASH_TIMEOUT)
1199:Libraries/FWlib/src/stm32f10x_flash.c ****     {
1200:Libraries/FWlib/src/stm32f10x_flash.c ****       /* if the program operation is completed, disable the OPTPG Bit */
1201:Libraries/FWlib/src/stm32f10x_flash.c ****       FLASH->CR &= CR_OPTPG_Reset;
1202:Libraries/FWlib/src/stm32f10x_flash.c ****     }
1203:Libraries/FWlib/src/stm32f10x_flash.c ****   }    
1204:Libraries/FWlib/src/stm32f10x_flash.c ****   /* Return the Option Byte program Status */
1205:Libraries/FWlib/src/stm32f10x_flash.c ****   return status;
1206:Libraries/FWlib/src/stm32f10x_flash.c **** }
1207:Libraries/FWlib/src/stm32f10x_flash.c **** #endif /* STM32F10X_XL */
1208:Libraries/FWlib/src/stm32f10x_flash.c **** 
1209:Libraries/FWlib/src/stm32f10x_flash.c **** /**
1210:Libraries/FWlib/src/stm32f10x_flash.c ****   * @brief  Returns the FLASH User Option Bytes values.
1211:Libraries/FWlib/src/stm32f10x_flash.c ****   * @note   This function can be used for all STM32F10x devices.
1212:Libraries/FWlib/src/stm32f10x_flash.c ****   * @param  None
1213:Libraries/FWlib/src/stm32f10x_flash.c ****   * @retval The FLASH User Option Bytes values:IWDG_SW(Bit0), RST_STOP(Bit1)
1214:Libraries/FWlib/src/stm32f10x_flash.c ****   *         and RST_STDBY(Bit2).
1215:Libraries/FWlib/src/stm32f10x_flash.c ****   */
1216:Libraries/FWlib/src/stm32f10x_flash.c **** uint32_t FLASH_GetUserOptionByte(void)
1217:Libraries/FWlib/src/stm32f10x_flash.c **** {
 248              		.loc 1 1217 0
 249              		.cfi_startproc
 250              		@ args = 0, pretend = 0, frame = 0
 251              		@ frame_needed = 0, uses_anonymous_args = 0
 252              		@ link register save eliminated.
1218:Libraries/FWlib/src/stm32f10x_flash.c ****   /* Return the User Option Byte */
1219:Libraries/FWlib/src/stm32f10x_flash.c ****   return (uint32_t)(FLASH->OBR >> 2);
 253              		.loc 1 1219 0
 254 0000 014B     		ldr	r3, .L23
 255 0002 D869     		ldr	r0, [r3, #28]
1220:Libraries/FWlib/src/stm32f10x_flash.c **** }
 256              		.loc 1 1220 0
 257 0004 8008     		lsrs	r0, r0, #2
 258 0006 7047     		bx	lr
 259              	.L24:
 260              		.align	2
 261              	.L23:
 262 0008 00200240 		.word	1073881088
 263              		.cfi_endproc
 264              	.LFE46:
 266              		.section	.text.FLASH_GetWriteProtectionOptionByte,"ax",%progbits
 267              		.align	1
 268              		.global	FLASH_GetWriteProtectionOptionByte
 269              		.syntax unified
 270              		.thumb
 271              		.thumb_func
 272              		.fpu softvfp
 274              	FLASH_GetWriteProtectionOptionByte:
 275              	.LFB47:
1221:Libraries/FWlib/src/stm32f10x_flash.c **** 
1222:Libraries/FWlib/src/stm32f10x_flash.c **** /**
1223:Libraries/FWlib/src/stm32f10x_flash.c ****   * @brief  Returns the FLASH Write Protection Option Bytes Register value.
1224:Libraries/FWlib/src/stm32f10x_flash.c ****   * @note   This function can be used for all STM32F10x devices.
ARM GAS  /tmp/ccfAcV92.s 			page 27


1225:Libraries/FWlib/src/stm32f10x_flash.c ****   * @param  None
1226:Libraries/FWlib/src/stm32f10x_flash.c ****   * @retval The FLASH Write Protection  Option Bytes Register value
1227:Libraries/FWlib/src/stm32f10x_flash.c ****   */
1228:Libraries/FWlib/src/stm32f10x_flash.c **** uint32_t FLASH_GetWriteProtectionOptionByte(void)
1229:Libraries/FWlib/src/stm32f10x_flash.c **** {
 276              		.loc 1 1229 0
 277              		.cfi_startproc
 278              		@ args = 0, pretend = 0, frame = 0
 279              		@ frame_needed = 0, uses_anonymous_args = 0
 280              		@ link register save eliminated.
1230:Libraries/FWlib/src/stm32f10x_flash.c ****   /* Return the Flash write protection Register value */
1231:Libraries/FWlib/src/stm32f10x_flash.c ****   return (uint32_t)(FLASH->WRPR);
 281              		.loc 1 1231 0
 282 0000 014B     		ldr	r3, .L26
 283 0002 186A     		ldr	r0, [r3, #32]
1232:Libraries/FWlib/src/stm32f10x_flash.c **** }
 284              		.loc 1 1232 0
 285 0004 7047     		bx	lr
 286              	.L27:
 287 0006 00BF     		.align	2
 288              	.L26:
 289 0008 00200240 		.word	1073881088
 290              		.cfi_endproc
 291              	.LFE47:
 293              		.section	.text.FLASH_GetReadOutProtectionStatus,"ax",%progbits
 294              		.align	1
 295              		.global	FLASH_GetReadOutProtectionStatus
 296              		.syntax unified
 297              		.thumb
 298              		.thumb_func
 299              		.fpu softvfp
 301              	FLASH_GetReadOutProtectionStatus:
 302              	.LFB48:
1233:Libraries/FWlib/src/stm32f10x_flash.c **** 
1234:Libraries/FWlib/src/stm32f10x_flash.c **** /**
1235:Libraries/FWlib/src/stm32f10x_flash.c ****   * @brief  Checks whether the FLASH Read Out Protection Status is set or not.
1236:Libraries/FWlib/src/stm32f10x_flash.c ****   * @note   This function can be used for all STM32F10x devices.
1237:Libraries/FWlib/src/stm32f10x_flash.c ****   * @param  None
1238:Libraries/FWlib/src/stm32f10x_flash.c ****   * @retval FLASH ReadOut Protection Status(SET or RESET)
1239:Libraries/FWlib/src/stm32f10x_flash.c ****   */
1240:Libraries/FWlib/src/stm32f10x_flash.c **** FlagStatus FLASH_GetReadOutProtectionStatus(void)
1241:Libraries/FWlib/src/stm32f10x_flash.c **** {
 303              		.loc 1 1241 0
 304              		.cfi_startproc
 305              		@ args = 0, pretend = 0, frame = 0
 306              		@ frame_needed = 0, uses_anonymous_args = 0
 307              		@ link register save eliminated.
 308              	.LVL8:
1242:Libraries/FWlib/src/stm32f10x_flash.c ****   FlagStatus readoutstatus = RESET;
1243:Libraries/FWlib/src/stm32f10x_flash.c ****   if ((FLASH->OBR & RDPRT_Mask) != (uint32_t)RESET)
 309              		.loc 1 1243 0
 310 0000 044B     		ldr	r3, .L32
 311 0002 DB69     		ldr	r3, [r3, #28]
 312 0004 13F0020F 		tst	r3, #2
 313 0008 01D1     		bne	.L31
1244:Libraries/FWlib/src/stm32f10x_flash.c ****   {
1245:Libraries/FWlib/src/stm32f10x_flash.c ****     readoutstatus = SET;
ARM GAS  /tmp/ccfAcV92.s 			page 28


1246:Libraries/FWlib/src/stm32f10x_flash.c ****   }
1247:Libraries/FWlib/src/stm32f10x_flash.c ****   else
1248:Libraries/FWlib/src/stm32f10x_flash.c ****   {
1249:Libraries/FWlib/src/stm32f10x_flash.c ****     readoutstatus = RESET;
 314              		.loc 1 1249 0
 315 000a 0020     		movs	r0, #0
 316              	.LVL9:
1250:Libraries/FWlib/src/stm32f10x_flash.c ****   }
1251:Libraries/FWlib/src/stm32f10x_flash.c ****   return readoutstatus;
1252:Libraries/FWlib/src/stm32f10x_flash.c **** }
 317              		.loc 1 1252 0
 318 000c 7047     		bx	lr
 319              	.LVL10:
 320              	.L31:
1245:Libraries/FWlib/src/stm32f10x_flash.c ****   }
 321              		.loc 1 1245 0
 322 000e 0120     		movs	r0, #1
 323 0010 7047     		bx	lr
 324              	.L33:
 325 0012 00BF     		.align	2
 326              	.L32:
 327 0014 00200240 		.word	1073881088
 328              		.cfi_endproc
 329              	.LFE48:
 331              		.section	.text.FLASH_GetPrefetchBufferStatus,"ax",%progbits
 332              		.align	1
 333              		.global	FLASH_GetPrefetchBufferStatus
 334              		.syntax unified
 335              		.thumb
 336              		.thumb_func
 337              		.fpu softvfp
 339              	FLASH_GetPrefetchBufferStatus:
 340              	.LFB49:
1253:Libraries/FWlib/src/stm32f10x_flash.c **** 
1254:Libraries/FWlib/src/stm32f10x_flash.c **** /**
1255:Libraries/FWlib/src/stm32f10x_flash.c ****   * @brief  Checks whether the FLASH Prefetch Buffer status is set or not.
1256:Libraries/FWlib/src/stm32f10x_flash.c ****   * @note   This function can be used for all STM32F10x devices.
1257:Libraries/FWlib/src/stm32f10x_flash.c ****   * @param  None
1258:Libraries/FWlib/src/stm32f10x_flash.c ****   * @retval FLASH Prefetch Buffer Status (SET or RESET).
1259:Libraries/FWlib/src/stm32f10x_flash.c ****   */
1260:Libraries/FWlib/src/stm32f10x_flash.c **** FlagStatus FLASH_GetPrefetchBufferStatus(void)
1261:Libraries/FWlib/src/stm32f10x_flash.c **** {
 341              		.loc 1 1261 0
 342              		.cfi_startproc
 343              		@ args = 0, pretend = 0, frame = 0
 344              		@ frame_needed = 0, uses_anonymous_args = 0
 345              		@ link register save eliminated.
 346              	.LVL11:
1262:Libraries/FWlib/src/stm32f10x_flash.c ****   FlagStatus bitstatus = RESET;
1263:Libraries/FWlib/src/stm32f10x_flash.c ****   
1264:Libraries/FWlib/src/stm32f10x_flash.c ****   if ((FLASH->ACR & ACR_PRFTBS_Mask) != (uint32_t)RESET)
 347              		.loc 1 1264 0
 348 0000 044B     		ldr	r3, .L38
 349 0002 1B68     		ldr	r3, [r3]
 350 0004 13F0200F 		tst	r3, #32
 351 0008 01D1     		bne	.L37
1265:Libraries/FWlib/src/stm32f10x_flash.c ****   {
ARM GAS  /tmp/ccfAcV92.s 			page 29


1266:Libraries/FWlib/src/stm32f10x_flash.c ****     bitstatus = SET;
1267:Libraries/FWlib/src/stm32f10x_flash.c ****   }
1268:Libraries/FWlib/src/stm32f10x_flash.c ****   else
1269:Libraries/FWlib/src/stm32f10x_flash.c ****   {
1270:Libraries/FWlib/src/stm32f10x_flash.c ****     bitstatus = RESET;
 352              		.loc 1 1270 0
 353 000a 0020     		movs	r0, #0
 354              	.LVL12:
1271:Libraries/FWlib/src/stm32f10x_flash.c ****   }
1272:Libraries/FWlib/src/stm32f10x_flash.c ****   /* Return the new state of FLASH Prefetch Buffer Status (SET or RESET) */
1273:Libraries/FWlib/src/stm32f10x_flash.c ****   return bitstatus; 
1274:Libraries/FWlib/src/stm32f10x_flash.c **** }
 355              		.loc 1 1274 0
 356 000c 7047     		bx	lr
 357              	.LVL13:
 358              	.L37:
1266:Libraries/FWlib/src/stm32f10x_flash.c ****   }
 359              		.loc 1 1266 0
 360 000e 0120     		movs	r0, #1
 361 0010 7047     		bx	lr
 362              	.L39:
 363 0012 00BF     		.align	2
 364              	.L38:
 365 0014 00200240 		.word	1073881088
 366              		.cfi_endproc
 367              	.LFE49:
 369              		.section	.text.FLASH_ITConfig,"ax",%progbits
 370              		.align	1
 371              		.global	FLASH_ITConfig
 372              		.syntax unified
 373              		.thumb
 374              		.thumb_func
 375              		.fpu softvfp
 377              	FLASH_ITConfig:
 378              	.LFB50:
1275:Libraries/FWlib/src/stm32f10x_flash.c **** 
1276:Libraries/FWlib/src/stm32f10x_flash.c **** /**
1277:Libraries/FWlib/src/stm32f10x_flash.c ****   * @brief  Enables or disables the specified FLASH interrupts.
1278:Libraries/FWlib/src/stm32f10x_flash.c ****   * @note   This function can be used for all STM32F10x devices.
1279:Libraries/FWlib/src/stm32f10x_flash.c ****   *         - For STM32F10X_XL devices, enables or disables the specified FLASH interrupts
1280:Libraries/FWlib/src/stm32f10x_flash.c ****               for Bank1 and Bank2.
1281:Libraries/FWlib/src/stm32f10x_flash.c ****   *         - For other devices it enables or disables the specified FLASH interrupts for Bank1.
1282:Libraries/FWlib/src/stm32f10x_flash.c ****   * @param  FLASH_IT: specifies the FLASH interrupt sources to be enabled or disabled.
1283:Libraries/FWlib/src/stm32f10x_flash.c ****   *   This parameter can be any combination of the following values:
1284:Libraries/FWlib/src/stm32f10x_flash.c ****   *     @arg FLASH_IT_ERROR: FLASH Error Interrupt
1285:Libraries/FWlib/src/stm32f10x_flash.c ****   *     @arg FLASH_IT_EOP: FLASH end of operation Interrupt
1286:Libraries/FWlib/src/stm32f10x_flash.c ****   * @param  NewState: new state of the specified Flash interrupts.
1287:Libraries/FWlib/src/stm32f10x_flash.c ****   *   This parameter can be: ENABLE or DISABLE.      
1288:Libraries/FWlib/src/stm32f10x_flash.c ****   * @retval None 
1289:Libraries/FWlib/src/stm32f10x_flash.c ****   */
1290:Libraries/FWlib/src/stm32f10x_flash.c **** void FLASH_ITConfig(uint32_t FLASH_IT, FunctionalState NewState)
1291:Libraries/FWlib/src/stm32f10x_flash.c **** {
 379              		.loc 1 1291 0
 380              		.cfi_startproc
 381              		@ args = 0, pretend = 0, frame = 0
 382              		@ frame_needed = 0, uses_anonymous_args = 0
 383              		@ link register save eliminated.
ARM GAS  /tmp/ccfAcV92.s 			page 30


 384              	.LVL14:
1292:Libraries/FWlib/src/stm32f10x_flash.c **** #ifdef STM32F10X_XL
1293:Libraries/FWlib/src/stm32f10x_flash.c ****   /* Check the parameters */
1294:Libraries/FWlib/src/stm32f10x_flash.c ****   assert_param(IS_FLASH_IT(FLASH_IT)); 
1295:Libraries/FWlib/src/stm32f10x_flash.c ****   assert_param(IS_FUNCTIONAL_STATE(NewState));
1296:Libraries/FWlib/src/stm32f10x_flash.c **** 
1297:Libraries/FWlib/src/stm32f10x_flash.c ****   if((FLASH_IT & 0x80000000) != 0x0)
1298:Libraries/FWlib/src/stm32f10x_flash.c ****   {
1299:Libraries/FWlib/src/stm32f10x_flash.c ****     if(NewState != DISABLE)
1300:Libraries/FWlib/src/stm32f10x_flash.c ****     {
1301:Libraries/FWlib/src/stm32f10x_flash.c ****       /* Enable the interrupt sources */
1302:Libraries/FWlib/src/stm32f10x_flash.c ****       FLASH->CR2 |= (FLASH_IT & 0x7FFFFFFF);
1303:Libraries/FWlib/src/stm32f10x_flash.c ****     }
1304:Libraries/FWlib/src/stm32f10x_flash.c ****     else
1305:Libraries/FWlib/src/stm32f10x_flash.c ****     {
1306:Libraries/FWlib/src/stm32f10x_flash.c ****       /* Disable the interrupt sources */
1307:Libraries/FWlib/src/stm32f10x_flash.c ****       FLASH->CR2 &= ~(uint32_t)(FLASH_IT & 0x7FFFFFFF);
1308:Libraries/FWlib/src/stm32f10x_flash.c ****     }
1309:Libraries/FWlib/src/stm32f10x_flash.c ****   }
1310:Libraries/FWlib/src/stm32f10x_flash.c ****   else
1311:Libraries/FWlib/src/stm32f10x_flash.c ****   {
1312:Libraries/FWlib/src/stm32f10x_flash.c ****     if(NewState != DISABLE)
1313:Libraries/FWlib/src/stm32f10x_flash.c ****     {
1314:Libraries/FWlib/src/stm32f10x_flash.c ****       /* Enable the interrupt sources */
1315:Libraries/FWlib/src/stm32f10x_flash.c ****       FLASH->CR |= FLASH_IT;
1316:Libraries/FWlib/src/stm32f10x_flash.c ****     }
1317:Libraries/FWlib/src/stm32f10x_flash.c ****     else
1318:Libraries/FWlib/src/stm32f10x_flash.c ****     {
1319:Libraries/FWlib/src/stm32f10x_flash.c ****       /* Disable the interrupt sources */
1320:Libraries/FWlib/src/stm32f10x_flash.c ****       FLASH->CR &= ~(uint32_t)FLASH_IT;
1321:Libraries/FWlib/src/stm32f10x_flash.c ****     }
1322:Libraries/FWlib/src/stm32f10x_flash.c ****   }
1323:Libraries/FWlib/src/stm32f10x_flash.c **** #else
1324:Libraries/FWlib/src/stm32f10x_flash.c ****   /* Check the parameters */
1325:Libraries/FWlib/src/stm32f10x_flash.c ****   assert_param(IS_FLASH_IT(FLASH_IT)); 
1326:Libraries/FWlib/src/stm32f10x_flash.c ****   assert_param(IS_FUNCTIONAL_STATE(NewState));
1327:Libraries/FWlib/src/stm32f10x_flash.c **** 
1328:Libraries/FWlib/src/stm32f10x_flash.c ****   if(NewState != DISABLE)
 385              		.loc 1 1328 0
 386 0000 29B9     		cbnz	r1, .L43
1329:Libraries/FWlib/src/stm32f10x_flash.c ****   {
1330:Libraries/FWlib/src/stm32f10x_flash.c ****     /* Enable the interrupt sources */
1331:Libraries/FWlib/src/stm32f10x_flash.c ****     FLASH->CR |= FLASH_IT;
1332:Libraries/FWlib/src/stm32f10x_flash.c ****   }
1333:Libraries/FWlib/src/stm32f10x_flash.c ****   else
1334:Libraries/FWlib/src/stm32f10x_flash.c ****   {
1335:Libraries/FWlib/src/stm32f10x_flash.c ****     /* Disable the interrupt sources */
1336:Libraries/FWlib/src/stm32f10x_flash.c ****     FLASH->CR &= ~(uint32_t)FLASH_IT;
 387              		.loc 1 1336 0
 388 0002 054A     		ldr	r2, .L44
 389 0004 1369     		ldr	r3, [r2, #16]
 390 0006 23EA0000 		bic	r0, r3, r0
 391              	.LVL15:
 392 000a 1061     		str	r0, [r2, #16]
 393 000c 7047     		bx	lr
 394              	.LVL16:
 395              	.L43:
ARM GAS  /tmp/ccfAcV92.s 			page 31


1331:Libraries/FWlib/src/stm32f10x_flash.c ****   }
 396              		.loc 1 1331 0
 397 000e 024A     		ldr	r2, .L44
 398 0010 1369     		ldr	r3, [r2, #16]
 399 0012 1843     		orrs	r0, r0, r3
 400              	.LVL17:
 401 0014 1061     		str	r0, [r2, #16]
 402 0016 7047     		bx	lr
 403              	.L45:
 404              		.align	2
 405              	.L44:
 406 0018 00200240 		.word	1073881088
 407              		.cfi_endproc
 408              	.LFE50:
 410              		.section	.text.FLASH_GetFlagStatus,"ax",%progbits
 411              		.align	1
 412              		.global	FLASH_GetFlagStatus
 413              		.syntax unified
 414              		.thumb
 415              		.thumb_func
 416              		.fpu softvfp
 418              	FLASH_GetFlagStatus:
 419              	.LFB51:
1337:Libraries/FWlib/src/stm32f10x_flash.c ****   }
1338:Libraries/FWlib/src/stm32f10x_flash.c **** #endif /* STM32F10X_XL */
1339:Libraries/FWlib/src/stm32f10x_flash.c **** }
1340:Libraries/FWlib/src/stm32f10x_flash.c **** 
1341:Libraries/FWlib/src/stm32f10x_flash.c **** /**
1342:Libraries/FWlib/src/stm32f10x_flash.c ****   * @brief  Checks whether the specified FLASH flag is set or not.
1343:Libraries/FWlib/src/stm32f10x_flash.c ****   * @note   This function can be used for all STM32F10x devices.
1344:Libraries/FWlib/src/stm32f10x_flash.c ****   *         - For STM32F10X_XL devices, this function checks whether the specified 
1345:Libraries/FWlib/src/stm32f10x_flash.c ****   *           Bank1 or Bank2 flag is set or not.
1346:Libraries/FWlib/src/stm32f10x_flash.c ****   *         - For other devices, it checks whether the specified Bank1 flag is 
1347:Libraries/FWlib/src/stm32f10x_flash.c ****   *           set or not.
1348:Libraries/FWlib/src/stm32f10x_flash.c ****   * @param  FLASH_FLAG: specifies the FLASH flag to check.
1349:Libraries/FWlib/src/stm32f10x_flash.c ****   *   This parameter can be one of the following values:
1350:Libraries/FWlib/src/stm32f10x_flash.c ****   *     @arg FLASH_FLAG_BSY: FLASH Busy flag           
1351:Libraries/FWlib/src/stm32f10x_flash.c ****   *     @arg FLASH_FLAG_PGERR: FLASH Program error flag       
1352:Libraries/FWlib/src/stm32f10x_flash.c ****   *     @arg FLASH_FLAG_WRPRTERR: FLASH Write protected error flag      
1353:Libraries/FWlib/src/stm32f10x_flash.c ****   *     @arg FLASH_FLAG_EOP: FLASH End of Operation flag           
1354:Libraries/FWlib/src/stm32f10x_flash.c ****   *     @arg FLASH_FLAG_OPTERR:  FLASH Option Byte error flag     
1355:Libraries/FWlib/src/stm32f10x_flash.c ****   * @retval The new state of FLASH_FLAG (SET or RESET).
1356:Libraries/FWlib/src/stm32f10x_flash.c ****   */
1357:Libraries/FWlib/src/stm32f10x_flash.c **** FlagStatus FLASH_GetFlagStatus(uint32_t FLASH_FLAG)
1358:Libraries/FWlib/src/stm32f10x_flash.c **** {
 420              		.loc 1 1358 0
 421              		.cfi_startproc
 422              		@ args = 0, pretend = 0, frame = 0
 423              		@ frame_needed = 0, uses_anonymous_args = 0
 424              		@ link register save eliminated.
 425              	.LVL18:
1359:Libraries/FWlib/src/stm32f10x_flash.c ****   FlagStatus bitstatus = RESET;
1360:Libraries/FWlib/src/stm32f10x_flash.c **** 
1361:Libraries/FWlib/src/stm32f10x_flash.c **** #ifdef STM32F10X_XL
1362:Libraries/FWlib/src/stm32f10x_flash.c ****   /* Check the parameters */
1363:Libraries/FWlib/src/stm32f10x_flash.c ****   assert_param(IS_FLASH_GET_FLAG(FLASH_FLAG)) ;
1364:Libraries/FWlib/src/stm32f10x_flash.c ****   if(FLASH_FLAG == FLASH_FLAG_OPTERR) 
ARM GAS  /tmp/ccfAcV92.s 			page 32


1365:Libraries/FWlib/src/stm32f10x_flash.c ****   {
1366:Libraries/FWlib/src/stm32f10x_flash.c ****     if((FLASH->OBR & FLASH_FLAG_OPTERR) != (uint32_t)RESET)
1367:Libraries/FWlib/src/stm32f10x_flash.c ****     {
1368:Libraries/FWlib/src/stm32f10x_flash.c ****       bitstatus = SET;
1369:Libraries/FWlib/src/stm32f10x_flash.c ****     }
1370:Libraries/FWlib/src/stm32f10x_flash.c ****     else
1371:Libraries/FWlib/src/stm32f10x_flash.c ****     {
1372:Libraries/FWlib/src/stm32f10x_flash.c ****       bitstatus = RESET;
1373:Libraries/FWlib/src/stm32f10x_flash.c ****     }
1374:Libraries/FWlib/src/stm32f10x_flash.c ****   }
1375:Libraries/FWlib/src/stm32f10x_flash.c ****   else
1376:Libraries/FWlib/src/stm32f10x_flash.c ****   {
1377:Libraries/FWlib/src/stm32f10x_flash.c ****     if((FLASH_FLAG & 0x80000000) != 0x0)
1378:Libraries/FWlib/src/stm32f10x_flash.c ****     {
1379:Libraries/FWlib/src/stm32f10x_flash.c ****       if((FLASH->SR2 & FLASH_FLAG) != (uint32_t)RESET)
1380:Libraries/FWlib/src/stm32f10x_flash.c ****       {
1381:Libraries/FWlib/src/stm32f10x_flash.c ****         bitstatus = SET;
1382:Libraries/FWlib/src/stm32f10x_flash.c ****       }
1383:Libraries/FWlib/src/stm32f10x_flash.c ****       else
1384:Libraries/FWlib/src/stm32f10x_flash.c ****       {
1385:Libraries/FWlib/src/stm32f10x_flash.c ****         bitstatus = RESET;
1386:Libraries/FWlib/src/stm32f10x_flash.c ****       }
1387:Libraries/FWlib/src/stm32f10x_flash.c ****     }
1388:Libraries/FWlib/src/stm32f10x_flash.c ****     else
1389:Libraries/FWlib/src/stm32f10x_flash.c ****     {
1390:Libraries/FWlib/src/stm32f10x_flash.c ****       if((FLASH->SR & FLASH_FLAG) != (uint32_t)RESET)
1391:Libraries/FWlib/src/stm32f10x_flash.c ****       {
1392:Libraries/FWlib/src/stm32f10x_flash.c ****         bitstatus = SET;
1393:Libraries/FWlib/src/stm32f10x_flash.c ****       }
1394:Libraries/FWlib/src/stm32f10x_flash.c ****       else
1395:Libraries/FWlib/src/stm32f10x_flash.c ****       {
1396:Libraries/FWlib/src/stm32f10x_flash.c ****         bitstatus = RESET;
1397:Libraries/FWlib/src/stm32f10x_flash.c ****       }
1398:Libraries/FWlib/src/stm32f10x_flash.c ****     }
1399:Libraries/FWlib/src/stm32f10x_flash.c ****   }
1400:Libraries/FWlib/src/stm32f10x_flash.c **** #else
1401:Libraries/FWlib/src/stm32f10x_flash.c ****   /* Check the parameters */
1402:Libraries/FWlib/src/stm32f10x_flash.c ****   assert_param(IS_FLASH_GET_FLAG(FLASH_FLAG)) ;
1403:Libraries/FWlib/src/stm32f10x_flash.c ****   if(FLASH_FLAG == FLASH_FLAG_OPTERR) 
 426              		.loc 1 1403 0
 427 0000 0128     		cmp	r0, #1
 428 0002 05D0     		beq	.L51
1404:Libraries/FWlib/src/stm32f10x_flash.c ****   {
1405:Libraries/FWlib/src/stm32f10x_flash.c ****     if((FLASH->OBR & FLASH_FLAG_OPTERR) != (uint32_t)RESET)
1406:Libraries/FWlib/src/stm32f10x_flash.c ****     {
1407:Libraries/FWlib/src/stm32f10x_flash.c ****       bitstatus = SET;
1408:Libraries/FWlib/src/stm32f10x_flash.c ****     }
1409:Libraries/FWlib/src/stm32f10x_flash.c ****     else
1410:Libraries/FWlib/src/stm32f10x_flash.c ****     {
1411:Libraries/FWlib/src/stm32f10x_flash.c ****       bitstatus = RESET;
1412:Libraries/FWlib/src/stm32f10x_flash.c ****     }
1413:Libraries/FWlib/src/stm32f10x_flash.c ****   }
1414:Libraries/FWlib/src/stm32f10x_flash.c ****   else
1415:Libraries/FWlib/src/stm32f10x_flash.c ****   {
1416:Libraries/FWlib/src/stm32f10x_flash.c ****    if((FLASH->SR & FLASH_FLAG) != (uint32_t)RESET)
 429              		.loc 1 1416 0
 430 0004 074B     		ldr	r3, .L53
ARM GAS  /tmp/ccfAcV92.s 			page 33


 431 0006 DB68     		ldr	r3, [r3, #12]
 432 0008 1842     		tst	r0, r3
 433 000a 07D1     		bne	.L52
1417:Libraries/FWlib/src/stm32f10x_flash.c ****     {
1418:Libraries/FWlib/src/stm32f10x_flash.c ****       bitstatus = SET;
1419:Libraries/FWlib/src/stm32f10x_flash.c ****     }
1420:Libraries/FWlib/src/stm32f10x_flash.c ****     else
1421:Libraries/FWlib/src/stm32f10x_flash.c ****     {
1422:Libraries/FWlib/src/stm32f10x_flash.c ****       bitstatus = RESET;
 434              		.loc 1 1422 0
 435 000c 0020     		movs	r0, #0
 436              	.LVL19:
1423:Libraries/FWlib/src/stm32f10x_flash.c ****     }
1424:Libraries/FWlib/src/stm32f10x_flash.c ****   }
1425:Libraries/FWlib/src/stm32f10x_flash.c **** #endif /* STM32F10X_XL */
1426:Libraries/FWlib/src/stm32f10x_flash.c **** 
1427:Libraries/FWlib/src/stm32f10x_flash.c ****   /* Return the new state of FLASH_FLAG (SET or RESET) */
1428:Libraries/FWlib/src/stm32f10x_flash.c ****   return bitstatus;
1429:Libraries/FWlib/src/stm32f10x_flash.c **** }
 437              		.loc 1 1429 0
 438 000e 7047     		bx	lr
 439              	.LVL20:
 440              	.L51:
1405:Libraries/FWlib/src/stm32f10x_flash.c ****     {
 441              		.loc 1 1405 0
 442 0010 044B     		ldr	r3, .L53
 443 0012 DB69     		ldr	r3, [r3, #28]
 444 0014 13F0010F 		tst	r3, #1
 445 0018 02D0     		beq	.L49
 446 001a 7047     		bx	lr
 447              	.L52:
1418:Libraries/FWlib/src/stm32f10x_flash.c ****     }
 448              		.loc 1 1418 0
 449 001c 0120     		movs	r0, #1
 450              	.LVL21:
 451 001e 7047     		bx	lr
 452              	.LVL22:
 453              	.L49:
1411:Libraries/FWlib/src/stm32f10x_flash.c ****     }
 454              		.loc 1 1411 0
 455 0020 0020     		movs	r0, #0
 456              	.LVL23:
 457 0022 7047     		bx	lr
 458              	.L54:
 459              		.align	2
 460              	.L53:
 461 0024 00200240 		.word	1073881088
 462              		.cfi_endproc
 463              	.LFE51:
 465              		.section	.text.FLASH_ClearFlag,"ax",%progbits
 466              		.align	1
 467              		.global	FLASH_ClearFlag
 468              		.syntax unified
 469              		.thumb
 470              		.thumb_func
 471              		.fpu softvfp
 473              	FLASH_ClearFlag:
ARM GAS  /tmp/ccfAcV92.s 			page 34


 474              	.LFB52:
1430:Libraries/FWlib/src/stm32f10x_flash.c **** 
1431:Libraries/FWlib/src/stm32f10x_flash.c **** /**
1432:Libraries/FWlib/src/stm32f10x_flash.c ****   * @brief  Clears the FLASH's pending flags.
1433:Libraries/FWlib/src/stm32f10x_flash.c ****   * @note   This function can be used for all STM32F10x devices.
1434:Libraries/FWlib/src/stm32f10x_flash.c ****   *         - For STM32F10X_XL devices, this function clears Bank1 or Bank2s pending flags
1435:Libraries/FWlib/src/stm32f10x_flash.c ****   *         - For other devices, it clears Bank1s pending flags.
1436:Libraries/FWlib/src/stm32f10x_flash.c ****   * @param  FLASH_FLAG: specifies the FLASH flags to clear.
1437:Libraries/FWlib/src/stm32f10x_flash.c ****   *   This parameter can be any combination of the following values:         
1438:Libraries/FWlib/src/stm32f10x_flash.c ****   *     @arg FLASH_FLAG_PGERR: FLASH Program error flag       
1439:Libraries/FWlib/src/stm32f10x_flash.c ****   *     @arg FLASH_FLAG_WRPRTERR: FLASH Write protected error flag      
1440:Libraries/FWlib/src/stm32f10x_flash.c ****   *     @arg FLASH_FLAG_EOP: FLASH End of Operation flag           
1441:Libraries/FWlib/src/stm32f10x_flash.c ****   * @retval None
1442:Libraries/FWlib/src/stm32f10x_flash.c ****   */
1443:Libraries/FWlib/src/stm32f10x_flash.c **** void FLASH_ClearFlag(uint32_t FLASH_FLAG)
1444:Libraries/FWlib/src/stm32f10x_flash.c **** {
 475              		.loc 1 1444 0
 476              		.cfi_startproc
 477              		@ args = 0, pretend = 0, frame = 0
 478              		@ frame_needed = 0, uses_anonymous_args = 0
 479              		@ link register save eliminated.
 480              	.LVL24:
1445:Libraries/FWlib/src/stm32f10x_flash.c **** #ifdef STM32F10X_XL
1446:Libraries/FWlib/src/stm32f10x_flash.c ****   /* Check the parameters */
1447:Libraries/FWlib/src/stm32f10x_flash.c ****   assert_param(IS_FLASH_CLEAR_FLAG(FLASH_FLAG)) ;
1448:Libraries/FWlib/src/stm32f10x_flash.c **** 
1449:Libraries/FWlib/src/stm32f10x_flash.c ****   if((FLASH_FLAG & 0x80000000) != 0x0)
1450:Libraries/FWlib/src/stm32f10x_flash.c ****   {
1451:Libraries/FWlib/src/stm32f10x_flash.c ****     /* Clear the flags */
1452:Libraries/FWlib/src/stm32f10x_flash.c ****     FLASH->SR2 = FLASH_FLAG;
1453:Libraries/FWlib/src/stm32f10x_flash.c ****   }
1454:Libraries/FWlib/src/stm32f10x_flash.c ****   else
1455:Libraries/FWlib/src/stm32f10x_flash.c ****   {
1456:Libraries/FWlib/src/stm32f10x_flash.c ****     /* Clear the flags */
1457:Libraries/FWlib/src/stm32f10x_flash.c ****     FLASH->SR = FLASH_FLAG;
1458:Libraries/FWlib/src/stm32f10x_flash.c ****   }  
1459:Libraries/FWlib/src/stm32f10x_flash.c **** 
1460:Libraries/FWlib/src/stm32f10x_flash.c **** #else
1461:Libraries/FWlib/src/stm32f10x_flash.c ****   /* Check the parameters */
1462:Libraries/FWlib/src/stm32f10x_flash.c ****   assert_param(IS_FLASH_CLEAR_FLAG(FLASH_FLAG)) ;
1463:Libraries/FWlib/src/stm32f10x_flash.c ****   
1464:Libraries/FWlib/src/stm32f10x_flash.c ****   /* Clear the flags */
1465:Libraries/FWlib/src/stm32f10x_flash.c ****   FLASH->SR = FLASH_FLAG;
 481              		.loc 1 1465 0
 482 0000 014B     		ldr	r3, .L56
 483 0002 D860     		str	r0, [r3, #12]
 484 0004 7047     		bx	lr
 485              	.L57:
 486 0006 00BF     		.align	2
 487              	.L56:
 488 0008 00200240 		.word	1073881088
 489              		.cfi_endproc
 490              	.LFE52:
 492              		.section	.text.FLASH_GetStatus,"ax",%progbits
 493              		.align	1
 494              		.global	FLASH_GetStatus
 495              		.syntax unified
ARM GAS  /tmp/ccfAcV92.s 			page 35


 496              		.thumb
 497              		.thumb_func
 498              		.fpu softvfp
 500              	FLASH_GetStatus:
 501              	.LFB53:
1466:Libraries/FWlib/src/stm32f10x_flash.c **** #endif /* STM32F10X_XL */
1467:Libraries/FWlib/src/stm32f10x_flash.c **** }
1468:Libraries/FWlib/src/stm32f10x_flash.c **** 
1469:Libraries/FWlib/src/stm32f10x_flash.c **** /**
1470:Libraries/FWlib/src/stm32f10x_flash.c ****   * @brief  Returns the FLASH Status.
1471:Libraries/FWlib/src/stm32f10x_flash.c ****   * @note   This function can be used for all STM32F10x devices, it is equivalent
1472:Libraries/FWlib/src/stm32f10x_flash.c ****   *         to FLASH_GetBank1Status function.
1473:Libraries/FWlib/src/stm32f10x_flash.c ****   * @param  None
1474:Libraries/FWlib/src/stm32f10x_flash.c ****   * @retval FLASH Status: The returned value can be: FLASH_BUSY, FLASH_ERROR_PG,
1475:Libraries/FWlib/src/stm32f10x_flash.c ****   *         FLASH_ERROR_WRP or FLASH_COMPLETE
1476:Libraries/FWlib/src/stm32f10x_flash.c ****   */
1477:Libraries/FWlib/src/stm32f10x_flash.c **** FLASH_Status FLASH_GetStatus(void)
1478:Libraries/FWlib/src/stm32f10x_flash.c **** {
 502              		.loc 1 1478 0
 503              		.cfi_startproc
 504              		@ args = 0, pretend = 0, frame = 0
 505              		@ frame_needed = 0, uses_anonymous_args = 0
 506              		@ link register save eliminated.
 507              	.LVL25:
1479:Libraries/FWlib/src/stm32f10x_flash.c ****   FLASH_Status flashstatus = FLASH_COMPLETE;
1480:Libraries/FWlib/src/stm32f10x_flash.c ****   
1481:Libraries/FWlib/src/stm32f10x_flash.c ****   if((FLASH->SR & FLASH_FLAG_BSY) == FLASH_FLAG_BSY) 
 508              		.loc 1 1481 0
 509 0000 0B4B     		ldr	r3, .L64
 510 0002 DB68     		ldr	r3, [r3, #12]
 511 0004 13F0010F 		tst	r3, #1
 512 0008 0DD1     		bne	.L60
1482:Libraries/FWlib/src/stm32f10x_flash.c ****   {
1483:Libraries/FWlib/src/stm32f10x_flash.c ****     flashstatus = FLASH_BUSY;
1484:Libraries/FWlib/src/stm32f10x_flash.c ****   }
1485:Libraries/FWlib/src/stm32f10x_flash.c ****   else 
1486:Libraries/FWlib/src/stm32f10x_flash.c ****   {  
1487:Libraries/FWlib/src/stm32f10x_flash.c ****     if((FLASH->SR & FLASH_FLAG_PGERR) != 0)
 513              		.loc 1 1487 0
 514 000a 094B     		ldr	r3, .L64
 515 000c DB68     		ldr	r3, [r3, #12]
 516 000e 13F0040F 		tst	r3, #4
 517 0012 01D0     		beq	.L63
1488:Libraries/FWlib/src/stm32f10x_flash.c ****     { 
1489:Libraries/FWlib/src/stm32f10x_flash.c ****       flashstatus = FLASH_ERROR_PG;
 518              		.loc 1 1489 0
 519 0014 0220     		movs	r0, #2
 520 0016 7047     		bx	lr
 521              	.L63:
1490:Libraries/FWlib/src/stm32f10x_flash.c ****     }
1491:Libraries/FWlib/src/stm32f10x_flash.c ****     else 
1492:Libraries/FWlib/src/stm32f10x_flash.c ****     {
1493:Libraries/FWlib/src/stm32f10x_flash.c ****       if((FLASH->SR & FLASH_FLAG_WRPRTERR) != 0 )
 522              		.loc 1 1493 0
 523 0018 054B     		ldr	r3, .L64
 524 001a DB68     		ldr	r3, [r3, #12]
 525 001c 13F0100F 		tst	r3, #16
ARM GAS  /tmp/ccfAcV92.s 			page 36


 526 0020 03D0     		beq	.L62
1494:Libraries/FWlib/src/stm32f10x_flash.c ****       {
1495:Libraries/FWlib/src/stm32f10x_flash.c ****         flashstatus = FLASH_ERROR_WRP;
 527              		.loc 1 1495 0
 528 0022 0320     		movs	r0, #3
 529 0024 7047     		bx	lr
 530              	.L60:
1483:Libraries/FWlib/src/stm32f10x_flash.c ****   }
 531              		.loc 1 1483 0
 532 0026 0120     		movs	r0, #1
 533 0028 7047     		bx	lr
 534              	.L62:
1496:Libraries/FWlib/src/stm32f10x_flash.c ****       }
1497:Libraries/FWlib/src/stm32f10x_flash.c ****       else
1498:Libraries/FWlib/src/stm32f10x_flash.c ****       {
1499:Libraries/FWlib/src/stm32f10x_flash.c ****         flashstatus = FLASH_COMPLETE;
 535              		.loc 1 1499 0
 536 002a 0420     		movs	r0, #4
 537              	.LVL26:
1500:Libraries/FWlib/src/stm32f10x_flash.c ****       }
1501:Libraries/FWlib/src/stm32f10x_flash.c ****     }
1502:Libraries/FWlib/src/stm32f10x_flash.c ****   }
1503:Libraries/FWlib/src/stm32f10x_flash.c ****   /* Return the Flash Status */
1504:Libraries/FWlib/src/stm32f10x_flash.c ****   return flashstatus;
1505:Libraries/FWlib/src/stm32f10x_flash.c **** }
 538              		.loc 1 1505 0
 539 002c 7047     		bx	lr
 540              	.L65:
 541 002e 00BF     		.align	2
 542              	.L64:
 543 0030 00200240 		.word	1073881088
 544              		.cfi_endproc
 545              	.LFE53:
 547              		.section	.text.FLASH_GetBank1Status,"ax",%progbits
 548              		.align	1
 549              		.global	FLASH_GetBank1Status
 550              		.syntax unified
 551              		.thumb
 552              		.thumb_func
 553              		.fpu softvfp
 555              	FLASH_GetBank1Status:
 556              	.LFB54:
1506:Libraries/FWlib/src/stm32f10x_flash.c **** 
1507:Libraries/FWlib/src/stm32f10x_flash.c **** /**
1508:Libraries/FWlib/src/stm32f10x_flash.c ****   * @brief  Returns the FLASH Bank1 Status.
1509:Libraries/FWlib/src/stm32f10x_flash.c ****   * @note   This function can be used for all STM32F10x devices, it is equivalent
1510:Libraries/FWlib/src/stm32f10x_flash.c ****   *         to FLASH_GetStatus function.
1511:Libraries/FWlib/src/stm32f10x_flash.c ****   * @param  None
1512:Libraries/FWlib/src/stm32f10x_flash.c ****   * @retval FLASH Status: The returned value can be: FLASH_BUSY, FLASH_ERROR_PG,
1513:Libraries/FWlib/src/stm32f10x_flash.c ****   *         FLASH_ERROR_WRP or FLASH_COMPLETE
1514:Libraries/FWlib/src/stm32f10x_flash.c ****   */
1515:Libraries/FWlib/src/stm32f10x_flash.c **** FLASH_Status FLASH_GetBank1Status(void)
1516:Libraries/FWlib/src/stm32f10x_flash.c **** {
 557              		.loc 1 1516 0
 558              		.cfi_startproc
 559              		@ args = 0, pretend = 0, frame = 0
 560              		@ frame_needed = 0, uses_anonymous_args = 0
ARM GAS  /tmp/ccfAcV92.s 			page 37


 561              		@ link register save eliminated.
 562              	.LVL27:
1517:Libraries/FWlib/src/stm32f10x_flash.c ****   FLASH_Status flashstatus = FLASH_COMPLETE;
1518:Libraries/FWlib/src/stm32f10x_flash.c ****   
1519:Libraries/FWlib/src/stm32f10x_flash.c ****   if((FLASH->SR & FLASH_FLAG_BANK1_BSY) == FLASH_FLAG_BSY) 
 563              		.loc 1 1519 0
 564 0000 0B4B     		ldr	r3, .L72
 565 0002 DB68     		ldr	r3, [r3, #12]
 566 0004 13F0010F 		tst	r3, #1
 567 0008 0DD1     		bne	.L68
1520:Libraries/FWlib/src/stm32f10x_flash.c ****   {
1521:Libraries/FWlib/src/stm32f10x_flash.c ****     flashstatus = FLASH_BUSY;
1522:Libraries/FWlib/src/stm32f10x_flash.c ****   }
1523:Libraries/FWlib/src/stm32f10x_flash.c ****   else 
1524:Libraries/FWlib/src/stm32f10x_flash.c ****   {  
1525:Libraries/FWlib/src/stm32f10x_flash.c ****     if((FLASH->SR & FLASH_FLAG_BANK1_PGERR) != 0)
 568              		.loc 1 1525 0
 569 000a 094B     		ldr	r3, .L72
 570 000c DB68     		ldr	r3, [r3, #12]
 571 000e 13F0040F 		tst	r3, #4
 572 0012 01D0     		beq	.L71
1526:Libraries/FWlib/src/stm32f10x_flash.c ****     { 
1527:Libraries/FWlib/src/stm32f10x_flash.c ****       flashstatus = FLASH_ERROR_PG;
 573              		.loc 1 1527 0
 574 0014 0220     		movs	r0, #2
 575 0016 7047     		bx	lr
 576              	.L71:
1528:Libraries/FWlib/src/stm32f10x_flash.c ****     }
1529:Libraries/FWlib/src/stm32f10x_flash.c ****     else 
1530:Libraries/FWlib/src/stm32f10x_flash.c ****     {
1531:Libraries/FWlib/src/stm32f10x_flash.c ****       if((FLASH->SR & FLASH_FLAG_BANK1_WRPRTERR) != 0 )
 577              		.loc 1 1531 0
 578 0018 054B     		ldr	r3, .L72
 579 001a DB68     		ldr	r3, [r3, #12]
 580 001c 13F0100F 		tst	r3, #16
 581 0020 03D0     		beq	.L70
1532:Libraries/FWlib/src/stm32f10x_flash.c ****       {
1533:Libraries/FWlib/src/stm32f10x_flash.c ****         flashstatus = FLASH_ERROR_WRP;
 582              		.loc 1 1533 0
 583 0022 0320     		movs	r0, #3
 584 0024 7047     		bx	lr
 585              	.L68:
1521:Libraries/FWlib/src/stm32f10x_flash.c ****   }
 586              		.loc 1 1521 0
 587 0026 0120     		movs	r0, #1
 588 0028 7047     		bx	lr
 589              	.L70:
1534:Libraries/FWlib/src/stm32f10x_flash.c ****       }
1535:Libraries/FWlib/src/stm32f10x_flash.c ****       else
1536:Libraries/FWlib/src/stm32f10x_flash.c ****       {
1537:Libraries/FWlib/src/stm32f10x_flash.c ****         flashstatus = FLASH_COMPLETE;
 590              		.loc 1 1537 0
 591 002a 0420     		movs	r0, #4
 592              	.LVL28:
1538:Libraries/FWlib/src/stm32f10x_flash.c ****       }
1539:Libraries/FWlib/src/stm32f10x_flash.c ****     }
1540:Libraries/FWlib/src/stm32f10x_flash.c ****   }
ARM GAS  /tmp/ccfAcV92.s 			page 38


1541:Libraries/FWlib/src/stm32f10x_flash.c ****   /* Return the Flash Status */
1542:Libraries/FWlib/src/stm32f10x_flash.c ****   return flashstatus;
1543:Libraries/FWlib/src/stm32f10x_flash.c **** }
 593              		.loc 1 1543 0
 594 002c 7047     		bx	lr
 595              	.L73:
 596 002e 00BF     		.align	2
 597              	.L72:
 598 0030 00200240 		.word	1073881088
 599              		.cfi_endproc
 600              	.LFE54:
 602              		.section	.text.FLASH_WaitForLastOperation,"ax",%progbits
 603              		.align	1
 604              		.global	FLASH_WaitForLastOperation
 605              		.syntax unified
 606              		.thumb
 607              		.thumb_func
 608              		.fpu softvfp
 610              	FLASH_WaitForLastOperation:
 611              	.LFB55:
1544:Libraries/FWlib/src/stm32f10x_flash.c **** 
1545:Libraries/FWlib/src/stm32f10x_flash.c **** #ifdef STM32F10X_XL
1546:Libraries/FWlib/src/stm32f10x_flash.c **** /**
1547:Libraries/FWlib/src/stm32f10x_flash.c ****   * @brief  Returns the FLASH Bank2 Status.
1548:Libraries/FWlib/src/stm32f10x_flash.c ****   * @note   This function can be used for STM32F10x_XL density devices.
1549:Libraries/FWlib/src/stm32f10x_flash.c ****   * @param  None
1550:Libraries/FWlib/src/stm32f10x_flash.c ****   * @retval FLASH Status: The returned value can be: FLASH_BUSY, FLASH_ERROR_PG,
1551:Libraries/FWlib/src/stm32f10x_flash.c ****   *        FLASH_ERROR_WRP or FLASH_COMPLETE
1552:Libraries/FWlib/src/stm32f10x_flash.c ****   */
1553:Libraries/FWlib/src/stm32f10x_flash.c **** FLASH_Status FLASH_GetBank2Status(void)
1554:Libraries/FWlib/src/stm32f10x_flash.c **** {
1555:Libraries/FWlib/src/stm32f10x_flash.c ****   FLASH_Status flashstatus = FLASH_COMPLETE;
1556:Libraries/FWlib/src/stm32f10x_flash.c ****   
1557:Libraries/FWlib/src/stm32f10x_flash.c ****   if((FLASH->SR2 & (FLASH_FLAG_BANK2_BSY & 0x7FFFFFFF)) == (FLASH_FLAG_BANK2_BSY & 0x7FFFFFFF)) 
1558:Libraries/FWlib/src/stm32f10x_flash.c ****   {
1559:Libraries/FWlib/src/stm32f10x_flash.c ****     flashstatus = FLASH_BUSY;
1560:Libraries/FWlib/src/stm32f10x_flash.c ****   }
1561:Libraries/FWlib/src/stm32f10x_flash.c ****   else 
1562:Libraries/FWlib/src/stm32f10x_flash.c ****   {  
1563:Libraries/FWlib/src/stm32f10x_flash.c ****     if((FLASH->SR2 & (FLASH_FLAG_BANK2_PGERR & 0x7FFFFFFF)) != 0)
1564:Libraries/FWlib/src/stm32f10x_flash.c ****     { 
1565:Libraries/FWlib/src/stm32f10x_flash.c ****       flashstatus = FLASH_ERROR_PG;
1566:Libraries/FWlib/src/stm32f10x_flash.c ****     }
1567:Libraries/FWlib/src/stm32f10x_flash.c ****     else 
1568:Libraries/FWlib/src/stm32f10x_flash.c ****     {
1569:Libraries/FWlib/src/stm32f10x_flash.c ****       if((FLASH->SR2 & (FLASH_FLAG_BANK2_WRPRTERR & 0x7FFFFFFF)) != 0 )
1570:Libraries/FWlib/src/stm32f10x_flash.c ****       {
1571:Libraries/FWlib/src/stm32f10x_flash.c ****         flashstatus = FLASH_ERROR_WRP;
1572:Libraries/FWlib/src/stm32f10x_flash.c ****       }
1573:Libraries/FWlib/src/stm32f10x_flash.c ****       else
1574:Libraries/FWlib/src/stm32f10x_flash.c ****       {
1575:Libraries/FWlib/src/stm32f10x_flash.c ****         flashstatus = FLASH_COMPLETE;
1576:Libraries/FWlib/src/stm32f10x_flash.c ****       }
1577:Libraries/FWlib/src/stm32f10x_flash.c ****     }
1578:Libraries/FWlib/src/stm32f10x_flash.c ****   }
1579:Libraries/FWlib/src/stm32f10x_flash.c ****   /* Return the Flash Status */
1580:Libraries/FWlib/src/stm32f10x_flash.c ****   return flashstatus;
ARM GAS  /tmp/ccfAcV92.s 			page 39


1581:Libraries/FWlib/src/stm32f10x_flash.c **** }
1582:Libraries/FWlib/src/stm32f10x_flash.c **** #endif /* STM32F10X_XL */
1583:Libraries/FWlib/src/stm32f10x_flash.c **** /**
1584:Libraries/FWlib/src/stm32f10x_flash.c ****   * @brief  Waits for a Flash operation to complete or a TIMEOUT to occur.
1585:Libraries/FWlib/src/stm32f10x_flash.c ****   * @note   This function can be used for all STM32F10x devices, 
1586:Libraries/FWlib/src/stm32f10x_flash.c ****   *         it is equivalent to FLASH_WaitForLastBank1Operation.
1587:Libraries/FWlib/src/stm32f10x_flash.c ****   *         - For STM32F10X_XL devices this function waits for a Bank1 Flash operation
1588:Libraries/FWlib/src/stm32f10x_flash.c ****   *           to complete or a TIMEOUT to occur.
1589:Libraries/FWlib/src/stm32f10x_flash.c ****   *         - For all other devices it waits for a Flash operation to complete 
1590:Libraries/FWlib/src/stm32f10x_flash.c ****   *           or a TIMEOUT to occur.
1591:Libraries/FWlib/src/stm32f10x_flash.c ****   * @param  Timeout: FLASH programming Timeout
1592:Libraries/FWlib/src/stm32f10x_flash.c ****   * @retval FLASH Status: The returned value can be: FLASH_ERROR_PG,
1593:Libraries/FWlib/src/stm32f10x_flash.c ****   *         FLASH_ERROR_WRP, FLASH_COMPLETE or FLASH_TIMEOUT.
1594:Libraries/FWlib/src/stm32f10x_flash.c ****   */
1595:Libraries/FWlib/src/stm32f10x_flash.c **** FLASH_Status FLASH_WaitForLastOperation(uint32_t Timeout)
1596:Libraries/FWlib/src/stm32f10x_flash.c **** { 
 612              		.loc 1 1596 0
 613              		.cfi_startproc
 614              		@ args = 0, pretend = 0, frame = 0
 615              		@ frame_needed = 0, uses_anonymous_args = 0
 616              	.LVL29:
 617 0000 10B5     		push	{r4, lr}
 618              	.LCFI0:
 619              		.cfi_def_cfa_offset 8
 620              		.cfi_offset 4, -8
 621              		.cfi_offset 14, -4
 622 0002 0446     		mov	r4, r0
 623              	.LVL30:
1597:Libraries/FWlib/src/stm32f10x_flash.c ****   FLASH_Status status = FLASH_COMPLETE;
1598:Libraries/FWlib/src/stm32f10x_flash.c ****    
1599:Libraries/FWlib/src/stm32f10x_flash.c ****   /* Check for the Flash Status */
1600:Libraries/FWlib/src/stm32f10x_flash.c ****   status = FLASH_GetBank1Status();
 624              		.loc 1 1600 0
 625 0004 FFF7FEFF 		bl	FLASH_GetBank1Status
 626              	.LVL31:
1601:Libraries/FWlib/src/stm32f10x_flash.c ****   /* Wait for a Flash operation to complete or a TIMEOUT to occur */
1602:Libraries/FWlib/src/stm32f10x_flash.c ****   while((status == FLASH_BUSY) && (Timeout != 0x00))
 627              		.loc 1 1602 0
 628 0008 02E0     		b	.L75
 629              	.L77:
1603:Libraries/FWlib/src/stm32f10x_flash.c ****   {
1604:Libraries/FWlib/src/stm32f10x_flash.c ****     status = FLASH_GetBank1Status();
 630              		.loc 1 1604 0
 631 000a FFF7FEFF 		bl	FLASH_GetBank1Status
 632              	.LVL32:
1605:Libraries/FWlib/src/stm32f10x_flash.c ****     Timeout--;
 633              		.loc 1 1605 0
 634 000e 013C     		subs	r4, r4, #1
 635              	.LVL33:
 636              	.L75:
1602:Libraries/FWlib/src/stm32f10x_flash.c ****   {
 637              		.loc 1 1602 0
 638 0010 0128     		cmp	r0, #1
 639 0012 01D1     		bne	.L76
1602:Libraries/FWlib/src/stm32f10x_flash.c ****   {
 640              		.loc 1 1602 0 is_stmt 0 discriminator 1
 641 0014 002C     		cmp	r4, #0
ARM GAS  /tmp/ccfAcV92.s 			page 40


 642 0016 F8D1     		bne	.L77
 643              	.L76:
1606:Libraries/FWlib/src/stm32f10x_flash.c ****   }
1607:Libraries/FWlib/src/stm32f10x_flash.c ****   if(Timeout == 0x00 )
 644              		.loc 1 1607 0 is_stmt 1
 645 0018 04B9     		cbnz	r4, .L78
1608:Libraries/FWlib/src/stm32f10x_flash.c ****   {
1609:Libraries/FWlib/src/stm32f10x_flash.c ****     status = FLASH_TIMEOUT;
 646              		.loc 1 1609 0
 647 001a 0520     		movs	r0, #5
 648              	.LVL34:
 649              	.L78:
1610:Libraries/FWlib/src/stm32f10x_flash.c ****   }
1611:Libraries/FWlib/src/stm32f10x_flash.c ****   /* Return the operation status */
1612:Libraries/FWlib/src/stm32f10x_flash.c ****   return status;
1613:Libraries/FWlib/src/stm32f10x_flash.c **** }
 650              		.loc 1 1613 0
 651 001c 10BD     		pop	{r4, pc}
 652              		.cfi_endproc
 653              	.LFE55:
 655              		.section	.text.FLASH_ErasePage,"ax",%progbits
 656              		.align	1
 657              		.global	FLASH_ErasePage
 658              		.syntax unified
 659              		.thumb
 660              		.thumb_func
 661              		.fpu softvfp
 663              	FLASH_ErasePage:
 664              	.LFB36:
 420:Libraries/FWlib/src/stm32f10x_flash.c ****   FLASH_Status status = FLASH_COMPLETE;
 665              		.loc 1 420 0
 666              		.cfi_startproc
 667              		@ args = 0, pretend = 0, frame = 0
 668              		@ frame_needed = 0, uses_anonymous_args = 0
 669              	.LVL35:
 670 0000 38B5     		push	{r3, r4, r5, lr}
 671              	.LCFI1:
 672              		.cfi_def_cfa_offset 16
 673              		.cfi_offset 3, -16
 674              		.cfi_offset 4, -12
 675              		.cfi_offset 5, -8
 676              		.cfi_offset 14, -4
 677 0002 0546     		mov	r5, r0
 678              	.LVL36:
 464:Libraries/FWlib/src/stm32f10x_flash.c ****   
 679              		.loc 1 464 0
 680 0004 4FF43020 		mov	r0, #720896
 681              	.LVL37:
 682 0008 FFF7FEFF 		bl	FLASH_WaitForLastOperation
 683              	.LVL38:
 466:Libraries/FWlib/src/stm32f10x_flash.c ****   { 
 684              		.loc 1 466 0
 685 000c 0428     		cmp	r0, #4
 686 000e 00D0     		beq	.L84
 687              	.L82:
 483:Libraries/FWlib/src/stm32f10x_flash.c **** 
 688              		.loc 1 483 0
ARM GAS  /tmp/ccfAcV92.s 			page 41


 689 0010 38BD     		pop	{r3, r4, r5, pc}
 690              	.LVL39:
 691              	.L84:
 469:Libraries/FWlib/src/stm32f10x_flash.c ****     FLASH->AR = Page_Address; 
 692              		.loc 1 469 0
 693 0012 0A4C     		ldr	r4, .L85
 694 0014 2369     		ldr	r3, [r4, #16]
 695 0016 43F00203 		orr	r3, r3, #2
 696 001a 2361     		str	r3, [r4, #16]
 470:Libraries/FWlib/src/stm32f10x_flash.c ****     FLASH->CR|= CR_STRT_Set;
 697              		.loc 1 470 0
 698 001c 6561     		str	r5, [r4, #20]
 471:Libraries/FWlib/src/stm32f10x_flash.c ****     
 699              		.loc 1 471 0
 700 001e 2369     		ldr	r3, [r4, #16]
 701 0020 43F04003 		orr	r3, r3, #64
 702 0024 2361     		str	r3, [r4, #16]
 474:Libraries/FWlib/src/stm32f10x_flash.c ****     
 703              		.loc 1 474 0
 704 0026 4FF43020 		mov	r0, #720896
 705              	.LVL40:
 706 002a FFF7FEFF 		bl	FLASH_WaitForLastOperation
 707              	.LVL41:
 477:Libraries/FWlib/src/stm32f10x_flash.c ****   }
 708              		.loc 1 477 0
 709 002e 2369     		ldr	r3, [r4, #16]
 710 0030 23F00203 		bic	r3, r3, #2
 711 0034 DB04     		lsls	r3, r3, #19
 712 0036 DB0C     		lsrs	r3, r3, #19
 713 0038 2361     		str	r3, [r4, #16]
 714 003a E9E7     		b	.L82
 715              	.L86:
 716              		.align	2
 717              	.L85:
 718 003c 00200240 		.word	1073881088
 719              		.cfi_endproc
 720              	.LFE36:
 722              		.section	.text.FLASH_EraseAllPages,"ax",%progbits
 723              		.align	1
 724              		.global	FLASH_EraseAllPages
 725              		.syntax unified
 726              		.thumb
 727              		.thumb_func
 728              		.fpu softvfp
 730              	FLASH_EraseAllPages:
 731              	.LFB37:
 493:Libraries/FWlib/src/stm32f10x_flash.c ****   FLASH_Status status = FLASH_COMPLETE;
 732              		.loc 1 493 0
 733              		.cfi_startproc
 734              		@ args = 0, pretend = 0, frame = 0
 735              		@ frame_needed = 0, uses_anonymous_args = 0
 736 0000 10B5     		push	{r4, lr}
 737              	.LCFI2:
 738              		.cfi_def_cfa_offset 8
 739              		.cfi_offset 4, -8
 740              		.cfi_offset 14, -4
 741              	.LVL42:
ARM GAS  /tmp/ccfAcV92.s 			page 42


 526:Libraries/FWlib/src/stm32f10x_flash.c ****   if(status == FLASH_COMPLETE)
 742              		.loc 1 526 0
 743 0002 4FF43020 		mov	r0, #720896
 744 0006 FFF7FEFF 		bl	FLASH_WaitForLastOperation
 745              	.LVL43:
 527:Libraries/FWlib/src/stm32f10x_flash.c ****   {
 746              		.loc 1 527 0
 747 000a 0428     		cmp	r0, #4
 748 000c 00D0     		beq	.L90
 749              	.L88:
 543:Libraries/FWlib/src/stm32f10x_flash.c **** 
 750              		.loc 1 543 0
 751 000e 10BD     		pop	{r4, pc}
 752              	.L90:
 530:Libraries/FWlib/src/stm32f10x_flash.c ****      FLASH->CR |= CR_STRT_Set;
 753              		.loc 1 530 0
 754 0010 094C     		ldr	r4, .L91
 755 0012 2369     		ldr	r3, [r4, #16]
 756 0014 43F00403 		orr	r3, r3, #4
 757 0018 2361     		str	r3, [r4, #16]
 531:Libraries/FWlib/src/stm32f10x_flash.c ****     
 758              		.loc 1 531 0
 759 001a 2369     		ldr	r3, [r4, #16]
 760 001c 43F04003 		orr	r3, r3, #64
 761 0020 2361     		str	r3, [r4, #16]
 534:Libraries/FWlib/src/stm32f10x_flash.c **** 
 762              		.loc 1 534 0
 763 0022 4FF43020 		mov	r0, #720896
 764              	.LVL44:
 765 0026 FFF7FEFF 		bl	FLASH_WaitForLastOperation
 766              	.LVL45:
 537:Libraries/FWlib/src/stm32f10x_flash.c ****   }
 767              		.loc 1 537 0
 768 002a 2369     		ldr	r3, [r4, #16]
 769 002c 23F00403 		bic	r3, r3, #4
 770 0030 DB04     		lsls	r3, r3, #19
 771 0032 DB0C     		lsrs	r3, r3, #19
 772 0034 2361     		str	r3, [r4, #16]
 773 0036 EAE7     		b	.L88
 774              	.L92:
 775              		.align	2
 776              	.L91:
 777 0038 00200240 		.word	1073881088
 778              		.cfi_endproc
 779              	.LFE37:
 781              		.section	.text.FLASH_EraseOptionBytes,"ax",%progbits
 782              		.align	1
 783              		.global	FLASH_EraseOptionBytes
 784              		.syntax unified
 785              		.thumb
 786              		.thumb_func
 787              		.fpu softvfp
 789              	FLASH_EraseOptionBytes:
 790              	.LFB39:
 617:Libraries/FWlib/src/stm32f10x_flash.c ****   uint16_t rdptmp = RDP_Key;
 791              		.loc 1 617 0
 792              		.cfi_startproc
ARM GAS  /tmp/ccfAcV92.s 			page 43


 793              		@ args = 0, pretend = 0, frame = 0
 794              		@ frame_needed = 0, uses_anonymous_args = 0
 795 0000 10B5     		push	{r4, lr}
 796              	.LCFI3:
 797              		.cfi_def_cfa_offset 8
 798              		.cfi_offset 4, -8
 799              		.cfi_offset 14, -4
 800              	.LVL46:
 623:Libraries/FWlib/src/stm32f10x_flash.c ****   {
 801              		.loc 1 623 0
 802 0002 FFF7FEFF 		bl	FLASH_GetReadOutProtectionStatus
 803              	.LVL47:
 804 0006 38B9     		cbnz	r0, .L97
 618:Libraries/FWlib/src/stm32f10x_flash.c **** 
 805              		.loc 1 618 0
 806 0008 A524     		movs	r4, #165
 807              	.L94:
 808              	.LVL48:
 629:Libraries/FWlib/src/stm32f10x_flash.c ****   if(status == FLASH_COMPLETE)
 809              		.loc 1 629 0
 810 000a 4FF43020 		mov	r0, #720896
 811 000e FFF7FEFF 		bl	FLASH_WaitForLastOperation
 812              	.LVL49:
 630:Libraries/FWlib/src/stm32f10x_flash.c ****   {
 813              		.loc 1 630 0
 814 0012 0428     		cmp	r0, #4
 815 0014 02D0     		beq	.L99
 816              	.L95:
 671:Libraries/FWlib/src/stm32f10x_flash.c **** 
 817              		.loc 1 671 0
 818 0016 10BD     		pop	{r4, pc}
 819              	.LVL50:
 820              	.L97:
 625:Libraries/FWlib/src/stm32f10x_flash.c ****   }
 821              		.loc 1 625 0
 822 0018 0024     		movs	r4, #0
 823 001a F6E7     		b	.L94
 824              	.LVL51:
 825              	.L99:
 633:Libraries/FWlib/src/stm32f10x_flash.c ****     FLASH->OPTKEYR = FLASH_KEY2;
 826              		.loc 1 633 0
 827 001c 1C4B     		ldr	r3, .L101
 828 001e 1D4A     		ldr	r2, .L101+4
 829 0020 9A60     		str	r2, [r3, #8]
 634:Libraries/FWlib/src/stm32f10x_flash.c ****     
 830              		.loc 1 634 0
 831 0022 02F18832 		add	r2, r2, #-2004318072
 832 0026 9A60     		str	r2, [r3, #8]
 637:Libraries/FWlib/src/stm32f10x_flash.c ****     FLASH->CR |= CR_STRT_Set;
 833              		.loc 1 637 0
 834 0028 1A69     		ldr	r2, [r3, #16]
 835 002a 42F02002 		orr	r2, r2, #32
 836 002e 1A61     		str	r2, [r3, #16]
 638:Libraries/FWlib/src/stm32f10x_flash.c ****     /* Wait for last operation to be completed */
 837              		.loc 1 638 0
 838 0030 1A69     		ldr	r2, [r3, #16]
 839 0032 42F04002 		orr	r2, r2, #64
ARM GAS  /tmp/ccfAcV92.s 			page 44


 840 0036 1A61     		str	r2, [r3, #16]
 640:Libraries/FWlib/src/stm32f10x_flash.c ****     
 841              		.loc 1 640 0
 842 0038 4FF43020 		mov	r0, #720896
 843              	.LVL52:
 844 003c FFF7FEFF 		bl	FLASH_WaitForLastOperation
 845              	.LVL53:
 642:Libraries/FWlib/src/stm32f10x_flash.c ****     {
 846              		.loc 1 642 0
 847 0040 0428     		cmp	r0, #4
 848 0042 09D0     		beq	.L100
 662:Libraries/FWlib/src/stm32f10x_flash.c ****       {
 849              		.loc 1 662 0
 850 0044 0528     		cmp	r0, #5
 851 0046 E6D0     		beq	.L95
 665:Libraries/FWlib/src/stm32f10x_flash.c ****       }
 852              		.loc 1 665 0
 853 0048 114A     		ldr	r2, .L101
 854 004a 1369     		ldr	r3, [r2, #16]
 855 004c 23F01003 		bic	r3, r3, #16
 856 0050 DB04     		lsls	r3, r3, #19
 857 0052 DB0C     		lsrs	r3, r3, #19
 858 0054 1361     		str	r3, [r2, #16]
 859 0056 DEE7     		b	.L95
 860              	.L100:
 645:Libraries/FWlib/src/stm32f10x_flash.c ****        
 861              		.loc 1 645 0
 862 0058 0D4B     		ldr	r3, .L101
 863 005a 1A69     		ldr	r2, [r3, #16]
 864 005c 22F02002 		bic	r2, r2, #32
 865 0060 D204     		lsls	r2, r2, #19
 866 0062 D20C     		lsrs	r2, r2, #19
 867 0064 1A61     		str	r2, [r3, #16]
 648:Libraries/FWlib/src/stm32f10x_flash.c ****       /* Restore the last read protection Option Byte value */
 868              		.loc 1 648 0
 869 0066 1A69     		ldr	r2, [r3, #16]
 870 0068 42F01002 		orr	r2, r2, #16
 871 006c 1A61     		str	r2, [r3, #16]
 650:Libraries/FWlib/src/stm32f10x_flash.c ****       /* Wait for last operation to be completed */
 872              		.loc 1 650 0
 873 006e 0A4B     		ldr	r3, .L101+8
 874 0070 1C80     		strh	r4, [r3]	@ movhi
 652:Libraries/FWlib/src/stm32f10x_flash.c ****  
 875              		.loc 1 652 0
 876 0072 4FF40050 		mov	r0, #8192
 877              	.LVL54:
 878 0076 FFF7FEFF 		bl	FLASH_WaitForLastOperation
 879              	.LVL55:
 654:Libraries/FWlib/src/stm32f10x_flash.c ****       {
 880              		.loc 1 654 0
 881 007a 0528     		cmp	r0, #5
 882 007c CBD0     		beq	.L95
 657:Libraries/FWlib/src/stm32f10x_flash.c ****       }
 883              		.loc 1 657 0
 884 007e 044A     		ldr	r2, .L101
 885 0080 1369     		ldr	r3, [r2, #16]
 886 0082 23F01003 		bic	r3, r3, #16
ARM GAS  /tmp/ccfAcV92.s 			page 45


 887 0086 DB04     		lsls	r3, r3, #19
 888 0088 DB0C     		lsrs	r3, r3, #19
 889 008a 1361     		str	r3, [r2, #16]
 890 008c 10BD     		pop	{r4, pc}
 891              	.LVL56:
 892              	.L102:
 893 008e 00BF     		.align	2
 894              	.L101:
 895 0090 00200240 		.word	1073881088
 896 0094 23016745 		.word	1164378403
 897 0098 00F8FF1F 		.word	536868864
 898              		.cfi_endproc
 899              	.LFE39:
 901              		.section	.text.FLASH_ProgramWord,"ax",%progbits
 902              		.align	1
 903              		.global	FLASH_ProgramWord
 904              		.syntax unified
 905              		.thumb
 906              		.thumb_func
 907              		.fpu softvfp
 909              	FLASH_ProgramWord:
 910              	.LFB40:
 682:Libraries/FWlib/src/stm32f10x_flash.c ****   FLASH_Status status = FLASH_COMPLETE;
 911              		.loc 1 682 0
 912              		.cfi_startproc
 913              		@ args = 0, pretend = 0, frame = 8
 914              		@ frame_needed = 0, uses_anonymous_args = 0
 915              	.LVL57:
 916 0000 30B5     		push	{r4, r5, lr}
 917              	.LCFI4:
 918              		.cfi_def_cfa_offset 12
 919              		.cfi_offset 4, -12
 920              		.cfi_offset 5, -8
 921              		.cfi_offset 14, -4
 922 0002 83B0     		sub	sp, sp, #12
 923              	.LCFI5:
 924              		.cfi_def_cfa_offset 24
 925 0004 0546     		mov	r5, r0
 926 0006 0C46     		mov	r4, r1
 927              	.LVL58:
 684:Libraries/FWlib/src/stm32f10x_flash.c **** 
 928              		.loc 1 684 0
 929 0008 0023     		movs	r3, #0
 930 000a 0193     		str	r3, [sp, #4]
 812:Libraries/FWlib/src/stm32f10x_flash.c ****   
 931              		.loc 1 812 0
 932 000c 4FF40050 		mov	r0, #8192
 933              	.LVL59:
 934 0010 FFF7FEFF 		bl	FLASH_WaitForLastOperation
 935              	.LVL60:
 814:Libraries/FWlib/src/stm32f10x_flash.c ****   {
 936              		.loc 1 814 0
 937 0014 0428     		cmp	r0, #4
 938 0016 01D0     		beq	.L107
 939              	.LVL61:
 940              	.L104:
 848:Libraries/FWlib/src/stm32f10x_flash.c **** 
ARM GAS  /tmp/ccfAcV92.s 			page 46


 941              		.loc 1 848 0
 942 0018 03B0     		add	sp, sp, #12
 943              	.LCFI6:
 944              		.cfi_remember_state
 945              		.cfi_def_cfa_offset 12
 946              		@ sp needed
 947 001a 30BD     		pop	{r4, r5, pc}
 948              	.LVL62:
 949              	.L107:
 950              	.LCFI7:
 951              		.cfi_restore_state
 818:Libraries/FWlib/src/stm32f10x_flash.c ****   
 952              		.loc 1 818 0
 953 001c 124A     		ldr	r2, .L109
 954 001e 1369     		ldr	r3, [r2, #16]
 955 0020 43F00103 		orr	r3, r3, #1
 956 0024 1361     		str	r3, [r2, #16]
 820:Libraries/FWlib/src/stm32f10x_flash.c ****     /* Wait for last operation to be completed */
 957              		.loc 1 820 0
 958 0026 A3B2     		uxth	r3, r4
 959 0028 2B80     		strh	r3, [r5]	@ movhi
 822:Libraries/FWlib/src/stm32f10x_flash.c ****  
 960              		.loc 1 822 0
 961 002a 4FF40050 		mov	r0, #8192
 962              	.LVL63:
 963 002e FFF7FEFF 		bl	FLASH_WaitForLastOperation
 964              	.LVL64:
 824:Libraries/FWlib/src/stm32f10x_flash.c ****     {
 965              		.loc 1 824 0
 966 0032 0428     		cmp	r0, #4
 967 0034 07D0     		beq	.L108
 841:Libraries/FWlib/src/stm32f10x_flash.c ****     }
 968              		.loc 1 841 0
 969 0036 0C4A     		ldr	r2, .L109
 970 0038 1369     		ldr	r3, [r2, #16]
 971 003a 23F00103 		bic	r3, r3, #1
 972 003e DB04     		lsls	r3, r3, #19
 973 0040 DB0C     		lsrs	r3, r3, #19
 974 0042 1361     		str	r3, [r2, #16]
 975 0044 E8E7     		b	.L104
 976              	.L108:
 828:Libraries/FWlib/src/stm32f10x_flash.c **** 
 977              		.loc 1 828 0
 978 0046 0235     		adds	r5, r5, #2
 979              	.LVL65:
 980 0048 0195     		str	r5, [sp, #4]
 830:Libraries/FWlib/src/stm32f10x_flash.c ****     
 981              		.loc 1 830 0
 982 004a 019B     		ldr	r3, [sp, #4]
 983 004c 240C     		lsrs	r4, r4, #16
 984              	.LVL66:
 985 004e 1C80     		strh	r4, [r3]	@ movhi
 833:Libraries/FWlib/src/stm32f10x_flash.c ****         
 986              		.loc 1 833 0
 987 0050 4FF40050 		mov	r0, #8192
 988              	.LVL67:
 989 0054 FFF7FEFF 		bl	FLASH_WaitForLastOperation
ARM GAS  /tmp/ccfAcV92.s 			page 47


 990              	.LVL68:
 836:Libraries/FWlib/src/stm32f10x_flash.c ****     }
 991              		.loc 1 836 0
 992 0058 034A     		ldr	r2, .L109
 993 005a 1369     		ldr	r3, [r2, #16]
 994 005c 23F00103 		bic	r3, r3, #1
 995 0060 DB04     		lsls	r3, r3, #19
 996 0062 DB0C     		lsrs	r3, r3, #19
 997 0064 1361     		str	r3, [r2, #16]
 998 0066 D7E7     		b	.L104
 999              	.L110:
 1000              		.align	2
 1001              	.L109:
 1002 0068 00200240 		.word	1073881088
 1003              		.cfi_endproc
 1004              	.LFE40:
 1006              		.section	.text.FLASH_ProgramHalfWord,"ax",%progbits
 1007              		.align	1
 1008              		.global	FLASH_ProgramHalfWord
 1009              		.syntax unified
 1010              		.thumb
 1011              		.thumb_func
 1012              		.fpu softvfp
 1014              	FLASH_ProgramHalfWord:
 1015              	.LFB41:
 859:Libraries/FWlib/src/stm32f10x_flash.c ****   FLASH_Status status = FLASH_COMPLETE;
 1016              		.loc 1 859 0
 1017              		.cfi_startproc
 1018              		@ args = 0, pretend = 0, frame = 0
 1019              		@ frame_needed = 0, uses_anonymous_args = 0
 1020              	.LVL69:
 1021 0000 70B5     		push	{r4, r5, r6, lr}
 1022              	.LCFI8:
 1023              		.cfi_def_cfa_offset 16
 1024              		.cfi_offset 4, -16
 1025              		.cfi_offset 5, -12
 1026              		.cfi_offset 6, -8
 1027              		.cfi_offset 14, -4
 1028 0002 0446     		mov	r4, r0
 1029 0004 0D46     		mov	r5, r1
 1030              	.LVL70:
 900:Libraries/FWlib/src/stm32f10x_flash.c ****   
 1031              		.loc 1 900 0
 1032 0006 4FF40050 		mov	r0, #8192
 1033              	.LVL71:
 1034 000a FFF7FEFF 		bl	FLASH_WaitForLastOperation
 1035              	.LVL72:
 902:Libraries/FWlib/src/stm32f10x_flash.c ****   {
 1036              		.loc 1 902 0
 1037 000e 0428     		cmp	r0, #4
 1038 0010 00D0     		beq	.L114
 1039              	.L112:
 918:Libraries/FWlib/src/stm32f10x_flash.c **** 
 1040              		.loc 1 918 0
 1041 0012 70BD     		pop	{r4, r5, r6, pc}
 1042              	.LVL73:
 1043              	.L114:
ARM GAS  /tmp/ccfAcV92.s 			page 48


 905:Libraries/FWlib/src/stm32f10x_flash.c ****   
 1044              		.loc 1 905 0
 1045 0014 084E     		ldr	r6, .L115
 1046 0016 3369     		ldr	r3, [r6, #16]
 1047 0018 43F00103 		orr	r3, r3, #1
 1048 001c 3361     		str	r3, [r6, #16]
 907:Libraries/FWlib/src/stm32f10x_flash.c ****     /* Wait for last operation to be completed */
 1049              		.loc 1 907 0
 1050 001e 2580     		strh	r5, [r4]	@ movhi
 909:Libraries/FWlib/src/stm32f10x_flash.c ****     
 1051              		.loc 1 909 0
 1052 0020 4FF40050 		mov	r0, #8192
 1053              	.LVL74:
 1054 0024 FFF7FEFF 		bl	FLASH_WaitForLastOperation
 1055              	.LVL75:
 912:Libraries/FWlib/src/stm32f10x_flash.c ****   } 
 1056              		.loc 1 912 0
 1057 0028 3369     		ldr	r3, [r6, #16]
 1058 002a 23F00103 		bic	r3, r3, #1
 1059 002e DB04     		lsls	r3, r3, #19
 1060 0030 DB0C     		lsrs	r3, r3, #19
 1061 0032 3361     		str	r3, [r6, #16]
 1062 0034 EDE7     		b	.L112
 1063              	.L116:
 1064 0036 00BF     		.align	2
 1065              	.L115:
 1066 0038 00200240 		.word	1073881088
 1067              		.cfi_endproc
 1068              	.LFE41:
 1070              		.section	.text.FLASH_ProgramOptionByteData,"ax",%progbits
 1071              		.align	1
 1072              		.global	FLASH_ProgramOptionByteData
 1073              		.syntax unified
 1074              		.thumb
 1075              		.thumb_func
 1076              		.fpu softvfp
 1078              	FLASH_ProgramOptionByteData:
 1079              	.LFB42:
 930:Libraries/FWlib/src/stm32f10x_flash.c ****   FLASH_Status status = FLASH_COMPLETE;
 1080              		.loc 1 930 0
 1081              		.cfi_startproc
 1082              		@ args = 0, pretend = 0, frame = 0
 1083              		@ frame_needed = 0, uses_anonymous_args = 0
 1084              	.LVL76:
 1085 0000 38B5     		push	{r3, r4, r5, lr}
 1086              	.LCFI9:
 1087              		.cfi_def_cfa_offset 16
 1088              		.cfi_offset 3, -16
 1089              		.cfi_offset 4, -12
 1090              		.cfi_offset 5, -8
 1091              		.cfi_offset 14, -4
 1092 0002 0546     		mov	r5, r0
 1093 0004 0C46     		mov	r4, r1
 1094              	.LVL77:
 934:Libraries/FWlib/src/stm32f10x_flash.c **** 
 1095              		.loc 1 934 0
 1096 0006 4FF40050 		mov	r0, #8192
ARM GAS  /tmp/ccfAcV92.s 			page 49


 1097              	.LVL78:
 1098 000a FFF7FEFF 		bl	FLASH_WaitForLastOperation
 1099              	.LVL79:
 936:Libraries/FWlib/src/stm32f10x_flash.c ****   {
 1100              		.loc 1 936 0
 1101 000e 0428     		cmp	r0, #4
 1102 0010 00D0     		beq	.L120
 1103              	.L118:
 955:Libraries/FWlib/src/stm32f10x_flash.c **** 
 1104              		.loc 1 955 0
 1105 0012 38BD     		pop	{r3, r4, r5, pc}
 1106              	.LVL80:
 1107              	.L120:
 939:Libraries/FWlib/src/stm32f10x_flash.c ****     FLASH->OPTKEYR = FLASH_KEY2;
 1108              		.loc 1 939 0
 1109 0014 0C4B     		ldr	r3, .L121
 1110 0016 0D4A     		ldr	r2, .L121+4
 1111 0018 9A60     		str	r2, [r3, #8]
 940:Libraries/FWlib/src/stm32f10x_flash.c ****     /* Enables the Option Bytes Programming operation */
 1112              		.loc 1 940 0
 1113 001a 02F18832 		add	r2, r2, #-2004318072
 1114 001e 9A60     		str	r2, [r3, #8]
 942:Libraries/FWlib/src/stm32f10x_flash.c ****     *(__IO uint16_t*)Address = Data;
 1115              		.loc 1 942 0
 1116 0020 1A69     		ldr	r2, [r3, #16]
 1117 0022 42F01002 		orr	r2, r2, #16
 1118 0026 1A61     		str	r2, [r3, #16]
 943:Libraries/FWlib/src/stm32f10x_flash.c ****     
 1119              		.loc 1 943 0
 1120 0028 A4B2     		uxth	r4, r4
 1121 002a 2C80     		strh	r4, [r5]	@ movhi
 946:Libraries/FWlib/src/stm32f10x_flash.c ****     if(status != FLASH_TIMEOUT)
 1122              		.loc 1 946 0
 1123 002c 4FF40050 		mov	r0, #8192
 1124              	.LVL81:
 1125 0030 FFF7FEFF 		bl	FLASH_WaitForLastOperation
 1126              	.LVL82:
 947:Libraries/FWlib/src/stm32f10x_flash.c ****     {
 1127              		.loc 1 947 0
 1128 0034 0528     		cmp	r0, #5
 1129 0036 ECD0     		beq	.L118
 950:Libraries/FWlib/src/stm32f10x_flash.c ****     }
 1130              		.loc 1 950 0
 1131 0038 034A     		ldr	r2, .L121
 1132 003a 1369     		ldr	r3, [r2, #16]
 1133 003c 23F01003 		bic	r3, r3, #16
 1134 0040 DB04     		lsls	r3, r3, #19
 1135 0042 DB0C     		lsrs	r3, r3, #19
 1136 0044 1361     		str	r3, [r2, #16]
 1137 0046 E4E7     		b	.L118
 1138              	.L122:
 1139              		.align	2
 1140              	.L121:
 1141 0048 00200240 		.word	1073881088
 1142 004c 23016745 		.word	1164378403
 1143              		.cfi_endproc
 1144              	.LFE42:
ARM GAS  /tmp/ccfAcV92.s 			page 50


 1146              		.section	.text.FLASH_EnableWriteProtection,"ax",%progbits
 1147              		.align	1
 1148              		.global	FLASH_EnableWriteProtection
 1149              		.syntax unified
 1150              		.thumb
 1151              		.thumb_func
 1152              		.fpu softvfp
 1154              	FLASH_EnableWriteProtection:
 1155              	.LFB43:
 976:Libraries/FWlib/src/stm32f10x_flash.c ****   uint16_t WRP0_Data = 0xFFFF, WRP1_Data = 0xFFFF, WRP2_Data = 0xFFFF, WRP3_Data = 0xFFFF;
 1156              		.loc 1 976 0
 1157              		.cfi_startproc
 1158              		@ args = 0, pretend = 0, frame = 0
 1159              		@ frame_needed = 0, uses_anonymous_args = 0
 1160              	.LVL83:
 1161 0000 F8B5     		push	{r3, r4, r5, r6, r7, lr}
 1162              	.LCFI10:
 1163              		.cfi_def_cfa_offset 24
 1164              		.cfi_offset 3, -24
 1165              		.cfi_offset 4, -20
 1166              		.cfi_offset 5, -16
 1167              		.cfi_offset 6, -12
 1168              		.cfi_offset 7, -8
 1169              		.cfi_offset 14, -4
 1170              	.LVL84:
 984:Libraries/FWlib/src/stm32f10x_flash.c ****   WRP0_Data = (uint16_t)(FLASH_Pages & WRP0_Mask);
 1171              		.loc 1 984 0
 1172 0002 C043     		mvns	r0, r0
 1173              	.LVL85:
 985:Libraries/FWlib/src/stm32f10x_flash.c ****   WRP1_Data = (uint16_t)((FLASH_Pages & WRP1_Mask) >> 8);
 1174              		.loc 1 985 0
 1175 0004 C5B2     		uxtb	r5, r0
 1176              	.LVL86:
 986:Libraries/FWlib/src/stm32f10x_flash.c ****   WRP2_Data = (uint16_t)((FLASH_Pages & WRP2_Mask) >> 16);
 1177              		.loc 1 986 0
 1178 0006 C0F30727 		ubfx	r7, r0, #8, #8
 1179              	.LVL87:
 987:Libraries/FWlib/src/stm32f10x_flash.c ****   WRP3_Data = (uint16_t)((FLASH_Pages & WRP3_Mask) >> 24);
 1180              		.loc 1 987 0
 1181 000a C0F30746 		ubfx	r6, r0, #16, #8
 1182              	.LVL88:
 988:Libraries/FWlib/src/stm32f10x_flash.c ****   
 1183              		.loc 1 988 0
 1184 000e 040E     		lsrs	r4, r0, #24
 1185              	.LVL89:
 991:Libraries/FWlib/src/stm32f10x_flash.c ****   
 1186              		.loc 1 991 0
 1187 0010 4FF40050 		mov	r0, #8192
 1188              	.LVL90:
 1189 0014 FFF7FEFF 		bl	FLASH_WaitForLastOperation
 1190              	.LVL91:
 993:Libraries/FWlib/src/stm32f10x_flash.c ****   {
 1191              		.loc 1 993 0
 1192 0018 0428     		cmp	r0, #4
 1193 001a 00D0     		beq	.L130
 1194              	.L124:
1037:Libraries/FWlib/src/stm32f10x_flash.c **** 
ARM GAS  /tmp/ccfAcV92.s 			page 51


 1195              		.loc 1 1037 0
 1196 001c F8BD     		pop	{r3, r4, r5, r6, r7, pc}
 1197              	.LVL92:
 1198              	.L130:
 996:Libraries/FWlib/src/stm32f10x_flash.c ****     FLASH->OPTKEYR = FLASH_KEY2;
 1199              		.loc 1 996 0
 1200 001e 1E4B     		ldr	r3, .L134
 1201 0020 1E4A     		ldr	r2, .L134+4
 1202 0022 9A60     		str	r2, [r3, #8]
 997:Libraries/FWlib/src/stm32f10x_flash.c ****     FLASH->CR |= CR_OPTPG_Set;
 1203              		.loc 1 997 0
 1204 0024 02F18832 		add	r2, r2, #-2004318072
 1205 0028 9A60     		str	r2, [r3, #8]
 998:Libraries/FWlib/src/stm32f10x_flash.c ****     if(WRP0_Data != 0xFF)
 1206              		.loc 1 998 0
 1207 002a 1A69     		ldr	r2, [r3, #16]
 1208 002c 42F01002 		orr	r2, r2, #16
 1209 0030 1A61     		str	r2, [r3, #16]
 999:Libraries/FWlib/src/stm32f10x_flash.c ****     {
 1210              		.loc 1 999 0
 1211 0032 FF2D     		cmp	r5, #255
 1212 0034 05D0     		beq	.L125
1001:Libraries/FWlib/src/stm32f10x_flash.c ****       
 1213              		.loc 1 1001 0
 1214 0036 1A4B     		ldr	r3, .L134+8
 1215 0038 1D81     		strh	r5, [r3, #8]	@ movhi
1004:Libraries/FWlib/src/stm32f10x_flash.c ****     }
 1216              		.loc 1 1004 0
 1217 003a 4FF40050 		mov	r0, #8192
 1218              	.LVL93:
 1219 003e FFF7FEFF 		bl	FLASH_WaitForLastOperation
 1220              	.LVL94:
 1221              	.L125:
1006:Libraries/FWlib/src/stm32f10x_flash.c ****     {
 1222              		.loc 1 1006 0
 1223 0042 0428     		cmp	r0, #4
 1224 0044 0DD0     		beq	.L131
 1225              	.L126:
1013:Libraries/FWlib/src/stm32f10x_flash.c ****     {
 1226              		.loc 1 1013 0
 1227 0046 0428     		cmp	r0, #4
 1228 0048 14D0     		beq	.L132
 1229              	.L127:
1021:Libraries/FWlib/src/stm32f10x_flash.c ****     {
 1230              		.loc 1 1021 0
 1231 004a 0428     		cmp	r0, #4
 1232 004c 1BD0     		beq	.L133
 1233              	.L128:
1029:Libraries/FWlib/src/stm32f10x_flash.c ****     {
 1234              		.loc 1 1029 0
 1235 004e 0528     		cmp	r0, #5
 1236 0050 E4D0     		beq	.L124
1032:Libraries/FWlib/src/stm32f10x_flash.c ****     }
 1237              		.loc 1 1032 0
 1238 0052 114A     		ldr	r2, .L134
 1239 0054 1369     		ldr	r3, [r2, #16]
 1240 0056 23F01003 		bic	r3, r3, #16
ARM GAS  /tmp/ccfAcV92.s 			page 52


 1241 005a DB04     		lsls	r3, r3, #19
 1242 005c DB0C     		lsrs	r3, r3, #19
 1243 005e 1361     		str	r3, [r2, #16]
 1244 0060 DCE7     		b	.L124
 1245              	.L131:
1006:Libraries/FWlib/src/stm32f10x_flash.c ****     {
 1246              		.loc 1 1006 0 discriminator 1
 1247 0062 FF2F     		cmp	r7, #255
 1248 0064 EFD0     		beq	.L126
1008:Libraries/FWlib/src/stm32f10x_flash.c ****       
 1249              		.loc 1 1008 0
 1250 0066 0E4B     		ldr	r3, .L134+8
 1251 0068 5F81     		strh	r7, [r3, #10]	@ movhi
1011:Libraries/FWlib/src/stm32f10x_flash.c ****     }
 1252              		.loc 1 1011 0
 1253 006a 4FF40050 		mov	r0, #8192
 1254              	.LVL95:
 1255 006e FFF7FEFF 		bl	FLASH_WaitForLastOperation
 1256              	.LVL96:
 1257 0072 E8E7     		b	.L126
 1258              	.L132:
1013:Libraries/FWlib/src/stm32f10x_flash.c ****     {
 1259              		.loc 1 1013 0 discriminator 1
 1260 0074 FF2E     		cmp	r6, #255
 1261 0076 E8D0     		beq	.L127
1015:Libraries/FWlib/src/stm32f10x_flash.c ****       
 1262              		.loc 1 1015 0
 1263 0078 094B     		ldr	r3, .L134+8
 1264 007a 9E81     		strh	r6, [r3, #12]	@ movhi
1018:Libraries/FWlib/src/stm32f10x_flash.c ****     }
 1265              		.loc 1 1018 0
 1266 007c 4FF40050 		mov	r0, #8192
 1267              	.LVL97:
 1268 0080 FFF7FEFF 		bl	FLASH_WaitForLastOperation
 1269              	.LVL98:
 1270 0084 E1E7     		b	.L127
 1271              	.L133:
1021:Libraries/FWlib/src/stm32f10x_flash.c ****     {
 1272              		.loc 1 1021 0 discriminator 1
 1273 0086 FF2C     		cmp	r4, #255
 1274 0088 E1D0     		beq	.L128
1023:Libraries/FWlib/src/stm32f10x_flash.c ****      
 1275              		.loc 1 1023 0
 1276 008a 054B     		ldr	r3, .L134+8
 1277 008c DC81     		strh	r4, [r3, #14]	@ movhi
1026:Libraries/FWlib/src/stm32f10x_flash.c ****     }
 1278              		.loc 1 1026 0
 1279 008e 4FF40050 		mov	r0, #8192
 1280              	.LVL99:
 1281 0092 FFF7FEFF 		bl	FLASH_WaitForLastOperation
 1282              	.LVL100:
 1283 0096 DAE7     		b	.L128
 1284              	.L135:
 1285              		.align	2
 1286              	.L134:
 1287 0098 00200240 		.word	1073881088
 1288 009c 23016745 		.word	1164378403
ARM GAS  /tmp/ccfAcV92.s 			page 53


 1289 00a0 00F8FF1F 		.word	536868864
 1290              		.cfi_endproc
 1291              	.LFE43:
 1293              		.section	.text.FLASH_ReadOutProtection,"ax",%progbits
 1294              		.align	1
 1295              		.global	FLASH_ReadOutProtection
 1296              		.syntax unified
 1297              		.thumb
 1298              		.thumb_func
 1299              		.fpu softvfp
 1301              	FLASH_ReadOutProtection:
 1302              	.LFB44:
1050:Libraries/FWlib/src/stm32f10x_flash.c ****   FLASH_Status status = FLASH_COMPLETE;
 1303              		.loc 1 1050 0
 1304              		.cfi_startproc
 1305              		@ args = 0, pretend = 0, frame = 0
 1306              		@ frame_needed = 0, uses_anonymous_args = 0
 1307              	.LVL101:
 1308 0000 10B5     		push	{r4, lr}
 1309              	.LCFI11:
 1310              		.cfi_def_cfa_offset 8
 1311              		.cfi_offset 4, -8
 1312              		.cfi_offset 14, -4
 1313 0002 0446     		mov	r4, r0
 1314              	.LVL102:
1054:Libraries/FWlib/src/stm32f10x_flash.c ****   if(status == FLASH_COMPLETE)
 1315              		.loc 1 1054 0
 1316 0004 4FF43020 		mov	r0, #720896
 1317              	.LVL103:
 1318 0008 FFF7FEFF 		bl	FLASH_WaitForLastOperation
 1319              	.LVL104:
1055:Libraries/FWlib/src/stm32f10x_flash.c ****   {
 1320              		.loc 1 1055 0
 1321 000c 0428     		cmp	r0, #4
 1322 000e 00D0     		beq	.L142
 1323              	.L137:
1098:Libraries/FWlib/src/stm32f10x_flash.c **** 
 1324              		.loc 1 1098 0
 1325 0010 10BD     		pop	{r4, pc}
 1326              	.L142:
1058:Libraries/FWlib/src/stm32f10x_flash.c ****     FLASH->OPTKEYR = FLASH_KEY2;
 1327              		.loc 1 1058 0
 1328 0012 1F4B     		ldr	r3, .L144
 1329 0014 1F4A     		ldr	r2, .L144+4
 1330 0016 9A60     		str	r2, [r3, #8]
1059:Libraries/FWlib/src/stm32f10x_flash.c ****     FLASH->CR |= CR_OPTER_Set;
 1331              		.loc 1 1059 0
 1332 0018 02F18832 		add	r2, r2, #-2004318072
 1333 001c 9A60     		str	r2, [r3, #8]
1060:Libraries/FWlib/src/stm32f10x_flash.c ****     FLASH->CR |= CR_STRT_Set;
 1334              		.loc 1 1060 0
 1335 001e 1A69     		ldr	r2, [r3, #16]
 1336 0020 42F02002 		orr	r2, r2, #32
 1337 0024 1A61     		str	r2, [r3, #16]
1061:Libraries/FWlib/src/stm32f10x_flash.c ****     /* Wait for last operation to be completed */
 1338              		.loc 1 1061 0
 1339 0026 1A69     		ldr	r2, [r3, #16]
ARM GAS  /tmp/ccfAcV92.s 			page 54


 1340 0028 42F04002 		orr	r2, r2, #64
 1341 002c 1A61     		str	r2, [r3, #16]
1063:Libraries/FWlib/src/stm32f10x_flash.c ****     if(status == FLASH_COMPLETE)
 1342              		.loc 1 1063 0
 1343 002e 4FF43020 		mov	r0, #720896
 1344              	.LVL105:
 1345 0032 FFF7FEFF 		bl	FLASH_WaitForLastOperation
 1346              	.LVL106:
1064:Libraries/FWlib/src/stm32f10x_flash.c ****     {
 1347              		.loc 1 1064 0
 1348 0036 0428     		cmp	r0, #4
 1349 0038 09D0     		beq	.L143
1089:Libraries/FWlib/src/stm32f10x_flash.c ****       {
 1350              		.loc 1 1089 0
 1351 003a 0528     		cmp	r0, #5
 1352 003c E8D0     		beq	.L137
1092:Libraries/FWlib/src/stm32f10x_flash.c ****       }
 1353              		.loc 1 1092 0
 1354 003e 144A     		ldr	r2, .L144
 1355 0040 1369     		ldr	r3, [r2, #16]
 1356 0042 23F02003 		bic	r3, r3, #32
 1357 0046 DB04     		lsls	r3, r3, #19
 1358 0048 DB0C     		lsrs	r3, r3, #19
 1359 004a 1361     		str	r3, [r2, #16]
 1360 004c E0E7     		b	.L137
 1361              	.L143:
1067:Libraries/FWlib/src/stm32f10x_flash.c ****       /* Enable the Option Bytes Programming operation */
 1362              		.loc 1 1067 0
 1363 004e 104B     		ldr	r3, .L144
 1364 0050 1A69     		ldr	r2, [r3, #16]
 1365 0052 22F02002 		bic	r2, r2, #32
 1366 0056 D204     		lsls	r2, r2, #19
 1367 0058 D20C     		lsrs	r2, r2, #19
 1368 005a 1A61     		str	r2, [r3, #16]
1069:Libraries/FWlib/src/stm32f10x_flash.c ****       if(NewState != DISABLE)
 1369              		.loc 1 1069 0
 1370 005c 1A69     		ldr	r2, [r3, #16]
 1371 005e 42F01002 		orr	r2, r2, #16
 1372 0062 1A61     		str	r2, [r3, #16]
1070:Libraries/FWlib/src/stm32f10x_flash.c ****       {
 1373              		.loc 1 1070 0
 1374 0064 84B1     		cbz	r4, .L139
1072:Libraries/FWlib/src/stm32f10x_flash.c ****       }
 1375              		.loc 1 1072 0
 1376 0066 0022     		movs	r2, #0
 1377 0068 0B4B     		ldr	r3, .L144+8
 1378 006a 1A80     		strh	r2, [r3]	@ movhi
 1379              	.L140:
1079:Libraries/FWlib/src/stm32f10x_flash.c ****     
 1380              		.loc 1 1079 0
 1381 006c 4FF43020 		mov	r0, #720896
 1382              	.LVL107:
 1383 0070 FFF7FEFF 		bl	FLASH_WaitForLastOperation
 1384              	.LVL108:
1081:Libraries/FWlib/src/stm32f10x_flash.c ****       {
 1385              		.loc 1 1081 0
 1386 0074 0528     		cmp	r0, #5
ARM GAS  /tmp/ccfAcV92.s 			page 55


 1387 0076 CBD0     		beq	.L137
1084:Libraries/FWlib/src/stm32f10x_flash.c ****       }
 1388              		.loc 1 1084 0
 1389 0078 054A     		ldr	r2, .L144
 1390 007a 1369     		ldr	r3, [r2, #16]
 1391 007c 23F01003 		bic	r3, r3, #16
 1392 0080 DB04     		lsls	r3, r3, #19
 1393 0082 DB0C     		lsrs	r3, r3, #19
 1394 0084 1361     		str	r3, [r2, #16]
 1395 0086 10BD     		pop	{r4, pc}
 1396              	.L139:
1076:Libraries/FWlib/src/stm32f10x_flash.c ****       }
 1397              		.loc 1 1076 0
 1398 0088 A522     		movs	r2, #165
 1399 008a 034B     		ldr	r3, .L144+8
 1400 008c 1A80     		strh	r2, [r3]	@ movhi
 1401 008e EDE7     		b	.L140
 1402              	.L145:
 1403              		.align	2
 1404              	.L144:
 1405 0090 00200240 		.word	1073881088
 1406 0094 23016745 		.word	1164378403
 1407 0098 00F8FF1F 		.word	536868864
 1408              		.cfi_endproc
 1409              	.LFE44:
 1411              		.section	.text.FLASH_UserOptionByteConfig,"ax",%progbits
 1412              		.align	1
 1413              		.global	FLASH_UserOptionByteConfig
 1414              		.syntax unified
 1415              		.thumb
 1416              		.thumb_func
 1417              		.fpu softvfp
 1419              	FLASH_UserOptionByteConfig:
 1420              	.LFB45:
1119:Libraries/FWlib/src/stm32f10x_flash.c ****   FLASH_Status status = FLASH_COMPLETE; 
 1421              		.loc 1 1119 0
 1422              		.cfi_startproc
 1423              		@ args = 0, pretend = 0, frame = 0
 1424              		@ frame_needed = 0, uses_anonymous_args = 0
 1425              	.LVL109:
 1426 0000 70B5     		push	{r4, r5, r6, lr}
 1427              	.LCFI12:
 1428              		.cfi_def_cfa_offset 16
 1429              		.cfi_offset 4, -16
 1430              		.cfi_offset 5, -12
 1431              		.cfi_offset 6, -8
 1432              		.cfi_offset 14, -4
 1433 0002 0446     		mov	r4, r0
 1434 0004 0E46     		mov	r6, r1
 1435 0006 1546     		mov	r5, r2
 1436              	.LVL110:
1128:Libraries/FWlib/src/stm32f10x_flash.c ****   FLASH->OPTKEYR = FLASH_KEY2;
 1437              		.loc 1 1128 0
 1438 0008 124B     		ldr	r3, .L150
 1439 000a 1349     		ldr	r1, .L150+4
 1440              	.LVL111:
 1441 000c 9960     		str	r1, [r3, #8]
ARM GAS  /tmp/ccfAcV92.s 			page 56


1129:Libraries/FWlib/src/stm32f10x_flash.c ****   
 1442              		.loc 1 1129 0
 1443 000e 01F18831 		add	r1, r1, #-2004318072
 1444 0012 9960     		str	r1, [r3, #8]
1132:Libraries/FWlib/src/stm32f10x_flash.c ****   
 1445              		.loc 1 1132 0
 1446 0014 4FF40050 		mov	r0, #8192
 1447              	.LVL112:
 1448 0018 FFF7FEFF 		bl	FLASH_WaitForLastOperation
 1449              	.LVL113:
1134:Libraries/FWlib/src/stm32f10x_flash.c ****   {  
 1450              		.loc 1 1134 0
 1451 001c 0428     		cmp	r0, #4
 1452 001e 00D0     		beq	.L149
 1453              	.L147:
1151:Libraries/FWlib/src/stm32f10x_flash.c **** 
 1454              		.loc 1 1151 0
 1455 0020 70BD     		pop	{r4, r5, r6, pc}
 1456              	.L149:
1137:Libraries/FWlib/src/stm32f10x_flash.c ****            
 1457              		.loc 1 1137 0
 1458 0022 0C4A     		ldr	r2, .L150
 1459 0024 1369     		ldr	r3, [r2, #16]
 1460 0026 43F01003 		orr	r3, r3, #16
 1461 002a 1361     		str	r3, [r2, #16]
1139:Libraries/FWlib/src/stm32f10x_flash.c ****   
 1462              		.loc 1 1139 0
 1463 002c 3543     		orrs	r5, r5, r6
 1464 002e 2C43     		orrs	r4, r4, r5
 1465 0030 44F0F804 		orr	r4, r4, #248
 1466 0034 094B     		ldr	r3, .L150+8
 1467 0036 5C80     		strh	r4, [r3, #2]	@ movhi
1142:Libraries/FWlib/src/stm32f10x_flash.c ****     if(status != FLASH_TIMEOUT)
 1468              		.loc 1 1142 0
 1469 0038 4FF40050 		mov	r0, #8192
 1470              	.LVL114:
 1471 003c FFF7FEFF 		bl	FLASH_WaitForLastOperation
 1472              	.LVL115:
1143:Libraries/FWlib/src/stm32f10x_flash.c ****     {
 1473              		.loc 1 1143 0
 1474 0040 0528     		cmp	r0, #5
 1475 0042 EDD0     		beq	.L147
1146:Libraries/FWlib/src/stm32f10x_flash.c ****     }
 1476              		.loc 1 1146 0
 1477 0044 034A     		ldr	r2, .L150
 1478 0046 1369     		ldr	r3, [r2, #16]
 1479 0048 23F01003 		bic	r3, r3, #16
 1480 004c DB04     		lsls	r3, r3, #19
 1481 004e DB0C     		lsrs	r3, r3, #19
 1482 0050 1361     		str	r3, [r2, #16]
 1483 0052 E5E7     		b	.L147
 1484              	.L151:
 1485              		.align	2
 1486              	.L150:
 1487 0054 00200240 		.word	1073881088
 1488 0058 23016745 		.word	1164378403
 1489 005c 00F8FF1F 		.word	536868864
ARM GAS  /tmp/ccfAcV92.s 			page 57


 1490              		.cfi_endproc
 1491              	.LFE45:
 1493              		.section	.text.FLASH_WaitForLastBank1Operation,"ax",%progbits
 1494              		.align	1
 1495              		.global	FLASH_WaitForLastBank1Operation
 1496              		.syntax unified
 1497              		.thumb
 1498              		.thumb_func
 1499              		.fpu softvfp
 1501              	FLASH_WaitForLastBank1Operation:
 1502              	.LFB56:
1614:Libraries/FWlib/src/stm32f10x_flash.c **** 
1615:Libraries/FWlib/src/stm32f10x_flash.c **** /**
1616:Libraries/FWlib/src/stm32f10x_flash.c ****   * @brief  Waits for a Flash operation on Bank1 to complete or a TIMEOUT to occur.
1617:Libraries/FWlib/src/stm32f10x_flash.c ****   * @note   This function can be used for all STM32F10x devices, 
1618:Libraries/FWlib/src/stm32f10x_flash.c ****   *         it is equivalent to FLASH_WaitForLastOperation.
1619:Libraries/FWlib/src/stm32f10x_flash.c ****   * @param  Timeout: FLASH programming Timeout
1620:Libraries/FWlib/src/stm32f10x_flash.c ****   * @retval FLASH Status: The returned value can be: FLASH_ERROR_PG,
1621:Libraries/FWlib/src/stm32f10x_flash.c ****   *         FLASH_ERROR_WRP, FLASH_COMPLETE or FLASH_TIMEOUT.
1622:Libraries/FWlib/src/stm32f10x_flash.c ****   */
1623:Libraries/FWlib/src/stm32f10x_flash.c **** FLASH_Status FLASH_WaitForLastBank1Operation(uint32_t Timeout)
1624:Libraries/FWlib/src/stm32f10x_flash.c **** { 
 1503              		.loc 1 1624 0
 1504              		.cfi_startproc
 1505              		@ args = 0, pretend = 0, frame = 0
 1506              		@ frame_needed = 0, uses_anonymous_args = 0
 1507              	.LVL116:
 1508 0000 10B5     		push	{r4, lr}
 1509              	.LCFI13:
 1510              		.cfi_def_cfa_offset 8
 1511              		.cfi_offset 4, -8
 1512              		.cfi_offset 14, -4
 1513 0002 0446     		mov	r4, r0
 1514              	.LVL117:
1625:Libraries/FWlib/src/stm32f10x_flash.c ****   FLASH_Status status = FLASH_COMPLETE;
1626:Libraries/FWlib/src/stm32f10x_flash.c ****    
1627:Libraries/FWlib/src/stm32f10x_flash.c ****   /* Check for the Flash Status */
1628:Libraries/FWlib/src/stm32f10x_flash.c ****   status = FLASH_GetBank1Status();
 1515              		.loc 1 1628 0
 1516 0004 FFF7FEFF 		bl	FLASH_GetBank1Status
 1517              	.LVL118:
1629:Libraries/FWlib/src/stm32f10x_flash.c ****   /* Wait for a Flash operation to complete or a TIMEOUT to occur */
1630:Libraries/FWlib/src/stm32f10x_flash.c ****   while((status == FLASH_FLAG_BANK1_BSY) && (Timeout != 0x00))
 1518              		.loc 1 1630 0
 1519 0008 02E0     		b	.L153
 1520              	.L155:
1631:Libraries/FWlib/src/stm32f10x_flash.c ****   {
1632:Libraries/FWlib/src/stm32f10x_flash.c ****     status = FLASH_GetBank1Status();
 1521              		.loc 1 1632 0
 1522 000a FFF7FEFF 		bl	FLASH_GetBank1Status
 1523              	.LVL119:
1633:Libraries/FWlib/src/stm32f10x_flash.c ****     Timeout--;
 1524              		.loc 1 1633 0
 1525 000e 013C     		subs	r4, r4, #1
 1526              	.LVL120:
 1527              	.L153:
1630:Libraries/FWlib/src/stm32f10x_flash.c ****   {
ARM GAS  /tmp/ccfAcV92.s 			page 58


 1528              		.loc 1 1630 0
 1529 0010 0128     		cmp	r0, #1
 1530 0012 01D1     		bne	.L154
1630:Libraries/FWlib/src/stm32f10x_flash.c ****   {
 1531              		.loc 1 1630 0 is_stmt 0 discriminator 1
 1532 0014 002C     		cmp	r4, #0
 1533 0016 F8D1     		bne	.L155
 1534              	.L154:
1634:Libraries/FWlib/src/stm32f10x_flash.c ****   }
1635:Libraries/FWlib/src/stm32f10x_flash.c ****   if(Timeout == 0x00 )
 1535              		.loc 1 1635 0 is_stmt 1
 1536 0018 04B9     		cbnz	r4, .L156
1636:Libraries/FWlib/src/stm32f10x_flash.c ****   {
1637:Libraries/FWlib/src/stm32f10x_flash.c ****     status = FLASH_TIMEOUT;
 1537              		.loc 1 1637 0
 1538 001a 0520     		movs	r0, #5
 1539              	.LVL121:
 1540              	.L156:
1638:Libraries/FWlib/src/stm32f10x_flash.c ****   }
1639:Libraries/FWlib/src/stm32f10x_flash.c ****   /* Return the operation status */
1640:Libraries/FWlib/src/stm32f10x_flash.c ****   return status;
1641:Libraries/FWlib/src/stm32f10x_flash.c **** }
 1541              		.loc 1 1641 0
 1542 001c 10BD     		pop	{r4, pc}
 1543              		.cfi_endproc
 1544              	.LFE56:
 1546              		.section	.text.FLASH_EraseAllBank1Pages,"ax",%progbits
 1547              		.align	1
 1548              		.global	FLASH_EraseAllBank1Pages
 1549              		.syntax unified
 1550              		.thumb
 1551              		.thumb_func
 1552              		.fpu softvfp
 1554              	FLASH_EraseAllBank1Pages:
 1555              	.LFB38:
 556:Libraries/FWlib/src/stm32f10x_flash.c ****   FLASH_Status status = FLASH_COMPLETE;
 1556              		.loc 1 556 0
 1557              		.cfi_startproc
 1558              		@ args = 0, pretend = 0, frame = 0
 1559              		@ frame_needed = 0, uses_anonymous_args = 0
 1560 0000 10B5     		push	{r4, lr}
 1561              	.LCFI14:
 1562              		.cfi_def_cfa_offset 8
 1563              		.cfi_offset 4, -8
 1564              		.cfi_offset 14, -4
 1565              	.LVL122:
 559:Libraries/FWlib/src/stm32f10x_flash.c ****   
 1566              		.loc 1 559 0
 1567 0002 4FF43020 		mov	r0, #720896
 1568 0006 FFF7FEFF 		bl	FLASH_WaitForLastBank1Operation
 1569              	.LVL123:
 561:Libraries/FWlib/src/stm32f10x_flash.c ****   {
 1570              		.loc 1 561 0
 1571 000a 0428     		cmp	r0, #4
 1572 000c 00D0     		beq	.L162
 1573              	.L160:
 575:Libraries/FWlib/src/stm32f10x_flash.c **** 
ARM GAS  /tmp/ccfAcV92.s 			page 59


 1574              		.loc 1 575 0
 1575 000e 10BD     		pop	{r4, pc}
 1576              	.L162:
 564:Libraries/FWlib/src/stm32f10x_flash.c ****      FLASH->CR |= CR_STRT_Set;
 1577              		.loc 1 564 0
 1578 0010 094C     		ldr	r4, .L163
 1579 0012 2369     		ldr	r3, [r4, #16]
 1580 0014 43F00403 		orr	r3, r3, #4
 1581 0018 2361     		str	r3, [r4, #16]
 565:Libraries/FWlib/src/stm32f10x_flash.c ****     
 1582              		.loc 1 565 0
 1583 001a 2369     		ldr	r3, [r4, #16]
 1584 001c 43F04003 		orr	r3, r3, #64
 1585 0020 2361     		str	r3, [r4, #16]
 568:Libraries/FWlib/src/stm32f10x_flash.c ****     
 1586              		.loc 1 568 0
 1587 0022 4FF43020 		mov	r0, #720896
 1588              	.LVL124:
 1589 0026 FFF7FEFF 		bl	FLASH_WaitForLastBank1Operation
 1590              	.LVL125:
 571:Libraries/FWlib/src/stm32f10x_flash.c ****   }    
 1591              		.loc 1 571 0
 1592 002a 2369     		ldr	r3, [r4, #16]
 1593 002c 23F00403 		bic	r3, r3, #4
 1594 0030 DB04     		lsls	r3, r3, #19
 1595 0032 DB0C     		lsrs	r3, r3, #19
 1596 0034 2361     		str	r3, [r4, #16]
 1597 0036 EAE7     		b	.L160
 1598              	.L164:
 1599              		.align	2
 1600              	.L163:
 1601 0038 00200240 		.word	1073881088
 1602              		.cfi_endproc
 1603              	.LFE38:
 1605              		.text
 1606              	.Letext0:
 1607              		.file 2 "/usr/include/newlib/machine/_default_types.h"
 1608              		.file 3 "/usr/include/newlib/sys/_stdint.h"
 1609              		.file 4 "Libraries/CMSIS/core_cm3.h"
 1610              		.file 5 "Libraries/CMSIS/system_stm32f10x.h"
 1611              		.file 6 "Libraries/CMSIS/stm32f10x.h"
 1612              		.file 7 "Libraries/FWlib/inc/stm32f10x_flash.h"
ARM GAS  /tmp/ccfAcV92.s 			page 60

