ARM GAS  /tmp/ccme6vTU.s 			page 1


   1              		.cpu cortex-m3
   2              		.eabi_attribute 20, 1
   3              		.eabi_attribute 21, 1
   4              		.eabi_attribute 23, 3
   5              		.eabi_attribute 24, 1
   6              		.eabi_attribute 25, 1
   7              		.eabi_attribute 26, 1
   8              		.eabi_attribute 30, 1
   9              		.eabi_attribute 34, 1
  10              		.eabi_attribute 18, 4
  11              		.file	"stm32f10x_it.c"
  12              		.text
  13              	.Ltext0:
  14              		.cfi_sections	.debug_frame
  15              		.section	.text.NMI_Handler,"ax",%progbits
  16              		.align	1
  17              		.global	NMI_Handler
  18              		.syntax unified
  19              		.thumb
  20              		.thumb_func
  21              		.fpu softvfp
  23              	NMI_Handler:
  24              	.LFB29:
  25              		.file 1 "User/stm32f10x_it.c"
   1:User/stm32f10x_it.c **** /**
   2:User/stm32f10x_it.c ****   ******************************************************************************
   3:User/stm32f10x_it.c ****   * @file    Project/STM32F10x_StdPeriph_Template/stm32f10x_it.c 
   4:User/stm32f10x_it.c ****   * @author  MCD Application Team
   5:User/stm32f10x_it.c ****   * @version V3.5.0
   6:User/stm32f10x_it.c ****   * @date    08-April-2011
   7:User/stm32f10x_it.c ****   * @brief   Main Interrupt Service Routines.
   8:User/stm32f10x_it.c ****   *          This file provides template for all exceptions handler and 
   9:User/stm32f10x_it.c ****   *          peripherals interrupt service routine.
  10:User/stm32f10x_it.c ****   ******************************************************************************
  11:User/stm32f10x_it.c ****   * @attention
  12:User/stm32f10x_it.c ****   *
  13:User/stm32f10x_it.c ****   * THE PRESENT FIRMWARE WHICH IS FOR GUIDANCE ONLY AIMS AT PROVIDING CUSTOMERS
  14:User/stm32f10x_it.c ****   * WITH CODING INFORMATION REGARDING THEIR PRODUCTS IN ORDER FOR THEM TO SAVE
  15:User/stm32f10x_it.c ****   * TIME. AS A RESULT, STMICROELECTRONICS SHALL NOT BE HELD LIABLE FOR ANY
  16:User/stm32f10x_it.c ****   * DIRECT, INDIRECT OR CONSEQUENTI
  17:User/stm32f10x_it.c ****   
  18:User/stm32f10x_it.c ****   AL DAMAGES WITH RESPECT TO ANY CLAIMS ARISING
  19:User/stm32f10x_it.c ****   * FROM THE CONTENT OF SUCH FIRMWARE AND/OR THE USE MADE BY CUSTOMERS OF THE
  20:User/stm32f10x_it.c ****   * CODING INFORMATION CONTAINED HEREIN IN CONNECTION WITH THEIR PRODUCTS.
  21:User/stm32f10x_it.c ****   *
  22:User/stm32f10x_it.c ****   * <h2><center>&copy; COPYRIGHT 2011 STMicroelectronics</center></h2>
  23:User/stm32f10x_it.c ****   ******************************************************************************
  24:User/stm32f10x_it.c ****   */
  25:User/stm32f10x_it.c **** 
  26:User/stm32f10x_it.c **** /* Includes ------------------------------------------------------------------*/
  27:User/stm32f10x_it.c **** #include "stm32f10x_it.h"
  28:User/stm32f10x_it.c **** 
  29:User/stm32f10x_it.c **** 
  30:User/stm32f10x_it.c **** 
  31:User/stm32f10x_it.c **** /** @addtogroup STM32F10x_StdPeriph_Template
  32:User/stm32f10x_it.c ****   * @{
  33:User/stm32f10x_it.c ****   */
ARM GAS  /tmp/ccme6vTU.s 			page 2


  34:User/stm32f10x_it.c **** 
  35:User/stm32f10x_it.c **** /* Private typedef -----------------------------------------------------------*/
  36:User/stm32f10x_it.c **** /* Private define ------------------------------------------------------------*/
  37:User/stm32f10x_it.c **** /* Private macro -------------------------------------------------------------*/
  38:User/stm32f10x_it.c **** /* Private variables ---------------------------------------------------------*/
  39:User/stm32f10x_it.c **** /* Private function prototypes -----------------------------------------------*/
  40:User/stm32f10x_it.c **** /* Private functions ---------------------------------------------------------*/
  41:User/stm32f10x_it.c **** 
  42:User/stm32f10x_it.c **** /******************************************************************************/
  43:User/stm32f10x_it.c **** /*            Cortex-M3 Processor Exceptions Handlers                         */
  44:User/stm32f10x_it.c **** /******************************************************************************/
  45:User/stm32f10x_it.c **** 
  46:User/stm32f10x_it.c **** /**
  47:User/stm32f10x_it.c ****   * @brief  This function handles NMI exception.
  48:User/stm32f10x_it.c ****   * @param  None
  49:User/stm32f10x_it.c ****   * @retval None
  50:User/stm32f10x_it.c ****   */
  51:User/stm32f10x_it.c **** void NMI_Handler(void)
  52:User/stm32f10x_it.c **** {
  26              		.loc 1 52 0
  27              		.cfi_startproc
  28              		@ args = 0, pretend = 0, frame = 0
  29              		@ frame_needed = 0, uses_anonymous_args = 0
  30              		@ link register save eliminated.
  31 0000 7047     		bx	lr
  32              		.cfi_endproc
  33              	.LFE29:
  35              		.section	.text.HardFault_Handler,"ax",%progbits
  36              		.align	1
  37              		.global	HardFault_Handler
  38              		.syntax unified
  39              		.thumb
  40              		.thumb_func
  41              		.fpu softvfp
  43              	HardFault_Handler:
  44              	.LFB30:
  53:User/stm32f10x_it.c **** }
  54:User/stm32f10x_it.c **** 
  55:User/stm32f10x_it.c **** /**
  56:User/stm32f10x_it.c ****   * @brief  This function handles Hard Fault exception.
  57:User/stm32f10x_it.c ****   * @param  None
  58:User/stm32f10x_it.c ****   * @retval None
  59:User/stm32f10x_it.c ****   */
  60:User/stm32f10x_it.c **** void HardFault_Handler(void)
  61:User/stm32f10x_it.c **** {
  45              		.loc 1 61 0
  46              		.cfi_startproc
  47              		@ Volatile: function does not return.
  48              		@ args = 0, pretend = 0, frame = 0
  49              		@ frame_needed = 0, uses_anonymous_args = 0
  50              		@ link register save eliminated.
  51              	.L3:
  52 0000 FEE7     		b	.L3
  53              		.cfi_endproc
  54              	.LFE30:
  56              		.section	.text.MemManage_Handler,"ax",%progbits
  57              		.align	1
ARM GAS  /tmp/ccme6vTU.s 			page 3


  58              		.global	MemManage_Handler
  59              		.syntax unified
  60              		.thumb
  61              		.thumb_func
  62              		.fpu softvfp
  64              	MemManage_Handler:
  65              	.LFB31:
  62:User/stm32f10x_it.c ****   /* Go to infinite loop when Hard Fault exception occurs */
  63:User/stm32f10x_it.c ****   while (1)
  64:User/stm32f10x_it.c ****   {
  65:User/stm32f10x_it.c ****   }
  66:User/stm32f10x_it.c **** }
  67:User/stm32f10x_it.c **** 
  68:User/stm32f10x_it.c **** /**
  69:User/stm32f10x_it.c ****   * @brief  This function handles Memory Manage exception.
  70:User/stm32f10x_it.c ****   * @param  None
  71:User/stm32f10x_it.c ****   * @retval None
  72:User/stm32f10x_it.c ****   */
  73:User/stm32f10x_it.c **** void MemManage_Handler(void)
  74:User/stm32f10x_it.c **** {
  66              		.loc 1 74 0
  67              		.cfi_startproc
  68              		@ Volatile: function does not return.
  69              		@ args = 0, pretend = 0, frame = 0
  70              		@ frame_needed = 0, uses_anonymous_args = 0
  71              		@ link register save eliminated.
  72              	.L5:
  73 0000 FEE7     		b	.L5
  74              		.cfi_endproc
  75              	.LFE31:
  77              		.section	.text.BusFault_Handler,"ax",%progbits
  78              		.align	1
  79              		.global	BusFault_Handler
  80              		.syntax unified
  81              		.thumb
  82              		.thumb_func
  83              		.fpu softvfp
  85              	BusFault_Handler:
  86              	.LFB32:
  75:User/stm32f10x_it.c ****   /* Go to infinite loop when Memory Manage exception occurs */
  76:User/stm32f10x_it.c ****   while (1)
  77:User/stm32f10x_it.c ****   {
  78:User/stm32f10x_it.c ****   }
  79:User/stm32f10x_it.c **** }
  80:User/stm32f10x_it.c **** 
  81:User/stm32f10x_it.c **** /**
  82:User/stm32f10x_it.c ****   * @brief  This function handles Bus Fault exception.
  83:User/stm32f10x_it.c ****   * @param  None
  84:User/stm32f10x_it.c ****   * @retval None
  85:User/stm32f10x_it.c ****   */
  86:User/stm32f10x_it.c **** void BusFault_Handler(void)
  87:User/stm32f10x_it.c **** {
  87              		.loc 1 87 0
  88              		.cfi_startproc
  89              		@ Volatile: function does not return.
  90              		@ args = 0, pretend = 0, frame = 0
  91              		@ frame_needed = 0, uses_anonymous_args = 0
ARM GAS  /tmp/ccme6vTU.s 			page 4


  92              		@ link register save eliminated.
  93              	.L7:
  94 0000 FEE7     		b	.L7
  95              		.cfi_endproc
  96              	.LFE32:
  98              		.section	.text.UsageFault_Handler,"ax",%progbits
  99              		.align	1
 100              		.global	UsageFault_Handler
 101              		.syntax unified
 102              		.thumb
 103              		.thumb_func
 104              		.fpu softvfp
 106              	UsageFault_Handler:
 107              	.LFB33:
  88:User/stm32f10x_it.c ****   /* Go to infinite loop when Bus Fault exception occurs */
  89:User/stm32f10x_it.c ****   while (1)
  90:User/stm32f10x_it.c ****   {
  91:User/stm32f10x_it.c ****   }
  92:User/stm32f10x_it.c **** }
  93:User/stm32f10x_it.c **** 
  94:User/stm32f10x_it.c **** /**
  95:User/stm32f10x_it.c ****   * @brief  This function handles Usage Fault exception.
  96:User/stm32f10x_it.c ****   * @param  None
  97:User/stm32f10x_it.c ****   * @retval None
  98:User/stm32f10x_it.c ****   */
  99:User/stm32f10x_it.c **** void UsageFault_Handler(void)
 100:User/stm32f10x_it.c **** {
 108              		.loc 1 100 0
 109              		.cfi_startproc
 110              		@ Volatile: function does not return.
 111              		@ args = 0, pretend = 0, frame = 0
 112              		@ frame_needed = 0, uses_anonymous_args = 0
 113              		@ link register save eliminated.
 114              	.L9:
 115 0000 FEE7     		b	.L9
 116              		.cfi_endproc
 117              	.LFE33:
 119              		.section	.text.SVC_Handler,"ax",%progbits
 120              		.align	1
 121              		.global	SVC_Handler
 122              		.syntax unified
 123              		.thumb
 124              		.thumb_func
 125              		.fpu softvfp
 127              	SVC_Handler:
 128              	.LFB34:
 101:User/stm32f10x_it.c ****   /* Go to infinite loop when Usage Fault exception occurs */
 102:User/stm32f10x_it.c ****   while (1)
 103:User/stm32f10x_it.c ****   {
 104:User/stm32f10x_it.c ****   }
 105:User/stm32f10x_it.c **** }
 106:User/stm32f10x_it.c **** 
 107:User/stm32f10x_it.c **** /**
 108:User/stm32f10x_it.c ****   * @brief  This function handles SVCall exception.
 109:User/stm32f10x_it.c ****   * @param  None
 110:User/stm32f10x_it.c ****   * @retval None
 111:User/stm32f10x_it.c ****   */
ARM GAS  /tmp/ccme6vTU.s 			page 5


 112:User/stm32f10x_it.c **** void SVC_Handler(void)
 113:User/stm32f10x_it.c **** {
 129              		.loc 1 113 0
 130              		.cfi_startproc
 131              		@ args = 0, pretend = 0, frame = 0
 132              		@ frame_needed = 0, uses_anonymous_args = 0
 133              		@ link register save eliminated.
 134 0000 7047     		bx	lr
 135              		.cfi_endproc
 136              	.LFE34:
 138              		.section	.text.DebugMon_Handler,"ax",%progbits
 139              		.align	1
 140              		.global	DebugMon_Handler
 141              		.syntax unified
 142              		.thumb
 143              		.thumb_func
 144              		.fpu softvfp
 146              	DebugMon_Handler:
 147              	.LFB35:
 114:User/stm32f10x_it.c **** }
 115:User/stm32f10x_it.c **** 
 116:User/stm32f10x_it.c **** /**
 117:User/stm32f10x_it.c ****   * @brief  This function handles Debug Monitor exception.
 118:User/stm32f10x_it.c ****   * @param  None
 119:User/stm32f10x_it.c ****   * @retval None
 120:User/stm32f10x_it.c ****   */
 121:User/stm32f10x_it.c **** void DebugMon_Handler(void)
 122:User/stm32f10x_it.c **** {
 148              		.loc 1 122 0
 149              		.cfi_startproc
 150              		@ args = 0, pretend = 0, frame = 0
 151              		@ frame_needed = 0, uses_anonymous_args = 0
 152              		@ link register save eliminated.
 153 0000 7047     		bx	lr
 154              		.cfi_endproc
 155              	.LFE35:
 157              		.section	.text.PendSV_Handler,"ax",%progbits
 158              		.align	1
 159              		.global	PendSV_Handler
 160              		.syntax unified
 161              		.thumb
 162              		.thumb_func
 163              		.fpu softvfp
 165              	PendSV_Handler:
 166              	.LFB36:
 123:User/stm32f10x_it.c **** }
 124:User/stm32f10x_it.c **** 
 125:User/stm32f10x_it.c **** /**
 126:User/stm32f10x_it.c ****   * @brief  This function handles PendSVC exception.
 127:User/stm32f10x_it.c ****   * @param  None
 128:User/stm32f10x_it.c ****   * @retval None
 129:User/stm32f10x_it.c ****   */
 130:User/stm32f10x_it.c **** void PendSV_Handler(void)
 131:User/stm32f10x_it.c **** {
 167              		.loc 1 131 0
 168              		.cfi_startproc
 169              		@ args = 0, pretend = 0, frame = 0
ARM GAS  /tmp/ccme6vTU.s 			page 6


 170              		@ frame_needed = 0, uses_anonymous_args = 0
 171              		@ link register save eliminated.
 172 0000 7047     		bx	lr
 173              		.cfi_endproc
 174              	.LFE36:
 176              		.section	.text.SysTick_Handler,"ax",%progbits
 177              		.align	1
 178              		.global	SysTick_Handler
 179              		.syntax unified
 180              		.thumb
 181              		.thumb_func
 182              		.fpu softvfp
 184              	SysTick_Handler:
 185              	.LFB37:
 132:User/stm32f10x_it.c **** }
 133:User/stm32f10x_it.c **** 
 134:User/stm32f10x_it.c **** /**
 135:User/stm32f10x_it.c ****   * @brief  This function handles SysTick Handler.
 136:User/stm32f10x_it.c ****   * @param  None
 137:User/stm32f10x_it.c ****   * @retval None
 138:User/stm32f10x_it.c ****   */
 139:User/stm32f10x_it.c **** void SysTick_Handler(void)
 140:User/stm32f10x_it.c **** {
 186              		.loc 1 140 0
 187              		.cfi_startproc
 188              		@ args = 0, pretend = 0, frame = 0
 189              		@ frame_needed = 0, uses_anonymous_args = 0
 190              		@ link register save eliminated.
 191 0000 7047     		bx	lr
 192              		.cfi_endproc
 193              	.LFE37:
 195              		.text
 196              	.Letext0:
 197              		.file 2 "/usr/include/newlib/machine/_default_types.h"
 198              		.file 3 "/usr/include/newlib/sys/_stdint.h"
 199              		.file 4 "Libraries/CMSIS/core_cm3.h"
 200              		.file 5 "Libraries/CMSIS/system_stm32f10x.h"
ARM GAS  /tmp/ccme6vTU.s 			page 7

