ARM GAS  /tmp/cc1Hj1lD.s 			page 1


   1              		.cpu cortex-m3
   2              		.eabi_attribute 20, 1
   3              		.eabi_attribute 21, 1
   4              		.eabi_attribute 23, 3
   5              		.eabi_attribute 24, 1
   6              		.eabi_attribute 25, 1
   7              		.eabi_attribute 26, 1
   8              		.eabi_attribute 30, 1
   9              		.eabi_attribute 34, 1
  10              		.eabi_attribute 18, 4
  11              		.file	"stm32f1xx_hal_i2s.c"
  12              		.text
  13              	.Ltext0:
  14              		.cfi_sections	.debug_frame
  15              		.section	.text.I2S_WaitFlagStateUntilTimeout,"ax",%progbits
  16              		.align	1
  17              		.syntax unified
  18              		.thumb
  19              		.thumb_func
  20              		.fpu softvfp
  22              	I2S_WaitFlagStateUntilTimeout:
  23              	.LFB93:
  24              		.file 1 "Libraries/STM32F1xx_HAL_Driver/Src/stm32f1xx_hal_i2s.c"
   1:Libraries/STM32F1xx_HAL_Driver/Src/stm32f1xx_hal_i2s.c **** /**
   2:Libraries/STM32F1xx_HAL_Driver/Src/stm32f1xx_hal_i2s.c ****   ******************************************************************************
   3:Libraries/STM32F1xx_HAL_Driver/Src/stm32f1xx_hal_i2s.c ****   * @file    stm32f1xx_hal_i2s.c
   4:Libraries/STM32F1xx_HAL_Driver/Src/stm32f1xx_hal_i2s.c ****   * @author  MCD Application Team
   5:Libraries/STM32F1xx_HAL_Driver/Src/stm32f1xx_hal_i2s.c ****   * @version V1.1.1
   6:Libraries/STM32F1xx_HAL_Driver/Src/stm32f1xx_hal_i2s.c ****   * @date    12-May-2017
   7:Libraries/STM32F1xx_HAL_Driver/Src/stm32f1xx_hal_i2s.c ****   * @brief   I2S HAL module driver.
   8:Libraries/STM32F1xx_HAL_Driver/Src/stm32f1xx_hal_i2s.c ****   *          This file provides firmware functions to manage the following
   9:Libraries/STM32F1xx_HAL_Driver/Src/stm32f1xx_hal_i2s.c ****   *          functionalities of the Integrated Interchip Sound (I2S) peripheral:
  10:Libraries/STM32F1xx_HAL_Driver/Src/stm32f1xx_hal_i2s.c ****   *           + Initialization and de-initialization functions
  11:Libraries/STM32F1xx_HAL_Driver/Src/stm32f1xx_hal_i2s.c ****   *           + IO operation functions
  12:Libraries/STM32F1xx_HAL_Driver/Src/stm32f1xx_hal_i2s.c ****   *           + Peripheral State and Errors functions
  13:Libraries/STM32F1xx_HAL_Driver/Src/stm32f1xx_hal_i2s.c ****   @verbatim
  14:Libraries/STM32F1xx_HAL_Driver/Src/stm32f1xx_hal_i2s.c ****  ===============================================================================
  15:Libraries/STM32F1xx_HAL_Driver/Src/stm32f1xx_hal_i2s.c ****                   ##### How to use this driver #####
  16:Libraries/STM32F1xx_HAL_Driver/Src/stm32f1xx_hal_i2s.c ****  ===============================================================================
  17:Libraries/STM32F1xx_HAL_Driver/Src/stm32f1xx_hal_i2s.c ****  [..]
  18:Libraries/STM32F1xx_HAL_Driver/Src/stm32f1xx_hal_i2s.c ****     The I2S HAL driver can be used as follow:
  19:Libraries/STM32F1xx_HAL_Driver/Src/stm32f1xx_hal_i2s.c **** 
  20:Libraries/STM32F1xx_HAL_Driver/Src/stm32f1xx_hal_i2s.c ****     (#) Declare a I2S_HandleTypeDef handle structure.
  21:Libraries/STM32F1xx_HAL_Driver/Src/stm32f1xx_hal_i2s.c ****     (#) Initialize the I2S low level resources by implement the HAL_I2S_MspInit() API:
  22:Libraries/STM32F1xx_HAL_Driver/Src/stm32f1xx_hal_i2s.c ****         (##) Enable the SPIx interface clock.
  23:Libraries/STM32F1xx_HAL_Driver/Src/stm32f1xx_hal_i2s.c ****         (##) I2S pins configuration:
  24:Libraries/STM32F1xx_HAL_Driver/Src/stm32f1xx_hal_i2s.c ****             (+++) Enable the clock for the I2S GPIOs.
  25:Libraries/STM32F1xx_HAL_Driver/Src/stm32f1xx_hal_i2s.c ****             (+++) Configure these I2S pins as alternate function.
  26:Libraries/STM32F1xx_HAL_Driver/Src/stm32f1xx_hal_i2s.c ****         (##) NVIC configuration if you need to use interrupt process (HAL_I2S_Transmit_IT()
  27:Libraries/STM32F1xx_HAL_Driver/Src/stm32f1xx_hal_i2s.c ****              and HAL_I2S_Receive_IT() APIs).
  28:Libraries/STM32F1xx_HAL_Driver/Src/stm32f1xx_hal_i2s.c ****             (+++) Configure the I2Sx interrupt priority.
  29:Libraries/STM32F1xx_HAL_Driver/Src/stm32f1xx_hal_i2s.c ****             (+++) Enable the NVIC I2S IRQ handle.
  30:Libraries/STM32F1xx_HAL_Driver/Src/stm32f1xx_hal_i2s.c ****         (##) DMA Configuration if you need to use DMA process (HAL_I2S_Transmit_DMA()
  31:Libraries/STM32F1xx_HAL_Driver/Src/stm32f1xx_hal_i2s.c ****              and HAL_I2S_Receive_DMA() APIs:
  32:Libraries/STM32F1xx_HAL_Driver/Src/stm32f1xx_hal_i2s.c ****             (+++) Declare a DMA handle structure for the Tx/Rx Channel.
  33:Libraries/STM32F1xx_HAL_Driver/Src/stm32f1xx_hal_i2s.c ****             (+++) Enable the DMAx interface clock.
  34:Libraries/STM32F1xx_HAL_Driver/Src/stm32f1xx_hal_i2s.c ****             (+++) Configure the declared DMA handle structure with the required Tx/Rx parameters.  
ARM GAS  /tmp/cc1Hj1lD.s 			page 2


  35:Libraries/STM32F1xx_HAL_Driver/Src/stm32f1xx_hal_i2s.c ****             (+++) Configure the DMA Tx/Rx Channel.
  36:Libraries/STM32F1xx_HAL_Driver/Src/stm32f1xx_hal_i2s.c ****             (+++) Associate the initialized DMA handle to the I2S DMA Tx/Rx handle.
  37:Libraries/STM32F1xx_HAL_Driver/Src/stm32f1xx_hal_i2s.c ****             (+++) Configure the priority and enable the NVIC for the transfer complete interrupt on
  38:Libraries/STM32F1xx_HAL_Driver/Src/stm32f1xx_hal_i2s.c ****                   DMA Tx/Rx Channel.
  39:Libraries/STM32F1xx_HAL_Driver/Src/stm32f1xx_hal_i2s.c **** 
  40:Libraries/STM32F1xx_HAL_Driver/Src/stm32f1xx_hal_i2s.c ****    (#) Program the Mode, Standard, Data Format, MCLK Output, Audio frequency and Polarity
  41:Libraries/STM32F1xx_HAL_Driver/Src/stm32f1xx_hal_i2s.c ****        using HAL_I2S_Init() function.
  42:Libraries/STM32F1xx_HAL_Driver/Src/stm32f1xx_hal_i2s.c **** 
  43:Libraries/STM32F1xx_HAL_Driver/Src/stm32f1xx_hal_i2s.c ****    -@- The specific I2S interrupts (Transmission complete interrupt,
  44:Libraries/STM32F1xx_HAL_Driver/Src/stm32f1xx_hal_i2s.c ****        RXNE interrupt and Error Interrupts) will be managed using the macros
  45:Libraries/STM32F1xx_HAL_Driver/Src/stm32f1xx_hal_i2s.c ****        __HAL_I2S_ENABLE_IT() and __HAL_I2S_DISABLE_IT() inside the transmit and receive process.
  46:Libraries/STM32F1xx_HAL_Driver/Src/stm32f1xx_hal_i2s.c ****    -@- The I2SxCLK source is the system clock (provided by the HSI, the HSE or the PLL, and sourcin
  47:Libraries/STM32F1xx_HAL_Driver/Src/stm32f1xx_hal_i2s.c ****        For connectivity line devices, the I2SxCLK source can be either SYSCLK or the PLL3 VCO (2 x 
  48:Libraries/STM32F1xx_HAL_Driver/Src/stm32f1xx_hal_i2s.c ****        in order to achieve the maximum accuracy.
  49:Libraries/STM32F1xx_HAL_Driver/Src/stm32f1xx_hal_i2s.c ****    -@- Make sure that either:
  50:Libraries/STM32F1xx_HAL_Driver/Src/stm32f1xx_hal_i2s.c ****        (+@) External clock source is configured after setting correctly 
  51:Libraries/STM32F1xx_HAL_Driver/Src/stm32f1xx_hal_i2s.c ****             the define constant HSE_VALUE in the stm32f1xx_hal_conf.h file. 
  52:Libraries/STM32F1xx_HAL_Driver/Src/stm32f1xx_hal_i2s.c **** 
  53:Libraries/STM32F1xx_HAL_Driver/Src/stm32f1xx_hal_i2s.c ****    (#) Three operation modes are available within this driver :
  54:Libraries/STM32F1xx_HAL_Driver/Src/stm32f1xx_hal_i2s.c **** 
  55:Libraries/STM32F1xx_HAL_Driver/Src/stm32f1xx_hal_i2s.c ****    *** Polling mode IO operation ***
  56:Libraries/STM32F1xx_HAL_Driver/Src/stm32f1xx_hal_i2s.c ****    =================================
  57:Libraries/STM32F1xx_HAL_Driver/Src/stm32f1xx_hal_i2s.c ****    [..]
  58:Libraries/STM32F1xx_HAL_Driver/Src/stm32f1xx_hal_i2s.c ****      (+) Send an amount of data in blocking mode using HAL_I2S_Transmit()
  59:Libraries/STM32F1xx_HAL_Driver/Src/stm32f1xx_hal_i2s.c ****      (+) Receive an amount of data in blocking mode using HAL_I2S_Receive()
  60:Libraries/STM32F1xx_HAL_Driver/Src/stm32f1xx_hal_i2s.c **** 
  61:Libraries/STM32F1xx_HAL_Driver/Src/stm32f1xx_hal_i2s.c ****    *** Interrupt mode IO operation ***
  62:Libraries/STM32F1xx_HAL_Driver/Src/stm32f1xx_hal_i2s.c ****    ===================================
  63:Libraries/STM32F1xx_HAL_Driver/Src/stm32f1xx_hal_i2s.c ****    [..]
  64:Libraries/STM32F1xx_HAL_Driver/Src/stm32f1xx_hal_i2s.c ****      (+) Send an amount of data in non blocking mode using HAL_I2S_Transmit_IT()
  65:Libraries/STM32F1xx_HAL_Driver/Src/stm32f1xx_hal_i2s.c ****      (+) At transmission end of half transfer HAL_I2S_TxHalfCpltCallback is executed and user can
  66:Libraries/STM32F1xx_HAL_Driver/Src/stm32f1xx_hal_i2s.c ****          add his own code by customization of function pointer HAL_I2S_TxHalfCpltCallback
  67:Libraries/STM32F1xx_HAL_Driver/Src/stm32f1xx_hal_i2s.c ****      (+) At transmission end of transfer HAL_I2S_TxCpltCallback is executed and user can
  68:Libraries/STM32F1xx_HAL_Driver/Src/stm32f1xx_hal_i2s.c ****          add his own code by customization of function pointer HAL_I2S_TxCpltCallback
  69:Libraries/STM32F1xx_HAL_Driver/Src/stm32f1xx_hal_i2s.c ****      (+) Receive an amount of data in non blocking mode using HAL_I2S_Receive_IT()
  70:Libraries/STM32F1xx_HAL_Driver/Src/stm32f1xx_hal_i2s.c ****      (+) At reception end of half transfer HAL_I2S_RxHalfCpltCallback is executed and user can
  71:Libraries/STM32F1xx_HAL_Driver/Src/stm32f1xx_hal_i2s.c ****          add his own code by customization of function pointer HAL_I2S_RxHalfCpltCallback
  72:Libraries/STM32F1xx_HAL_Driver/Src/stm32f1xx_hal_i2s.c ****      (+) At reception end of transfer HAL_I2S_RxCpltCallback is executed and user can
  73:Libraries/STM32F1xx_HAL_Driver/Src/stm32f1xx_hal_i2s.c ****          add his own code by customization of function pointer HAL_I2S_RxCpltCallback
  74:Libraries/STM32F1xx_HAL_Driver/Src/stm32f1xx_hal_i2s.c ****      (+) In case of transfer Error, HAL_I2S_ErrorCallback() function is executed and user can
  75:Libraries/STM32F1xx_HAL_Driver/Src/stm32f1xx_hal_i2s.c ****          add his own code by customization of function pointer HAL_I2S_ErrorCallback
  76:Libraries/STM32F1xx_HAL_Driver/Src/stm32f1xx_hal_i2s.c **** 
  77:Libraries/STM32F1xx_HAL_Driver/Src/stm32f1xx_hal_i2s.c ****    *** DMA mode IO operation ***
  78:Libraries/STM32F1xx_HAL_Driver/Src/stm32f1xx_hal_i2s.c ****    ==============================
  79:Libraries/STM32F1xx_HAL_Driver/Src/stm32f1xx_hal_i2s.c ****    [..]
  80:Libraries/STM32F1xx_HAL_Driver/Src/stm32f1xx_hal_i2s.c ****      (+) Send an amount of data in non blocking mode (DMA) using HAL_I2S_Transmit_DMA()
  81:Libraries/STM32F1xx_HAL_Driver/Src/stm32f1xx_hal_i2s.c ****      (+) At transmission end of half transfer HAL_I2S_TxHalfCpltCallback is executed and user can
  82:Libraries/STM32F1xx_HAL_Driver/Src/stm32f1xx_hal_i2s.c ****          add his own code by customization of function pointer HAL_I2S_TxHalfCpltCallback
  83:Libraries/STM32F1xx_HAL_Driver/Src/stm32f1xx_hal_i2s.c ****      (+) At transmission end of transfer HAL_I2S_TxCpltCallback is executed and user can
  84:Libraries/STM32F1xx_HAL_Driver/Src/stm32f1xx_hal_i2s.c ****          add his own code by customization of function pointer HAL_I2S_TxCpltCallback
  85:Libraries/STM32F1xx_HAL_Driver/Src/stm32f1xx_hal_i2s.c ****      (+) Receive an amount of data in non blocking mode (DMA) using HAL_I2S_Receive_DMA()
  86:Libraries/STM32F1xx_HAL_Driver/Src/stm32f1xx_hal_i2s.c ****      (+) At reception end of half transfer HAL_I2S_RxHalfCpltCallback is executed and user can
  87:Libraries/STM32F1xx_HAL_Driver/Src/stm32f1xx_hal_i2s.c ****          add his own code by customization of function pointer HAL_I2S_RxHalfCpltCallback
  88:Libraries/STM32F1xx_HAL_Driver/Src/stm32f1xx_hal_i2s.c ****      (+) At reception end of transfer HAL_I2S_RxCpltCallback is executed and user can
  89:Libraries/STM32F1xx_HAL_Driver/Src/stm32f1xx_hal_i2s.c ****          add his own code by customization of function pointer HAL_I2S_RxCpltCallback
  90:Libraries/STM32F1xx_HAL_Driver/Src/stm32f1xx_hal_i2s.c ****      (+) In case of transfer Error, HAL_I2S_ErrorCallback() function is executed and user can
  91:Libraries/STM32F1xx_HAL_Driver/Src/stm32f1xx_hal_i2s.c ****          add his own code by customization of function pointer HAL_I2S_ErrorCallback
ARM GAS  /tmp/cc1Hj1lD.s 			page 3


  92:Libraries/STM32F1xx_HAL_Driver/Src/stm32f1xx_hal_i2s.c ****      (+) Pause the DMA Transfer using HAL_I2S_DMAPause()
  93:Libraries/STM32F1xx_HAL_Driver/Src/stm32f1xx_hal_i2s.c ****      (+) Resume the DMA Transfer using HAL_I2S_DMAResume()
  94:Libraries/STM32F1xx_HAL_Driver/Src/stm32f1xx_hal_i2s.c ****      (+) Stop the DMA Transfer using HAL_I2S_DMAStop()
  95:Libraries/STM32F1xx_HAL_Driver/Src/stm32f1xx_hal_i2s.c **** 
  96:Libraries/STM32F1xx_HAL_Driver/Src/stm32f1xx_hal_i2s.c ****    *** I2S HAL driver macros list ***
  97:Libraries/STM32F1xx_HAL_Driver/Src/stm32f1xx_hal_i2s.c ****    =============================================
  98:Libraries/STM32F1xx_HAL_Driver/Src/stm32f1xx_hal_i2s.c ****    [..]
  99:Libraries/STM32F1xx_HAL_Driver/Src/stm32f1xx_hal_i2s.c ****      Below the list of most used macros in I2S HAL driver.
 100:Libraries/STM32F1xx_HAL_Driver/Src/stm32f1xx_hal_i2s.c **** 
 101:Libraries/STM32F1xx_HAL_Driver/Src/stm32f1xx_hal_i2s.c ****       (+) __HAL_I2S_ENABLE: Enable the specified SPI peripheral (in I2S mode)
 102:Libraries/STM32F1xx_HAL_Driver/Src/stm32f1xx_hal_i2s.c ****       (+) __HAL_I2S_DISABLE: Disable the specified SPI peripheral (in I2S mode)
 103:Libraries/STM32F1xx_HAL_Driver/Src/stm32f1xx_hal_i2s.c ****       (+) __HAL_I2S_ENABLE_IT : Enable the specified I2S interrupts
 104:Libraries/STM32F1xx_HAL_Driver/Src/stm32f1xx_hal_i2s.c ****       (+) __HAL_I2S_DISABLE_IT : Disable the specified I2S interrupts
 105:Libraries/STM32F1xx_HAL_Driver/Src/stm32f1xx_hal_i2s.c ****       (+) __HAL_I2S_GET_FLAG: Check whether the specified I2S flag is set or not
 106:Libraries/STM32F1xx_HAL_Driver/Src/stm32f1xx_hal_i2s.c **** 
 107:Libraries/STM32F1xx_HAL_Driver/Src/stm32f1xx_hal_i2s.c ****     [..]
 108:Libraries/STM32F1xx_HAL_Driver/Src/stm32f1xx_hal_i2s.c ****       (@) You can refer to the I2S HAL driver header file for more useful macros
 109:Libraries/STM32F1xx_HAL_Driver/Src/stm32f1xx_hal_i2s.c **** 
 110:Libraries/STM32F1xx_HAL_Driver/Src/stm32f1xx_hal_i2s.c **** 
 111:Libraries/STM32F1xx_HAL_Driver/Src/stm32f1xx_hal_i2s.c ****      *** I2C Workarounds linked to Silicon Limitation ***
 112:Libraries/STM32F1xx_HAL_Driver/Src/stm32f1xx_hal_i2s.c ****      ====================================================
 113:Libraries/STM32F1xx_HAL_Driver/Src/stm32f1xx_hal_i2s.c ****      [..]
 114:Libraries/STM32F1xx_HAL_Driver/Src/stm32f1xx_hal_i2s.c ****        (@) Only the 16-bit mode with no data extension can be used when the I2S 
 115:Libraries/STM32F1xx_HAL_Driver/Src/stm32f1xx_hal_i2s.c ****            is in Master and used the PCM long synchronization mode.
 116:Libraries/STM32F1xx_HAL_Driver/Src/stm32f1xx_hal_i2s.c **** 
 117:Libraries/STM32F1xx_HAL_Driver/Src/stm32f1xx_hal_i2s.c **** 
 118:Libraries/STM32F1xx_HAL_Driver/Src/stm32f1xx_hal_i2s.c ****   @endverbatim
 119:Libraries/STM32F1xx_HAL_Driver/Src/stm32f1xx_hal_i2s.c ****   ******************************************************************************
 120:Libraries/STM32F1xx_HAL_Driver/Src/stm32f1xx_hal_i2s.c ****   * @attention
 121:Libraries/STM32F1xx_HAL_Driver/Src/stm32f1xx_hal_i2s.c ****   *
 122:Libraries/STM32F1xx_HAL_Driver/Src/stm32f1xx_hal_i2s.c ****   * <h2><center>&copy; COPYRIGHT(c) 2017 STMicroelectronics</center></h2>
 123:Libraries/STM32F1xx_HAL_Driver/Src/stm32f1xx_hal_i2s.c ****   *
 124:Libraries/STM32F1xx_HAL_Driver/Src/stm32f1xx_hal_i2s.c ****   * Redistribution and use in source and binary forms, with or without modification,
 125:Libraries/STM32F1xx_HAL_Driver/Src/stm32f1xx_hal_i2s.c ****   * are permitted provided that the following conditions are met:
 126:Libraries/STM32F1xx_HAL_Driver/Src/stm32f1xx_hal_i2s.c ****   *   1. Redistributions of source code must retain the above copyright notice,
 127:Libraries/STM32F1xx_HAL_Driver/Src/stm32f1xx_hal_i2s.c ****   *      this list of conditions and the following disclaimer.
 128:Libraries/STM32F1xx_HAL_Driver/Src/stm32f1xx_hal_i2s.c ****   *   2. Redistributions in binary form must reproduce the above copyright notice,
 129:Libraries/STM32F1xx_HAL_Driver/Src/stm32f1xx_hal_i2s.c ****   *      this list of conditions and the following disclaimer in the documentation
 130:Libraries/STM32F1xx_HAL_Driver/Src/stm32f1xx_hal_i2s.c ****   *      and/or other materials provided with the distribution.
 131:Libraries/STM32F1xx_HAL_Driver/Src/stm32f1xx_hal_i2s.c ****   *   3. Neither the name of STMicroelectronics nor the names of its contributors
 132:Libraries/STM32F1xx_HAL_Driver/Src/stm32f1xx_hal_i2s.c ****   *      may be used to endorse or promote products derived from this software
 133:Libraries/STM32F1xx_HAL_Driver/Src/stm32f1xx_hal_i2s.c ****   *      without specific prior written permission.
 134:Libraries/STM32F1xx_HAL_Driver/Src/stm32f1xx_hal_i2s.c ****   *
 135:Libraries/STM32F1xx_HAL_Driver/Src/stm32f1xx_hal_i2s.c ****   * THIS SOFTWARE IS PROVIDED BY THE COPYRIGHT HOLDERS AND CONTRIBUTORS "AS IS"
 136:Libraries/STM32F1xx_HAL_Driver/Src/stm32f1xx_hal_i2s.c ****   * AND ANY EXPRESS OR IMPLIED WARRANTIES, INCLUDING, BUT NOT LIMITED TO, THE
 137:Libraries/STM32F1xx_HAL_Driver/Src/stm32f1xx_hal_i2s.c ****   * IMPLIED WARRANTIES OF MERCHANTABILITY AND FITNESS FOR A PARTICULAR PURPOSE ARE
 138:Libraries/STM32F1xx_HAL_Driver/Src/stm32f1xx_hal_i2s.c ****   * DISCLAIMED. IN NO EVENT SHALL THE COPYRIGHT HOLDER OR CONTRIBUTORS BE LIABLE
 139:Libraries/STM32F1xx_HAL_Driver/Src/stm32f1xx_hal_i2s.c ****   * FOR ANY DIRECT, INDIRECT, INCIDENTAL, SPECIAL, EXEMPLARY, OR CONSEQUENTIAL
 140:Libraries/STM32F1xx_HAL_Driver/Src/stm32f1xx_hal_i2s.c ****   * DAMAGES (INCLUDING, BUT NOT LIMITED TO, PROCUREMENT OF SUBSTITUTE GOODS OR
 141:Libraries/STM32F1xx_HAL_Driver/Src/stm32f1xx_hal_i2s.c ****   * SERVICES; LOSS OF USE, DATA, OR PROFITS; OR BUSINESS INTERRUPTION) HOWEVER
 142:Libraries/STM32F1xx_HAL_Driver/Src/stm32f1xx_hal_i2s.c ****   * CAUSED AND ON ANY THEORY OF LIABILITY, WHETHER IN CONTRACT, STRICT LIABILITY,
 143:Libraries/STM32F1xx_HAL_Driver/Src/stm32f1xx_hal_i2s.c ****   * OR TORT (INCLUDING NEGLIGENCE OR OTHERWISE) ARISING IN ANY WAY OUT OF THE USE
 144:Libraries/STM32F1xx_HAL_Driver/Src/stm32f1xx_hal_i2s.c ****   * OF THIS SOFTWARE, EVEN IF ADVISED OF THE POSSIBILITY OF SUCH DAMAGE.
 145:Libraries/STM32F1xx_HAL_Driver/Src/stm32f1xx_hal_i2s.c ****   *
 146:Libraries/STM32F1xx_HAL_Driver/Src/stm32f1xx_hal_i2s.c ****   ******************************************************************************
 147:Libraries/STM32F1xx_HAL_Driver/Src/stm32f1xx_hal_i2s.c ****   */
 148:Libraries/STM32F1xx_HAL_Driver/Src/stm32f1xx_hal_i2s.c **** 
ARM GAS  /tmp/cc1Hj1lD.s 			page 4


 149:Libraries/STM32F1xx_HAL_Driver/Src/stm32f1xx_hal_i2s.c **** /* Includes ------------------------------------------------------------------*/
 150:Libraries/STM32F1xx_HAL_Driver/Src/stm32f1xx_hal_i2s.c **** #include "stm32f1xx_hal.h"
 151:Libraries/STM32F1xx_HAL_Driver/Src/stm32f1xx_hal_i2s.c **** 
 152:Libraries/STM32F1xx_HAL_Driver/Src/stm32f1xx_hal_i2s.c **** /** @addtogroup STM32F1xx_HAL_Driver
 153:Libraries/STM32F1xx_HAL_Driver/Src/stm32f1xx_hal_i2s.c ****   * @{
 154:Libraries/STM32F1xx_HAL_Driver/Src/stm32f1xx_hal_i2s.c ****   */
 155:Libraries/STM32F1xx_HAL_Driver/Src/stm32f1xx_hal_i2s.c **** 
 156:Libraries/STM32F1xx_HAL_Driver/Src/stm32f1xx_hal_i2s.c **** #ifdef HAL_I2S_MODULE_ENABLED
 157:Libraries/STM32F1xx_HAL_Driver/Src/stm32f1xx_hal_i2s.c **** #if defined(STM32F103xE) || defined(STM32F103xG) || defined(STM32F105xC) || defined(STM32F107xC)
 158:Libraries/STM32F1xx_HAL_Driver/Src/stm32f1xx_hal_i2s.c **** 
 159:Libraries/STM32F1xx_HAL_Driver/Src/stm32f1xx_hal_i2s.c **** /** @defgroup I2S I2S
 160:Libraries/STM32F1xx_HAL_Driver/Src/stm32f1xx_hal_i2s.c ****   * @brief I2S HAL module driver
 161:Libraries/STM32F1xx_HAL_Driver/Src/stm32f1xx_hal_i2s.c ****   * @{
 162:Libraries/STM32F1xx_HAL_Driver/Src/stm32f1xx_hal_i2s.c ****   */
 163:Libraries/STM32F1xx_HAL_Driver/Src/stm32f1xx_hal_i2s.c **** 
 164:Libraries/STM32F1xx_HAL_Driver/Src/stm32f1xx_hal_i2s.c **** /* Private typedef -----------------------------------------------------------*/
 165:Libraries/STM32F1xx_HAL_Driver/Src/stm32f1xx_hal_i2s.c **** /* Private define ------------------------------------------------------------*/
 166:Libraries/STM32F1xx_HAL_Driver/Src/stm32f1xx_hal_i2s.c **** /* Private macro -------------------------------------------------------------*/
 167:Libraries/STM32F1xx_HAL_Driver/Src/stm32f1xx_hal_i2s.c **** /* Private variables ---------------------------------------------------------*/
 168:Libraries/STM32F1xx_HAL_Driver/Src/stm32f1xx_hal_i2s.c **** /* Private function prototypes -----------------------------------------------*/
 169:Libraries/STM32F1xx_HAL_Driver/Src/stm32f1xx_hal_i2s.c **** /** @addtogroup I2S_Private_Functions I2S Private Functions
 170:Libraries/STM32F1xx_HAL_Driver/Src/stm32f1xx_hal_i2s.c ****   * @{
 171:Libraries/STM32F1xx_HAL_Driver/Src/stm32f1xx_hal_i2s.c ****   */
 172:Libraries/STM32F1xx_HAL_Driver/Src/stm32f1xx_hal_i2s.c **** static void               I2S_DMATxCplt(DMA_HandleTypeDef *hdma);
 173:Libraries/STM32F1xx_HAL_Driver/Src/stm32f1xx_hal_i2s.c **** static void               I2S_DMATxHalfCplt(DMA_HandleTypeDef *hdma);
 174:Libraries/STM32F1xx_HAL_Driver/Src/stm32f1xx_hal_i2s.c **** static void               I2S_DMARxCplt(DMA_HandleTypeDef *hdma);
 175:Libraries/STM32F1xx_HAL_Driver/Src/stm32f1xx_hal_i2s.c **** static void               I2S_DMARxHalfCplt(DMA_HandleTypeDef *hdma);
 176:Libraries/STM32F1xx_HAL_Driver/Src/stm32f1xx_hal_i2s.c **** static void               I2S_DMAError(DMA_HandleTypeDef *hdma);
 177:Libraries/STM32F1xx_HAL_Driver/Src/stm32f1xx_hal_i2s.c **** static void               I2S_Transmit_IT(I2S_HandleTypeDef *hi2s);
 178:Libraries/STM32F1xx_HAL_Driver/Src/stm32f1xx_hal_i2s.c **** static void               I2S_Receive_IT(I2S_HandleTypeDef *hi2s);
 179:Libraries/STM32F1xx_HAL_Driver/Src/stm32f1xx_hal_i2s.c **** static void               I2S_IRQHandler(I2S_HandleTypeDef *hi2s);
 180:Libraries/STM32F1xx_HAL_Driver/Src/stm32f1xx_hal_i2s.c **** static HAL_StatusTypeDef  I2S_WaitFlagStateUntilTimeout(I2S_HandleTypeDef *hi2s, uint32_t Flag, uin
 181:Libraries/STM32F1xx_HAL_Driver/Src/stm32f1xx_hal_i2s.c ****                                                         uint32_t Timeout);
 182:Libraries/STM32F1xx_HAL_Driver/Src/stm32f1xx_hal_i2s.c **** /**
 183:Libraries/STM32F1xx_HAL_Driver/Src/stm32f1xx_hal_i2s.c ****   * @}
 184:Libraries/STM32F1xx_HAL_Driver/Src/stm32f1xx_hal_i2s.c ****   */
 185:Libraries/STM32F1xx_HAL_Driver/Src/stm32f1xx_hal_i2s.c **** 
 186:Libraries/STM32F1xx_HAL_Driver/Src/stm32f1xx_hal_i2s.c **** /* Exported functions ---------------------------------------------------------*/
 187:Libraries/STM32F1xx_HAL_Driver/Src/stm32f1xx_hal_i2s.c **** /** @defgroup I2S_Exported_Functions I2S Exported Functions
 188:Libraries/STM32F1xx_HAL_Driver/Src/stm32f1xx_hal_i2s.c ****   * @{
 189:Libraries/STM32F1xx_HAL_Driver/Src/stm32f1xx_hal_i2s.c ****   */
 190:Libraries/STM32F1xx_HAL_Driver/Src/stm32f1xx_hal_i2s.c **** 
 191:Libraries/STM32F1xx_HAL_Driver/Src/stm32f1xx_hal_i2s.c **** /** @defgroup  I2S_Exported_Functions_Group1 Initialization and de-initialization functions 
 192:Libraries/STM32F1xx_HAL_Driver/Src/stm32f1xx_hal_i2s.c ****   *  @brief    Initialization and Configuration functions
 193:Libraries/STM32F1xx_HAL_Driver/Src/stm32f1xx_hal_i2s.c ****   *
 194:Libraries/STM32F1xx_HAL_Driver/Src/stm32f1xx_hal_i2s.c **** @verbatim
 195:Libraries/STM32F1xx_HAL_Driver/Src/stm32f1xx_hal_i2s.c ****  ===============================================================================
 196:Libraries/STM32F1xx_HAL_Driver/Src/stm32f1xx_hal_i2s.c ****               ##### Initialization and de-initialization functions #####
 197:Libraries/STM32F1xx_HAL_Driver/Src/stm32f1xx_hal_i2s.c ****  ===============================================================================
 198:Libraries/STM32F1xx_HAL_Driver/Src/stm32f1xx_hal_i2s.c ****     [..]  This subsection provides a set of functions allowing to initialize and
 199:Libraries/STM32F1xx_HAL_Driver/Src/stm32f1xx_hal_i2s.c ****           de-initialize the I2Sx peripheral in simplex mode:
 200:Libraries/STM32F1xx_HAL_Driver/Src/stm32f1xx_hal_i2s.c **** 
 201:Libraries/STM32F1xx_HAL_Driver/Src/stm32f1xx_hal_i2s.c ****       (+) User must Implement HAL_I2S_MspInit() function in which he configures
 202:Libraries/STM32F1xx_HAL_Driver/Src/stm32f1xx_hal_i2s.c ****           all related peripherals resources (CLOCK, GPIO, DMA, IT and NVIC ).
 203:Libraries/STM32F1xx_HAL_Driver/Src/stm32f1xx_hal_i2s.c **** 
 204:Libraries/STM32F1xx_HAL_Driver/Src/stm32f1xx_hal_i2s.c ****       (+) Call the function HAL_I2S_Init() to configure the selected device with
 205:Libraries/STM32F1xx_HAL_Driver/Src/stm32f1xx_hal_i2s.c ****           the selected configuration:
ARM GAS  /tmp/cc1Hj1lD.s 			page 5


 206:Libraries/STM32F1xx_HAL_Driver/Src/stm32f1xx_hal_i2s.c ****         (++) Mode
 207:Libraries/STM32F1xx_HAL_Driver/Src/stm32f1xx_hal_i2s.c ****         (++) Standard
 208:Libraries/STM32F1xx_HAL_Driver/Src/stm32f1xx_hal_i2s.c ****         (++) Data Format
 209:Libraries/STM32F1xx_HAL_Driver/Src/stm32f1xx_hal_i2s.c ****         (++) MCLK Output
 210:Libraries/STM32F1xx_HAL_Driver/Src/stm32f1xx_hal_i2s.c ****         (++) Audio frequency
 211:Libraries/STM32F1xx_HAL_Driver/Src/stm32f1xx_hal_i2s.c ****         (++) Polarity
 212:Libraries/STM32F1xx_HAL_Driver/Src/stm32f1xx_hal_i2s.c **** 
 213:Libraries/STM32F1xx_HAL_Driver/Src/stm32f1xx_hal_i2s.c ****       (+) Call the function HAL_I2S_DeInit() to restore the default configuration
 214:Libraries/STM32F1xx_HAL_Driver/Src/stm32f1xx_hal_i2s.c ****           of the selected I2Sx peripheral.
 215:Libraries/STM32F1xx_HAL_Driver/Src/stm32f1xx_hal_i2s.c **** @endverbatim
 216:Libraries/STM32F1xx_HAL_Driver/Src/stm32f1xx_hal_i2s.c ****   * @{
 217:Libraries/STM32F1xx_HAL_Driver/Src/stm32f1xx_hal_i2s.c ****   */
 218:Libraries/STM32F1xx_HAL_Driver/Src/stm32f1xx_hal_i2s.c **** 
 219:Libraries/STM32F1xx_HAL_Driver/Src/stm32f1xx_hal_i2s.c **** /**
 220:Libraries/STM32F1xx_HAL_Driver/Src/stm32f1xx_hal_i2s.c ****   * @brief Initializes the I2S according to the specified parameters
 221:Libraries/STM32F1xx_HAL_Driver/Src/stm32f1xx_hal_i2s.c ****   *         in the I2S_InitTypeDef and create the associated handle.
 222:Libraries/STM32F1xx_HAL_Driver/Src/stm32f1xx_hal_i2s.c ****   * @param  hi2s: pointer to a I2S_HandleTypeDef structure that contains
 223:Libraries/STM32F1xx_HAL_Driver/Src/stm32f1xx_hal_i2s.c ****   *         the configuration information for I2S module
 224:Libraries/STM32F1xx_HAL_Driver/Src/stm32f1xx_hal_i2s.c ****   * @retval HAL status
 225:Libraries/STM32F1xx_HAL_Driver/Src/stm32f1xx_hal_i2s.c ****   */
 226:Libraries/STM32F1xx_HAL_Driver/Src/stm32f1xx_hal_i2s.c **** HAL_StatusTypeDef HAL_I2S_Init(I2S_HandleTypeDef *hi2s)
 227:Libraries/STM32F1xx_HAL_Driver/Src/stm32f1xx_hal_i2s.c **** {
 228:Libraries/STM32F1xx_HAL_Driver/Src/stm32f1xx_hal_i2s.c ****   uint32_t tmpreg = 0U, i2sdiv = 2U, i2sodd = 0U, packetlength = 16U;
 229:Libraries/STM32F1xx_HAL_Driver/Src/stm32f1xx_hal_i2s.c ****   uint32_t tmp = 0U, i2sclk = 0U;
 230:Libraries/STM32F1xx_HAL_Driver/Src/stm32f1xx_hal_i2s.c **** 
 231:Libraries/STM32F1xx_HAL_Driver/Src/stm32f1xx_hal_i2s.c ****   /* Check the I2S handle allocation */
 232:Libraries/STM32F1xx_HAL_Driver/Src/stm32f1xx_hal_i2s.c ****   if(hi2s == NULL)
 233:Libraries/STM32F1xx_HAL_Driver/Src/stm32f1xx_hal_i2s.c ****   {
 234:Libraries/STM32F1xx_HAL_Driver/Src/stm32f1xx_hal_i2s.c ****     return HAL_ERROR;
 235:Libraries/STM32F1xx_HAL_Driver/Src/stm32f1xx_hal_i2s.c ****   }
 236:Libraries/STM32F1xx_HAL_Driver/Src/stm32f1xx_hal_i2s.c **** 
 237:Libraries/STM32F1xx_HAL_Driver/Src/stm32f1xx_hal_i2s.c ****   /* Check the I2S parameters */
 238:Libraries/STM32F1xx_HAL_Driver/Src/stm32f1xx_hal_i2s.c ****   assert_param(IS_I2S_ALL_INSTANCE(hi2s->Instance));
 239:Libraries/STM32F1xx_HAL_Driver/Src/stm32f1xx_hal_i2s.c ****   assert_param(IS_I2S_MODE(hi2s->Init.Mode));
 240:Libraries/STM32F1xx_HAL_Driver/Src/stm32f1xx_hal_i2s.c ****   assert_param(IS_I2S_STANDARD(hi2s->Init.Standard));
 241:Libraries/STM32F1xx_HAL_Driver/Src/stm32f1xx_hal_i2s.c ****   assert_param(IS_I2S_DATA_FORMAT(hi2s->Init.DataFormat));
 242:Libraries/STM32F1xx_HAL_Driver/Src/stm32f1xx_hal_i2s.c ****   assert_param(IS_I2S_MCLK_OUTPUT(hi2s->Init.MCLKOutput));
 243:Libraries/STM32F1xx_HAL_Driver/Src/stm32f1xx_hal_i2s.c ****   assert_param(IS_I2S_AUDIO_FREQ(hi2s->Init.AudioFreq));
 244:Libraries/STM32F1xx_HAL_Driver/Src/stm32f1xx_hal_i2s.c ****   assert_param(IS_I2S_CPOL(hi2s->Init.CPOL));
 245:Libraries/STM32F1xx_HAL_Driver/Src/stm32f1xx_hal_i2s.c **** 
 246:Libraries/STM32F1xx_HAL_Driver/Src/stm32f1xx_hal_i2s.c ****   hi2s->State = HAL_I2S_STATE_BUSY;
 247:Libraries/STM32F1xx_HAL_Driver/Src/stm32f1xx_hal_i2s.c **** 
 248:Libraries/STM32F1xx_HAL_Driver/Src/stm32f1xx_hal_i2s.c ****   /* Initialize Default I2S IrqHandler ISR */
 249:Libraries/STM32F1xx_HAL_Driver/Src/stm32f1xx_hal_i2s.c ****   hi2s->IrqHandlerISR = I2S_IRQHandler;
 250:Libraries/STM32F1xx_HAL_Driver/Src/stm32f1xx_hal_i2s.c **** 
 251:Libraries/STM32F1xx_HAL_Driver/Src/stm32f1xx_hal_i2s.c ****   /* Init the low level hardware : GPIO, CLOCK, CORTEX...etc */
 252:Libraries/STM32F1xx_HAL_Driver/Src/stm32f1xx_hal_i2s.c ****   HAL_I2S_MspInit(hi2s);
 253:Libraries/STM32F1xx_HAL_Driver/Src/stm32f1xx_hal_i2s.c **** 
 254:Libraries/STM32F1xx_HAL_Driver/Src/stm32f1xx_hal_i2s.c ****   /*----------------------- SPIx I2SCFGR & I2SPR Configuration ---------------*/
 255:Libraries/STM32F1xx_HAL_Driver/Src/stm32f1xx_hal_i2s.c ****   /* Clear I2SMOD, I2SE, I2SCFG, PCMSYNC, I2SSTD, CKPOL, DATLEN and CHLEN bits */
 256:Libraries/STM32F1xx_HAL_Driver/Src/stm32f1xx_hal_i2s.c ****   CLEAR_BIT(hi2s->Instance->I2SCFGR,(SPI_I2SCFGR_CHLEN | SPI_I2SCFGR_DATLEN | SPI_I2SCFGR_CKPOL | \
 257:Libraries/STM32F1xx_HAL_Driver/Src/stm32f1xx_hal_i2s.c ****                                      SPI_I2SCFGR_I2SSTD | SPI_I2SCFGR_PCMSYNC | SPI_I2SCFGR_I2SCFG 
 258:Libraries/STM32F1xx_HAL_Driver/Src/stm32f1xx_hal_i2s.c ****                                      SPI_I2SCFGR_I2SE | SPI_I2SCFGR_I2SMOD));
 259:Libraries/STM32F1xx_HAL_Driver/Src/stm32f1xx_hal_i2s.c ****   hi2s->Instance->I2SPR = 0x0002U;
 260:Libraries/STM32F1xx_HAL_Driver/Src/stm32f1xx_hal_i2s.c **** 
 261:Libraries/STM32F1xx_HAL_Driver/Src/stm32f1xx_hal_i2s.c ****   /* Get the I2SCFGR register value */
 262:Libraries/STM32F1xx_HAL_Driver/Src/stm32f1xx_hal_i2s.c ****   tmpreg = hi2s->Instance->I2SCFGR;
ARM GAS  /tmp/cc1Hj1lD.s 			page 6


 263:Libraries/STM32F1xx_HAL_Driver/Src/stm32f1xx_hal_i2s.c **** 
 264:Libraries/STM32F1xx_HAL_Driver/Src/stm32f1xx_hal_i2s.c ****   /* If the default frequency value has to be written, reinitialize i2sdiv and i2sodd */
 265:Libraries/STM32F1xx_HAL_Driver/Src/stm32f1xx_hal_i2s.c ****   /* If the requested audio frequency is not the default, compute the prescaler */
 266:Libraries/STM32F1xx_HAL_Driver/Src/stm32f1xx_hal_i2s.c ****   if(hi2s->Init.AudioFreq != I2S_AUDIOFREQ_DEFAULT)
 267:Libraries/STM32F1xx_HAL_Driver/Src/stm32f1xx_hal_i2s.c ****   {
 268:Libraries/STM32F1xx_HAL_Driver/Src/stm32f1xx_hal_i2s.c ****     /* Check the frame length (For the Prescaler computing) *******************/
 269:Libraries/STM32F1xx_HAL_Driver/Src/stm32f1xx_hal_i2s.c ****     /* Set I2S Packet Length value*/
 270:Libraries/STM32F1xx_HAL_Driver/Src/stm32f1xx_hal_i2s.c ****     if(hi2s->Init.DataFormat != I2S_DATAFORMAT_16B)
 271:Libraries/STM32F1xx_HAL_Driver/Src/stm32f1xx_hal_i2s.c ****     {
 272:Libraries/STM32F1xx_HAL_Driver/Src/stm32f1xx_hal_i2s.c ****       /* Packet length is 32 bits */
 273:Libraries/STM32F1xx_HAL_Driver/Src/stm32f1xx_hal_i2s.c ****       packetlength = 32U;
 274:Libraries/STM32F1xx_HAL_Driver/Src/stm32f1xx_hal_i2s.c ****     }
 275:Libraries/STM32F1xx_HAL_Driver/Src/stm32f1xx_hal_i2s.c ****     else
 276:Libraries/STM32F1xx_HAL_Driver/Src/stm32f1xx_hal_i2s.c ****     {
 277:Libraries/STM32F1xx_HAL_Driver/Src/stm32f1xx_hal_i2s.c ****       /* Packet length is 16 bits */
 278:Libraries/STM32F1xx_HAL_Driver/Src/stm32f1xx_hal_i2s.c ****       packetlength = 16U;
 279:Libraries/STM32F1xx_HAL_Driver/Src/stm32f1xx_hal_i2s.c ****     }
 280:Libraries/STM32F1xx_HAL_Driver/Src/stm32f1xx_hal_i2s.c **** 
 281:Libraries/STM32F1xx_HAL_Driver/Src/stm32f1xx_hal_i2s.c ****     /* I2S standard */
 282:Libraries/STM32F1xx_HAL_Driver/Src/stm32f1xx_hal_i2s.c ****     if(hi2s->Init.Standard <= I2S_STANDARD_LSB)
 283:Libraries/STM32F1xx_HAL_Driver/Src/stm32f1xx_hal_i2s.c ****     {
 284:Libraries/STM32F1xx_HAL_Driver/Src/stm32f1xx_hal_i2s.c ****       /* In I2S standard packet lenght is multiplied by 2 */
 285:Libraries/STM32F1xx_HAL_Driver/Src/stm32f1xx_hal_i2s.c ****       packetlength = packetlength * 2U;
 286:Libraries/STM32F1xx_HAL_Driver/Src/stm32f1xx_hal_i2s.c ****     }
 287:Libraries/STM32F1xx_HAL_Driver/Src/stm32f1xx_hal_i2s.c **** 
 288:Libraries/STM32F1xx_HAL_Driver/Src/stm32f1xx_hal_i2s.c ****     if(hi2s->Instance == SPI2)
 289:Libraries/STM32F1xx_HAL_Driver/Src/stm32f1xx_hal_i2s.c ****     {
 290:Libraries/STM32F1xx_HAL_Driver/Src/stm32f1xx_hal_i2s.c ****       /* Get the source clock value: based on SPI2 Instance */
 291:Libraries/STM32F1xx_HAL_Driver/Src/stm32f1xx_hal_i2s.c ****       i2sclk = HAL_RCCEx_GetPeriphCLKFreq(RCC_PERIPHCLK_I2S2);
 292:Libraries/STM32F1xx_HAL_Driver/Src/stm32f1xx_hal_i2s.c ****     }
 293:Libraries/STM32F1xx_HAL_Driver/Src/stm32f1xx_hal_i2s.c ****     else if(hi2s->Instance == SPI3)
 294:Libraries/STM32F1xx_HAL_Driver/Src/stm32f1xx_hal_i2s.c ****     {
 295:Libraries/STM32F1xx_HAL_Driver/Src/stm32f1xx_hal_i2s.c ****       /* Get the source clock value: based on SPI3 Instance */
 296:Libraries/STM32F1xx_HAL_Driver/Src/stm32f1xx_hal_i2s.c ****       i2sclk = HAL_RCCEx_GetPeriphCLKFreq(RCC_PERIPHCLK_I2S3);
 297:Libraries/STM32F1xx_HAL_Driver/Src/stm32f1xx_hal_i2s.c ****     }
 298:Libraries/STM32F1xx_HAL_Driver/Src/stm32f1xx_hal_i2s.c ****     else
 299:Libraries/STM32F1xx_HAL_Driver/Src/stm32f1xx_hal_i2s.c ****     {
 300:Libraries/STM32F1xx_HAL_Driver/Src/stm32f1xx_hal_i2s.c ****       /* Get the source clock value: based on System Clock value */
 301:Libraries/STM32F1xx_HAL_Driver/Src/stm32f1xx_hal_i2s.c ****       i2sclk = HAL_RCC_GetSysClockFreq();
 302:Libraries/STM32F1xx_HAL_Driver/Src/stm32f1xx_hal_i2s.c ****     }
 303:Libraries/STM32F1xx_HAL_Driver/Src/stm32f1xx_hal_i2s.c **** 
 304:Libraries/STM32F1xx_HAL_Driver/Src/stm32f1xx_hal_i2s.c ****     /* Compute the Real divider depending on the MCLK output state, with a floating point */
 305:Libraries/STM32F1xx_HAL_Driver/Src/stm32f1xx_hal_i2s.c ****     if(hi2s->Init.MCLKOutput == I2S_MCLKOUTPUT_ENABLE)
 306:Libraries/STM32F1xx_HAL_Driver/Src/stm32f1xx_hal_i2s.c ****     {
 307:Libraries/STM32F1xx_HAL_Driver/Src/stm32f1xx_hal_i2s.c ****       /* MCLK output is enabled */
 308:Libraries/STM32F1xx_HAL_Driver/Src/stm32f1xx_hal_i2s.c ****       if (hi2s->Init.DataFormat != I2S_DATAFORMAT_16B)
 309:Libraries/STM32F1xx_HAL_Driver/Src/stm32f1xx_hal_i2s.c ****       {
 310:Libraries/STM32F1xx_HAL_Driver/Src/stm32f1xx_hal_i2s.c ****         tmp = (uint32_t)(((((i2sclk / (packetlength*4)) * 10) / hi2s->Init.AudioFreq)) + 5);
 311:Libraries/STM32F1xx_HAL_Driver/Src/stm32f1xx_hal_i2s.c ****       }
 312:Libraries/STM32F1xx_HAL_Driver/Src/stm32f1xx_hal_i2s.c ****       else
 313:Libraries/STM32F1xx_HAL_Driver/Src/stm32f1xx_hal_i2s.c ****       {
 314:Libraries/STM32F1xx_HAL_Driver/Src/stm32f1xx_hal_i2s.c ****         tmp = (uint32_t)(((((i2sclk / (packetlength*8)) * 10) / hi2s->Init.AudioFreq)) + 5);
 315:Libraries/STM32F1xx_HAL_Driver/Src/stm32f1xx_hal_i2s.c ****       }
 316:Libraries/STM32F1xx_HAL_Driver/Src/stm32f1xx_hal_i2s.c ****     }
 317:Libraries/STM32F1xx_HAL_Driver/Src/stm32f1xx_hal_i2s.c ****     else
 318:Libraries/STM32F1xx_HAL_Driver/Src/stm32f1xx_hal_i2s.c ****     {
 319:Libraries/STM32F1xx_HAL_Driver/Src/stm32f1xx_hal_i2s.c ****       /* MCLK output is disabled */
ARM GAS  /tmp/cc1Hj1lD.s 			page 7


 320:Libraries/STM32F1xx_HAL_Driver/Src/stm32f1xx_hal_i2s.c ****       tmp = (uint32_t)(((((i2sclk / packetlength) *10 ) / hi2s->Init.AudioFreq)) + 5);
 321:Libraries/STM32F1xx_HAL_Driver/Src/stm32f1xx_hal_i2s.c ****     }
 322:Libraries/STM32F1xx_HAL_Driver/Src/stm32f1xx_hal_i2s.c **** 
 323:Libraries/STM32F1xx_HAL_Driver/Src/stm32f1xx_hal_i2s.c ****     /* Remove the flatting point */
 324:Libraries/STM32F1xx_HAL_Driver/Src/stm32f1xx_hal_i2s.c ****     tmp = tmp / 10U;
 325:Libraries/STM32F1xx_HAL_Driver/Src/stm32f1xx_hal_i2s.c **** 
 326:Libraries/STM32F1xx_HAL_Driver/Src/stm32f1xx_hal_i2s.c ****     /* Check the parity of the divider */
 327:Libraries/STM32F1xx_HAL_Driver/Src/stm32f1xx_hal_i2s.c ****     i2sodd = (uint16_t)(tmp & (uint16_t)1U);
 328:Libraries/STM32F1xx_HAL_Driver/Src/stm32f1xx_hal_i2s.c **** 
 329:Libraries/STM32F1xx_HAL_Driver/Src/stm32f1xx_hal_i2s.c ****     /* Compute the i2sdiv prescaler */
 330:Libraries/STM32F1xx_HAL_Driver/Src/stm32f1xx_hal_i2s.c ****     i2sdiv = (uint16_t)((tmp - i2sodd) / 2U);
 331:Libraries/STM32F1xx_HAL_Driver/Src/stm32f1xx_hal_i2s.c **** 
 332:Libraries/STM32F1xx_HAL_Driver/Src/stm32f1xx_hal_i2s.c ****     /* Get the Mask for the Odd bit (SPI_I2SPR[8]) register */
 333:Libraries/STM32F1xx_HAL_Driver/Src/stm32f1xx_hal_i2s.c ****     i2sodd = (uint32_t) (i2sodd << 8U);
 334:Libraries/STM32F1xx_HAL_Driver/Src/stm32f1xx_hal_i2s.c ****   }
 335:Libraries/STM32F1xx_HAL_Driver/Src/stm32f1xx_hal_i2s.c **** 
 336:Libraries/STM32F1xx_HAL_Driver/Src/stm32f1xx_hal_i2s.c ****   /* Test if the divider is 1 or 0 or greater than 0xFF */
 337:Libraries/STM32F1xx_HAL_Driver/Src/stm32f1xx_hal_i2s.c ****   if((i2sdiv < 2U) || (i2sdiv > 0xFFU))
 338:Libraries/STM32F1xx_HAL_Driver/Src/stm32f1xx_hal_i2s.c ****   {
 339:Libraries/STM32F1xx_HAL_Driver/Src/stm32f1xx_hal_i2s.c ****     /* Set the default values */
 340:Libraries/STM32F1xx_HAL_Driver/Src/stm32f1xx_hal_i2s.c ****     i2sdiv = 2U;
 341:Libraries/STM32F1xx_HAL_Driver/Src/stm32f1xx_hal_i2s.c ****     i2sodd = 0U;
 342:Libraries/STM32F1xx_HAL_Driver/Src/stm32f1xx_hal_i2s.c **** 
 343:Libraries/STM32F1xx_HAL_Driver/Src/stm32f1xx_hal_i2s.c ****     /* Set the error code and execute error callback*/
 344:Libraries/STM32F1xx_HAL_Driver/Src/stm32f1xx_hal_i2s.c ****     SET_BIT(hi2s->ErrorCode, HAL_I2S_ERROR_PRESCALER);
 345:Libraries/STM32F1xx_HAL_Driver/Src/stm32f1xx_hal_i2s.c ****     HAL_I2S_ErrorCallback(hi2s);
 346:Libraries/STM32F1xx_HAL_Driver/Src/stm32f1xx_hal_i2s.c ****     return  HAL_ERROR;
 347:Libraries/STM32F1xx_HAL_Driver/Src/stm32f1xx_hal_i2s.c ****   }
 348:Libraries/STM32F1xx_HAL_Driver/Src/stm32f1xx_hal_i2s.c **** 
 349:Libraries/STM32F1xx_HAL_Driver/Src/stm32f1xx_hal_i2s.c ****   /* Write to SPIx I2SPR register the computed value */
 350:Libraries/STM32F1xx_HAL_Driver/Src/stm32f1xx_hal_i2s.c ****   hi2s->Instance->I2SPR = (uint32_t)((uint32_t)i2sdiv | (uint32_t)(i2sodd | (uint32_t)hi2s->Init.MC
 351:Libraries/STM32F1xx_HAL_Driver/Src/stm32f1xx_hal_i2s.c **** 
 352:Libraries/STM32F1xx_HAL_Driver/Src/stm32f1xx_hal_i2s.c ****   /* Configure the I2S with the I2S_InitStruct values */
 353:Libraries/STM32F1xx_HAL_Driver/Src/stm32f1xx_hal_i2s.c ****   tmpreg |= (uint16_t)((uint16_t)SPI_I2SCFGR_I2SMOD | (uint16_t)(hi2s->Init.Mode | \
 354:Libraries/STM32F1xx_HAL_Driver/Src/stm32f1xx_hal_i2s.c ****                        (uint16_t)(hi2s->Init.Standard | (uint16_t)(hi2s->Init.DataFormat | \
 355:Libraries/STM32F1xx_HAL_Driver/Src/stm32f1xx_hal_i2s.c ****                        (uint16_t)hi2s->Init.CPOL))));
 356:Libraries/STM32F1xx_HAL_Driver/Src/stm32f1xx_hal_i2s.c ****   /* Write to SPIx I2SCFGR */
 357:Libraries/STM32F1xx_HAL_Driver/Src/stm32f1xx_hal_i2s.c ****     WRITE_REG(hi2s->Instance->I2SCFGR,tmpreg);
 358:Libraries/STM32F1xx_HAL_Driver/Src/stm32f1xx_hal_i2s.c ****   hi2s->ErrorCode = HAL_I2S_ERROR_NONE;
 359:Libraries/STM32F1xx_HAL_Driver/Src/stm32f1xx_hal_i2s.c ****   hi2s->State     = HAL_I2S_STATE_READY;
 360:Libraries/STM32F1xx_HAL_Driver/Src/stm32f1xx_hal_i2s.c **** 
 361:Libraries/STM32F1xx_HAL_Driver/Src/stm32f1xx_hal_i2s.c ****   return HAL_OK;
 362:Libraries/STM32F1xx_HAL_Driver/Src/stm32f1xx_hal_i2s.c **** }
 363:Libraries/STM32F1xx_HAL_Driver/Src/stm32f1xx_hal_i2s.c **** 
 364:Libraries/STM32F1xx_HAL_Driver/Src/stm32f1xx_hal_i2s.c **** /**
 365:Libraries/STM32F1xx_HAL_Driver/Src/stm32f1xx_hal_i2s.c ****   * @brief DeInitializes the I2S peripheral
 366:Libraries/STM32F1xx_HAL_Driver/Src/stm32f1xx_hal_i2s.c ****   * @param  hi2s: pointer to a I2S_HandleTypeDef structure that contains
 367:Libraries/STM32F1xx_HAL_Driver/Src/stm32f1xx_hal_i2s.c ****   *         the configuration information for I2S module
 368:Libraries/STM32F1xx_HAL_Driver/Src/stm32f1xx_hal_i2s.c ****   * @retval HAL status
 369:Libraries/STM32F1xx_HAL_Driver/Src/stm32f1xx_hal_i2s.c ****   */
 370:Libraries/STM32F1xx_HAL_Driver/Src/stm32f1xx_hal_i2s.c **** HAL_StatusTypeDef HAL_I2S_DeInit(I2S_HandleTypeDef *hi2s)
 371:Libraries/STM32F1xx_HAL_Driver/Src/stm32f1xx_hal_i2s.c **** {
 372:Libraries/STM32F1xx_HAL_Driver/Src/stm32f1xx_hal_i2s.c ****   /* Check the I2S handle allocation */
 373:Libraries/STM32F1xx_HAL_Driver/Src/stm32f1xx_hal_i2s.c ****   if(hi2s == NULL)
 374:Libraries/STM32F1xx_HAL_Driver/Src/stm32f1xx_hal_i2s.c ****   {
 375:Libraries/STM32F1xx_HAL_Driver/Src/stm32f1xx_hal_i2s.c ****     return HAL_ERROR;
 376:Libraries/STM32F1xx_HAL_Driver/Src/stm32f1xx_hal_i2s.c ****   }
ARM GAS  /tmp/cc1Hj1lD.s 			page 8


 377:Libraries/STM32F1xx_HAL_Driver/Src/stm32f1xx_hal_i2s.c **** 
 378:Libraries/STM32F1xx_HAL_Driver/Src/stm32f1xx_hal_i2s.c ****   hi2s->State = HAL_I2S_STATE_BUSY;
 379:Libraries/STM32F1xx_HAL_Driver/Src/stm32f1xx_hal_i2s.c **** 
 380:Libraries/STM32F1xx_HAL_Driver/Src/stm32f1xx_hal_i2s.c ****   /* DeInit the low level hardware: GPIO, CLOCK, NVIC... */
 381:Libraries/STM32F1xx_HAL_Driver/Src/stm32f1xx_hal_i2s.c ****   HAL_I2S_MspDeInit(hi2s);
 382:Libraries/STM32F1xx_HAL_Driver/Src/stm32f1xx_hal_i2s.c **** 
 383:Libraries/STM32F1xx_HAL_Driver/Src/stm32f1xx_hal_i2s.c ****   hi2s->ErrorCode = HAL_I2S_ERROR_NONE;
 384:Libraries/STM32F1xx_HAL_Driver/Src/stm32f1xx_hal_i2s.c ****   hi2s->State     = HAL_I2S_STATE_RESET;
 385:Libraries/STM32F1xx_HAL_Driver/Src/stm32f1xx_hal_i2s.c **** 
 386:Libraries/STM32F1xx_HAL_Driver/Src/stm32f1xx_hal_i2s.c ****   /* Release Lock */
 387:Libraries/STM32F1xx_HAL_Driver/Src/stm32f1xx_hal_i2s.c ****   __HAL_UNLOCK(hi2s);
 388:Libraries/STM32F1xx_HAL_Driver/Src/stm32f1xx_hal_i2s.c **** 
 389:Libraries/STM32F1xx_HAL_Driver/Src/stm32f1xx_hal_i2s.c ****   return HAL_OK;
 390:Libraries/STM32F1xx_HAL_Driver/Src/stm32f1xx_hal_i2s.c **** }
 391:Libraries/STM32F1xx_HAL_Driver/Src/stm32f1xx_hal_i2s.c **** 
 392:Libraries/STM32F1xx_HAL_Driver/Src/stm32f1xx_hal_i2s.c **** /**
 393:Libraries/STM32F1xx_HAL_Driver/Src/stm32f1xx_hal_i2s.c ****   * @brief I2S MSP Init
 394:Libraries/STM32F1xx_HAL_Driver/Src/stm32f1xx_hal_i2s.c ****   * @param  hi2s: pointer to a I2S_HandleTypeDef structure that contains
 395:Libraries/STM32F1xx_HAL_Driver/Src/stm32f1xx_hal_i2s.c ****   *         the configuration information for I2S module
 396:Libraries/STM32F1xx_HAL_Driver/Src/stm32f1xx_hal_i2s.c ****   * @retval None
 397:Libraries/STM32F1xx_HAL_Driver/Src/stm32f1xx_hal_i2s.c ****   */
 398:Libraries/STM32F1xx_HAL_Driver/Src/stm32f1xx_hal_i2s.c ****  __weak void HAL_I2S_MspInit(I2S_HandleTypeDef *hi2s)
 399:Libraries/STM32F1xx_HAL_Driver/Src/stm32f1xx_hal_i2s.c **** {
 400:Libraries/STM32F1xx_HAL_Driver/Src/stm32f1xx_hal_i2s.c ****   /* Prevent unused argument(s) compilation warning */
 401:Libraries/STM32F1xx_HAL_Driver/Src/stm32f1xx_hal_i2s.c ****   UNUSED(hi2s);
 402:Libraries/STM32F1xx_HAL_Driver/Src/stm32f1xx_hal_i2s.c ****   /* NOTE : This function Should not be modified, when the callback is needed,
 403:Libraries/STM32F1xx_HAL_Driver/Src/stm32f1xx_hal_i2s.c ****             the HAL_I2S_MspInit could be implemented in the user file
 404:Libraries/STM32F1xx_HAL_Driver/Src/stm32f1xx_hal_i2s.c ****    */
 405:Libraries/STM32F1xx_HAL_Driver/Src/stm32f1xx_hal_i2s.c **** }
 406:Libraries/STM32F1xx_HAL_Driver/Src/stm32f1xx_hal_i2s.c **** 
 407:Libraries/STM32F1xx_HAL_Driver/Src/stm32f1xx_hal_i2s.c **** /**
 408:Libraries/STM32F1xx_HAL_Driver/Src/stm32f1xx_hal_i2s.c ****   * @brief I2S MSP DeInit
 409:Libraries/STM32F1xx_HAL_Driver/Src/stm32f1xx_hal_i2s.c ****   * @param  hi2s: pointer to a I2S_HandleTypeDef structure that contains
 410:Libraries/STM32F1xx_HAL_Driver/Src/stm32f1xx_hal_i2s.c ****   *         the configuration information for I2S module
 411:Libraries/STM32F1xx_HAL_Driver/Src/stm32f1xx_hal_i2s.c ****   * @retval None
 412:Libraries/STM32F1xx_HAL_Driver/Src/stm32f1xx_hal_i2s.c ****   */
 413:Libraries/STM32F1xx_HAL_Driver/Src/stm32f1xx_hal_i2s.c ****  __weak void HAL_I2S_MspDeInit(I2S_HandleTypeDef *hi2s)
 414:Libraries/STM32F1xx_HAL_Driver/Src/stm32f1xx_hal_i2s.c **** {
 415:Libraries/STM32F1xx_HAL_Driver/Src/stm32f1xx_hal_i2s.c ****   /* Prevent unused argument(s) compilation warning */
 416:Libraries/STM32F1xx_HAL_Driver/Src/stm32f1xx_hal_i2s.c ****   UNUSED(hi2s);
 417:Libraries/STM32F1xx_HAL_Driver/Src/stm32f1xx_hal_i2s.c ****   /* NOTE : This function Should not be modified, when the callback is needed,
 418:Libraries/STM32F1xx_HAL_Driver/Src/stm32f1xx_hal_i2s.c ****             the HAL_I2S_MspDeInit could be implemented in the user file
 419:Libraries/STM32F1xx_HAL_Driver/Src/stm32f1xx_hal_i2s.c ****    */
 420:Libraries/STM32F1xx_HAL_Driver/Src/stm32f1xx_hal_i2s.c **** }
 421:Libraries/STM32F1xx_HAL_Driver/Src/stm32f1xx_hal_i2s.c **** /**
 422:Libraries/STM32F1xx_HAL_Driver/Src/stm32f1xx_hal_i2s.c ****   * @}
 423:Libraries/STM32F1xx_HAL_Driver/Src/stm32f1xx_hal_i2s.c ****   */
 424:Libraries/STM32F1xx_HAL_Driver/Src/stm32f1xx_hal_i2s.c **** 
 425:Libraries/STM32F1xx_HAL_Driver/Src/stm32f1xx_hal_i2s.c **** /** @defgroup I2S_Exported_Functions_Group2 IO operation functions 
 426:Libraries/STM32F1xx_HAL_Driver/Src/stm32f1xx_hal_i2s.c ****   *  @brief Data transfers functions 
 427:Libraries/STM32F1xx_HAL_Driver/Src/stm32f1xx_hal_i2s.c ****   *
 428:Libraries/STM32F1xx_HAL_Driver/Src/stm32f1xx_hal_i2s.c **** @verbatim
 429:Libraries/STM32F1xx_HAL_Driver/Src/stm32f1xx_hal_i2s.c ****  ===============================================================================
 430:Libraries/STM32F1xx_HAL_Driver/Src/stm32f1xx_hal_i2s.c ****                       ##### IO operation functions #####
 431:Libraries/STM32F1xx_HAL_Driver/Src/stm32f1xx_hal_i2s.c ****  ===============================================================================
 432:Libraries/STM32F1xx_HAL_Driver/Src/stm32f1xx_hal_i2s.c ****     [..]
 433:Libraries/STM32F1xx_HAL_Driver/Src/stm32f1xx_hal_i2s.c ****     This subsection provides a set of functions allowing to manage the I2S data
ARM GAS  /tmp/cc1Hj1lD.s 			page 9


 434:Libraries/STM32F1xx_HAL_Driver/Src/stm32f1xx_hal_i2s.c ****     transfers.
 435:Libraries/STM32F1xx_HAL_Driver/Src/stm32f1xx_hal_i2s.c **** 
 436:Libraries/STM32F1xx_HAL_Driver/Src/stm32f1xx_hal_i2s.c ****     (#) There are two modes of transfer:
 437:Libraries/STM32F1xx_HAL_Driver/Src/stm32f1xx_hal_i2s.c ****        (++) Blocking mode : The communication is performed in the polling mode.
 438:Libraries/STM32F1xx_HAL_Driver/Src/stm32f1xx_hal_i2s.c ****             The status of all data processing is returned by the same function
 439:Libraries/STM32F1xx_HAL_Driver/Src/stm32f1xx_hal_i2s.c ****             after finishing transfer.
 440:Libraries/STM32F1xx_HAL_Driver/Src/stm32f1xx_hal_i2s.c ****        (++) No-Blocking mode : The communication is performed using Interrupts
 441:Libraries/STM32F1xx_HAL_Driver/Src/stm32f1xx_hal_i2s.c ****             or DMA. These functions return the status of the transfer startup.
 442:Libraries/STM32F1xx_HAL_Driver/Src/stm32f1xx_hal_i2s.c ****             The end of the data processing will be indicated through the
 443:Libraries/STM32F1xx_HAL_Driver/Src/stm32f1xx_hal_i2s.c ****             dedicated I2S IRQ when using Interrupt mode or the DMA IRQ when
 444:Libraries/STM32F1xx_HAL_Driver/Src/stm32f1xx_hal_i2s.c ****             using DMA mode.
 445:Libraries/STM32F1xx_HAL_Driver/Src/stm32f1xx_hal_i2s.c **** 
 446:Libraries/STM32F1xx_HAL_Driver/Src/stm32f1xx_hal_i2s.c ****     (#) Blocking mode functions are :
 447:Libraries/STM32F1xx_HAL_Driver/Src/stm32f1xx_hal_i2s.c ****         (++) HAL_I2S_Transmit()
 448:Libraries/STM32F1xx_HAL_Driver/Src/stm32f1xx_hal_i2s.c ****         (++) HAL_I2S_Receive()
 449:Libraries/STM32F1xx_HAL_Driver/Src/stm32f1xx_hal_i2s.c **** 
 450:Libraries/STM32F1xx_HAL_Driver/Src/stm32f1xx_hal_i2s.c ****     (#) No-Blocking mode functions with Interrupt are :
 451:Libraries/STM32F1xx_HAL_Driver/Src/stm32f1xx_hal_i2s.c ****         (++) HAL_I2S_Transmit_IT()
 452:Libraries/STM32F1xx_HAL_Driver/Src/stm32f1xx_hal_i2s.c ****         (++) HAL_I2S_Receive_IT()
 453:Libraries/STM32F1xx_HAL_Driver/Src/stm32f1xx_hal_i2s.c **** 
 454:Libraries/STM32F1xx_HAL_Driver/Src/stm32f1xx_hal_i2s.c ****     (#) No-Blocking mode functions with DMA are :
 455:Libraries/STM32F1xx_HAL_Driver/Src/stm32f1xx_hal_i2s.c ****         (++) HAL_I2S_Transmit_DMA()
 456:Libraries/STM32F1xx_HAL_Driver/Src/stm32f1xx_hal_i2s.c ****         (++) HAL_I2S_Receive_DMA()
 457:Libraries/STM32F1xx_HAL_Driver/Src/stm32f1xx_hal_i2s.c **** 
 458:Libraries/STM32F1xx_HAL_Driver/Src/stm32f1xx_hal_i2s.c ****     (#) A set of Transfer Complete Callbacks are provided in non Blocking mode:
 459:Libraries/STM32F1xx_HAL_Driver/Src/stm32f1xx_hal_i2s.c ****         (++) HAL_I2S_TxCpltCallback()
 460:Libraries/STM32F1xx_HAL_Driver/Src/stm32f1xx_hal_i2s.c ****         (++) HAL_I2S_RxCpltCallback()
 461:Libraries/STM32F1xx_HAL_Driver/Src/stm32f1xx_hal_i2s.c ****         (++) HAL_I2S_ErrorCallback()
 462:Libraries/STM32F1xx_HAL_Driver/Src/stm32f1xx_hal_i2s.c **** 
 463:Libraries/STM32F1xx_HAL_Driver/Src/stm32f1xx_hal_i2s.c **** @endverbatim
 464:Libraries/STM32F1xx_HAL_Driver/Src/stm32f1xx_hal_i2s.c ****   * @{
 465:Libraries/STM32F1xx_HAL_Driver/Src/stm32f1xx_hal_i2s.c ****   */
 466:Libraries/STM32F1xx_HAL_Driver/Src/stm32f1xx_hal_i2s.c **** 
 467:Libraries/STM32F1xx_HAL_Driver/Src/stm32f1xx_hal_i2s.c **** /**
 468:Libraries/STM32F1xx_HAL_Driver/Src/stm32f1xx_hal_i2s.c ****   * @brief Transmit an amount of data in blocking mode
 469:Libraries/STM32F1xx_HAL_Driver/Src/stm32f1xx_hal_i2s.c ****   * @param  hi2s: pointer to a I2S_HandleTypeDef structure that contains
 470:Libraries/STM32F1xx_HAL_Driver/Src/stm32f1xx_hal_i2s.c ****   *         the configuration information for I2S module
 471:Libraries/STM32F1xx_HAL_Driver/Src/stm32f1xx_hal_i2s.c ****   * @param pData: a 16-bit pointer to data buffer.
 472:Libraries/STM32F1xx_HAL_Driver/Src/stm32f1xx_hal_i2s.c ****   * @param Size: number of data sample to be sent:
 473:Libraries/STM32F1xx_HAL_Driver/Src/stm32f1xx_hal_i2s.c ****   * @note When a 16-bit data frame or a 16-bit data frame extended is selected during the I2S
 474:Libraries/STM32F1xx_HAL_Driver/Src/stm32f1xx_hal_i2s.c ****   *       configuration phase, the Size parameter means the number of 16-bit data length
 475:Libraries/STM32F1xx_HAL_Driver/Src/stm32f1xx_hal_i2s.c ****   *       in the transaction and when a 24-bit data frame or a 32-bit data frame is selected
 476:Libraries/STM32F1xx_HAL_Driver/Src/stm32f1xx_hal_i2s.c ****   *       the Size parameter means the number of 16-bit data length.
 477:Libraries/STM32F1xx_HAL_Driver/Src/stm32f1xx_hal_i2s.c ****   * @param  Timeout: Timeout duration
 478:Libraries/STM32F1xx_HAL_Driver/Src/stm32f1xx_hal_i2s.c ****   * @note The I2S is kept enabled at the end of transaction to avoid the clock de-synchronization
 479:Libraries/STM32F1xx_HAL_Driver/Src/stm32f1xx_hal_i2s.c ****   *       between Master and Slave(example: audio streaming).
 480:Libraries/STM32F1xx_HAL_Driver/Src/stm32f1xx_hal_i2s.c ****   * @retval HAL status
 481:Libraries/STM32F1xx_HAL_Driver/Src/stm32f1xx_hal_i2s.c ****   */
 482:Libraries/STM32F1xx_HAL_Driver/Src/stm32f1xx_hal_i2s.c **** HAL_StatusTypeDef HAL_I2S_Transmit(I2S_HandleTypeDef *hi2s, uint16_t *pData, uint16_t Size, uint32_
 483:Libraries/STM32F1xx_HAL_Driver/Src/stm32f1xx_hal_i2s.c **** {
 484:Libraries/STM32F1xx_HAL_Driver/Src/stm32f1xx_hal_i2s.c ****   uint32_t tmp1 = 0U;
 485:Libraries/STM32F1xx_HAL_Driver/Src/stm32f1xx_hal_i2s.c **** 
 486:Libraries/STM32F1xx_HAL_Driver/Src/stm32f1xx_hal_i2s.c ****   if((pData == NULL ) || (Size == 0U))
 487:Libraries/STM32F1xx_HAL_Driver/Src/stm32f1xx_hal_i2s.c ****   {
 488:Libraries/STM32F1xx_HAL_Driver/Src/stm32f1xx_hal_i2s.c ****     return  HAL_ERROR;
 489:Libraries/STM32F1xx_HAL_Driver/Src/stm32f1xx_hal_i2s.c ****   }
 490:Libraries/STM32F1xx_HAL_Driver/Src/stm32f1xx_hal_i2s.c **** 
ARM GAS  /tmp/cc1Hj1lD.s 			page 10


 491:Libraries/STM32F1xx_HAL_Driver/Src/stm32f1xx_hal_i2s.c ****   if(hi2s->State == HAL_I2S_STATE_READY)
 492:Libraries/STM32F1xx_HAL_Driver/Src/stm32f1xx_hal_i2s.c ****   {
 493:Libraries/STM32F1xx_HAL_Driver/Src/stm32f1xx_hal_i2s.c ****     tmp1 = hi2s->Instance->I2SCFGR & (SPI_I2SCFGR_DATLEN | SPI_I2SCFGR_CHLEN);
 494:Libraries/STM32F1xx_HAL_Driver/Src/stm32f1xx_hal_i2s.c **** 
 495:Libraries/STM32F1xx_HAL_Driver/Src/stm32f1xx_hal_i2s.c ****     if((tmp1 == I2S_DATAFORMAT_24B) || (tmp1 == I2S_DATAFORMAT_32B))
 496:Libraries/STM32F1xx_HAL_Driver/Src/stm32f1xx_hal_i2s.c ****     {
 497:Libraries/STM32F1xx_HAL_Driver/Src/stm32f1xx_hal_i2s.c ****       hi2s->TxXferSize  = (Size << 1U);
 498:Libraries/STM32F1xx_HAL_Driver/Src/stm32f1xx_hal_i2s.c ****       hi2s->TxXferCount = (Size << 1U);
 499:Libraries/STM32F1xx_HAL_Driver/Src/stm32f1xx_hal_i2s.c ****     }
 500:Libraries/STM32F1xx_HAL_Driver/Src/stm32f1xx_hal_i2s.c ****     else
 501:Libraries/STM32F1xx_HAL_Driver/Src/stm32f1xx_hal_i2s.c ****     {
 502:Libraries/STM32F1xx_HAL_Driver/Src/stm32f1xx_hal_i2s.c ****       hi2s->TxXferSize  = Size;
 503:Libraries/STM32F1xx_HAL_Driver/Src/stm32f1xx_hal_i2s.c ****       hi2s->TxXferCount = Size;
 504:Libraries/STM32F1xx_HAL_Driver/Src/stm32f1xx_hal_i2s.c ****     }
 505:Libraries/STM32F1xx_HAL_Driver/Src/stm32f1xx_hal_i2s.c **** 
 506:Libraries/STM32F1xx_HAL_Driver/Src/stm32f1xx_hal_i2s.c ****     /* Process Locked */
 507:Libraries/STM32F1xx_HAL_Driver/Src/stm32f1xx_hal_i2s.c ****     __HAL_LOCK(hi2s);
 508:Libraries/STM32F1xx_HAL_Driver/Src/stm32f1xx_hal_i2s.c **** 
 509:Libraries/STM32F1xx_HAL_Driver/Src/stm32f1xx_hal_i2s.c ****     hi2s->ErrorCode = HAL_I2S_ERROR_NONE;
 510:Libraries/STM32F1xx_HAL_Driver/Src/stm32f1xx_hal_i2s.c ****     hi2s->State     = HAL_I2S_STATE_BUSY_TX;
 511:Libraries/STM32F1xx_HAL_Driver/Src/stm32f1xx_hal_i2s.c **** 
 512:Libraries/STM32F1xx_HAL_Driver/Src/stm32f1xx_hal_i2s.c ****     /* Check if the I2S is already enabled */
 513:Libraries/STM32F1xx_HAL_Driver/Src/stm32f1xx_hal_i2s.c ****     if((hi2s->Instance->I2SCFGR &SPI_I2SCFGR_I2SE) != SPI_I2SCFGR_I2SE)
 514:Libraries/STM32F1xx_HAL_Driver/Src/stm32f1xx_hal_i2s.c ****     {
 515:Libraries/STM32F1xx_HAL_Driver/Src/stm32f1xx_hal_i2s.c ****       /* Enable I2S peripheral */
 516:Libraries/STM32F1xx_HAL_Driver/Src/stm32f1xx_hal_i2s.c ****       __HAL_I2S_ENABLE(hi2s);
 517:Libraries/STM32F1xx_HAL_Driver/Src/stm32f1xx_hal_i2s.c ****     }
 518:Libraries/STM32F1xx_HAL_Driver/Src/stm32f1xx_hal_i2s.c **** 
 519:Libraries/STM32F1xx_HAL_Driver/Src/stm32f1xx_hal_i2s.c ****     while(hi2s->TxXferCount > 0U)
 520:Libraries/STM32F1xx_HAL_Driver/Src/stm32f1xx_hal_i2s.c ****     {
 521:Libraries/STM32F1xx_HAL_Driver/Src/stm32f1xx_hal_i2s.c ****       hi2s->Instance->DR = (*pData++);
 522:Libraries/STM32F1xx_HAL_Driver/Src/stm32f1xx_hal_i2s.c ****       hi2s->TxXferCount--;
 523:Libraries/STM32F1xx_HAL_Driver/Src/stm32f1xx_hal_i2s.c **** 
 524:Libraries/STM32F1xx_HAL_Driver/Src/stm32f1xx_hal_i2s.c ****       /* Wait until TXE flag is set */
 525:Libraries/STM32F1xx_HAL_Driver/Src/stm32f1xx_hal_i2s.c ****       if (I2S_WaitFlagStateUntilTimeout(hi2s, I2S_FLAG_TXE, SET, Timeout) != HAL_OK)
 526:Libraries/STM32F1xx_HAL_Driver/Src/stm32f1xx_hal_i2s.c ****       {
 527:Libraries/STM32F1xx_HAL_Driver/Src/stm32f1xx_hal_i2s.c ****         /* Set the error code and execute error callback*/
 528:Libraries/STM32F1xx_HAL_Driver/Src/stm32f1xx_hal_i2s.c ****         SET_BIT(hi2s->ErrorCode, HAL_I2S_ERROR_TIMEOUT);
 529:Libraries/STM32F1xx_HAL_Driver/Src/stm32f1xx_hal_i2s.c ****         HAL_I2S_ErrorCallback(hi2s);
 530:Libraries/STM32F1xx_HAL_Driver/Src/stm32f1xx_hal_i2s.c ****         return HAL_TIMEOUT;
 531:Libraries/STM32F1xx_HAL_Driver/Src/stm32f1xx_hal_i2s.c ****       }
 532:Libraries/STM32F1xx_HAL_Driver/Src/stm32f1xx_hal_i2s.c **** 
 533:Libraries/STM32F1xx_HAL_Driver/Src/stm32f1xx_hal_i2s.c ****       /* Check if an underrun occurs */
 534:Libraries/STM32F1xx_HAL_Driver/Src/stm32f1xx_hal_i2s.c ****       if(__HAL_I2S_GET_FLAG(hi2s, I2S_FLAG_UDR) == SET)
 535:Libraries/STM32F1xx_HAL_Driver/Src/stm32f1xx_hal_i2s.c ****       {
 536:Libraries/STM32F1xx_HAL_Driver/Src/stm32f1xx_hal_i2s.c ****         /* Clear underrun flag */
 537:Libraries/STM32F1xx_HAL_Driver/Src/stm32f1xx_hal_i2s.c ****         __HAL_I2S_CLEAR_UDRFLAG(hi2s);
 538:Libraries/STM32F1xx_HAL_Driver/Src/stm32f1xx_hal_i2s.c ****         /* Set the I2S State ready */
 539:Libraries/STM32F1xx_HAL_Driver/Src/stm32f1xx_hal_i2s.c ****         hi2s->State = HAL_I2S_STATE_READY;
 540:Libraries/STM32F1xx_HAL_Driver/Src/stm32f1xx_hal_i2s.c **** 
 541:Libraries/STM32F1xx_HAL_Driver/Src/stm32f1xx_hal_i2s.c ****         /* Process Unlocked */
 542:Libraries/STM32F1xx_HAL_Driver/Src/stm32f1xx_hal_i2s.c ****         __HAL_UNLOCK(hi2s);
 543:Libraries/STM32F1xx_HAL_Driver/Src/stm32f1xx_hal_i2s.c **** 
 544:Libraries/STM32F1xx_HAL_Driver/Src/stm32f1xx_hal_i2s.c ****         /* Set the error code and execute error callback*/
 545:Libraries/STM32F1xx_HAL_Driver/Src/stm32f1xx_hal_i2s.c ****         SET_BIT(hi2s->ErrorCode, HAL_I2S_ERROR_UDR);
 546:Libraries/STM32F1xx_HAL_Driver/Src/stm32f1xx_hal_i2s.c ****         HAL_I2S_ErrorCallback(hi2s);
 547:Libraries/STM32F1xx_HAL_Driver/Src/stm32f1xx_hal_i2s.c **** 
ARM GAS  /tmp/cc1Hj1lD.s 			page 11


 548:Libraries/STM32F1xx_HAL_Driver/Src/stm32f1xx_hal_i2s.c ****         return HAL_ERROR;
 549:Libraries/STM32F1xx_HAL_Driver/Src/stm32f1xx_hal_i2s.c ****       }
 550:Libraries/STM32F1xx_HAL_Driver/Src/stm32f1xx_hal_i2s.c ****     }
 551:Libraries/STM32F1xx_HAL_Driver/Src/stm32f1xx_hal_i2s.c ****     hi2s->State = HAL_I2S_STATE_READY;
 552:Libraries/STM32F1xx_HAL_Driver/Src/stm32f1xx_hal_i2s.c **** 
 553:Libraries/STM32F1xx_HAL_Driver/Src/stm32f1xx_hal_i2s.c ****     /* Process Unlocked */
 554:Libraries/STM32F1xx_HAL_Driver/Src/stm32f1xx_hal_i2s.c ****     __HAL_UNLOCK(hi2s);
 555:Libraries/STM32F1xx_HAL_Driver/Src/stm32f1xx_hal_i2s.c **** 
 556:Libraries/STM32F1xx_HAL_Driver/Src/stm32f1xx_hal_i2s.c ****     return HAL_OK;
 557:Libraries/STM32F1xx_HAL_Driver/Src/stm32f1xx_hal_i2s.c ****   }
 558:Libraries/STM32F1xx_HAL_Driver/Src/stm32f1xx_hal_i2s.c ****   else
 559:Libraries/STM32F1xx_HAL_Driver/Src/stm32f1xx_hal_i2s.c ****   {
 560:Libraries/STM32F1xx_HAL_Driver/Src/stm32f1xx_hal_i2s.c ****     return HAL_BUSY;
 561:Libraries/STM32F1xx_HAL_Driver/Src/stm32f1xx_hal_i2s.c ****   }
 562:Libraries/STM32F1xx_HAL_Driver/Src/stm32f1xx_hal_i2s.c **** }
 563:Libraries/STM32F1xx_HAL_Driver/Src/stm32f1xx_hal_i2s.c **** 
 564:Libraries/STM32F1xx_HAL_Driver/Src/stm32f1xx_hal_i2s.c **** /**
 565:Libraries/STM32F1xx_HAL_Driver/Src/stm32f1xx_hal_i2s.c ****   * @brief Receive an amount of data in blocking mode
 566:Libraries/STM32F1xx_HAL_Driver/Src/stm32f1xx_hal_i2s.c ****   * @param  hi2s: pointer to a I2S_HandleTypeDef structure that contains
 567:Libraries/STM32F1xx_HAL_Driver/Src/stm32f1xx_hal_i2s.c ****   *         the configuration information for I2S module
 568:Libraries/STM32F1xx_HAL_Driver/Src/stm32f1xx_hal_i2s.c ****   * @param pData: a 16-bit pointer to data buffer
 569:Libraries/STM32F1xx_HAL_Driver/Src/stm32f1xx_hal_i2s.c ****   * @param Size: number of data sample to be sent:
 570:Libraries/STM32F1xx_HAL_Driver/Src/stm32f1xx_hal_i2s.c ****   * @note When a 16-bit data frame or a 16-bit data frame extended is selected during the I2S
 571:Libraries/STM32F1xx_HAL_Driver/Src/stm32f1xx_hal_i2s.c ****   *       configuration phase, the Size parameter means the number of 16-bit data length
 572:Libraries/STM32F1xx_HAL_Driver/Src/stm32f1xx_hal_i2s.c ****   *       in the transaction and when a 24-bit data frame or a 32-bit data frame is selected
 573:Libraries/STM32F1xx_HAL_Driver/Src/stm32f1xx_hal_i2s.c ****   *       the Size parameter means the number of 16-bit data length.
 574:Libraries/STM32F1xx_HAL_Driver/Src/stm32f1xx_hal_i2s.c ****   * @param Timeout: Timeout duration
 575:Libraries/STM32F1xx_HAL_Driver/Src/stm32f1xx_hal_i2s.c ****   * @note The I2S is kept enabled at the end of transaction to avoid the clock de-synchronization
 576:Libraries/STM32F1xx_HAL_Driver/Src/stm32f1xx_hal_i2s.c ****   *       between Master and Slave(example: audio streaming)
 577:Libraries/STM32F1xx_HAL_Driver/Src/stm32f1xx_hal_i2s.c ****   * @note In I2S Master Receiver mode, just after enabling the peripheral the clock will be generat
 578:Libraries/STM32F1xx_HAL_Driver/Src/stm32f1xx_hal_i2s.c ****   *       in continuous way and as the I2S is not disabled at the end of the I2S transaction
 579:Libraries/STM32F1xx_HAL_Driver/Src/stm32f1xx_hal_i2s.c ****   * @retval HAL status
 580:Libraries/STM32F1xx_HAL_Driver/Src/stm32f1xx_hal_i2s.c ****   */
 581:Libraries/STM32F1xx_HAL_Driver/Src/stm32f1xx_hal_i2s.c **** HAL_StatusTypeDef HAL_I2S_Receive(I2S_HandleTypeDef *hi2s, uint16_t *pData, uint16_t Size, uint32_t
 582:Libraries/STM32F1xx_HAL_Driver/Src/stm32f1xx_hal_i2s.c **** {
 583:Libraries/STM32F1xx_HAL_Driver/Src/stm32f1xx_hal_i2s.c ****   uint32_t tmp1 = 0U;
 584:Libraries/STM32F1xx_HAL_Driver/Src/stm32f1xx_hal_i2s.c **** 
 585:Libraries/STM32F1xx_HAL_Driver/Src/stm32f1xx_hal_i2s.c ****   if((pData == NULL ) || (Size == 0U))
 586:Libraries/STM32F1xx_HAL_Driver/Src/stm32f1xx_hal_i2s.c ****   {
 587:Libraries/STM32F1xx_HAL_Driver/Src/stm32f1xx_hal_i2s.c ****     return  HAL_ERROR;
 588:Libraries/STM32F1xx_HAL_Driver/Src/stm32f1xx_hal_i2s.c ****   }
 589:Libraries/STM32F1xx_HAL_Driver/Src/stm32f1xx_hal_i2s.c **** 
 590:Libraries/STM32F1xx_HAL_Driver/Src/stm32f1xx_hal_i2s.c ****   if(hi2s->State == HAL_I2S_STATE_READY)
 591:Libraries/STM32F1xx_HAL_Driver/Src/stm32f1xx_hal_i2s.c ****   {
 592:Libraries/STM32F1xx_HAL_Driver/Src/stm32f1xx_hal_i2s.c ****     tmp1 = hi2s->Instance->I2SCFGR & (SPI_I2SCFGR_DATLEN | SPI_I2SCFGR_CHLEN);
 593:Libraries/STM32F1xx_HAL_Driver/Src/stm32f1xx_hal_i2s.c ****     if((tmp1 == I2S_DATAFORMAT_24B) || (tmp1 == I2S_DATAFORMAT_32B))
 594:Libraries/STM32F1xx_HAL_Driver/Src/stm32f1xx_hal_i2s.c ****     {
 595:Libraries/STM32F1xx_HAL_Driver/Src/stm32f1xx_hal_i2s.c ****       hi2s->RxXferSize  = (Size << 1U);
 596:Libraries/STM32F1xx_HAL_Driver/Src/stm32f1xx_hal_i2s.c ****       hi2s->RxXferCount = (Size << 1U);
 597:Libraries/STM32F1xx_HAL_Driver/Src/stm32f1xx_hal_i2s.c ****     }
 598:Libraries/STM32F1xx_HAL_Driver/Src/stm32f1xx_hal_i2s.c ****     else
 599:Libraries/STM32F1xx_HAL_Driver/Src/stm32f1xx_hal_i2s.c ****     {
 600:Libraries/STM32F1xx_HAL_Driver/Src/stm32f1xx_hal_i2s.c ****       hi2s->RxXferSize  = Size;
 601:Libraries/STM32F1xx_HAL_Driver/Src/stm32f1xx_hal_i2s.c ****       hi2s->RxXferCount = Size;
 602:Libraries/STM32F1xx_HAL_Driver/Src/stm32f1xx_hal_i2s.c ****     }
 603:Libraries/STM32F1xx_HAL_Driver/Src/stm32f1xx_hal_i2s.c ****     /* Process Locked */
 604:Libraries/STM32F1xx_HAL_Driver/Src/stm32f1xx_hal_i2s.c ****     __HAL_LOCK(hi2s);
ARM GAS  /tmp/cc1Hj1lD.s 			page 12


 605:Libraries/STM32F1xx_HAL_Driver/Src/stm32f1xx_hal_i2s.c **** 
 606:Libraries/STM32F1xx_HAL_Driver/Src/stm32f1xx_hal_i2s.c ****     hi2s->ErrorCode = HAL_I2S_ERROR_NONE;
 607:Libraries/STM32F1xx_HAL_Driver/Src/stm32f1xx_hal_i2s.c ****     hi2s->State     = HAL_I2S_STATE_BUSY_RX;
 608:Libraries/STM32F1xx_HAL_Driver/Src/stm32f1xx_hal_i2s.c **** 
 609:Libraries/STM32F1xx_HAL_Driver/Src/stm32f1xx_hal_i2s.c ****     /* Check if the I2S is already enabled */
 610:Libraries/STM32F1xx_HAL_Driver/Src/stm32f1xx_hal_i2s.c ****     if((hi2s->Instance->I2SCFGR & SPI_I2SCFGR_I2SE) != SPI_I2SCFGR_I2SE)
 611:Libraries/STM32F1xx_HAL_Driver/Src/stm32f1xx_hal_i2s.c ****     {
 612:Libraries/STM32F1xx_HAL_Driver/Src/stm32f1xx_hal_i2s.c ****       /* Enable I2S peripheral */
 613:Libraries/STM32F1xx_HAL_Driver/Src/stm32f1xx_hal_i2s.c ****       __HAL_I2S_ENABLE(hi2s);
 614:Libraries/STM32F1xx_HAL_Driver/Src/stm32f1xx_hal_i2s.c ****     }
 615:Libraries/STM32F1xx_HAL_Driver/Src/stm32f1xx_hal_i2s.c **** 
 616:Libraries/STM32F1xx_HAL_Driver/Src/stm32f1xx_hal_i2s.c ****     /* Check if Master Receiver mode is selected */
 617:Libraries/STM32F1xx_HAL_Driver/Src/stm32f1xx_hal_i2s.c ****     if((hi2s->Instance->I2SCFGR & SPI_I2SCFGR_I2SCFG) == I2S_MODE_MASTER_RX)
 618:Libraries/STM32F1xx_HAL_Driver/Src/stm32f1xx_hal_i2s.c ****     {
 619:Libraries/STM32F1xx_HAL_Driver/Src/stm32f1xx_hal_i2s.c ****       /* Clear the Overrun Flag by a read operation on the SPI_DR register followed by a read
 620:Libraries/STM32F1xx_HAL_Driver/Src/stm32f1xx_hal_i2s.c ****       access to the SPI_SR register. */
 621:Libraries/STM32F1xx_HAL_Driver/Src/stm32f1xx_hal_i2s.c ****       __HAL_I2S_CLEAR_OVRFLAG(hi2s);
 622:Libraries/STM32F1xx_HAL_Driver/Src/stm32f1xx_hal_i2s.c ****     }
 623:Libraries/STM32F1xx_HAL_Driver/Src/stm32f1xx_hal_i2s.c **** 
 624:Libraries/STM32F1xx_HAL_Driver/Src/stm32f1xx_hal_i2s.c ****     /* Receive data */
 625:Libraries/STM32F1xx_HAL_Driver/Src/stm32f1xx_hal_i2s.c ****     while(hi2s->RxXferCount > 0U)
 626:Libraries/STM32F1xx_HAL_Driver/Src/stm32f1xx_hal_i2s.c ****     {
 627:Libraries/STM32F1xx_HAL_Driver/Src/stm32f1xx_hal_i2s.c ****       /* Wait until RXNE flag is set */
 628:Libraries/STM32F1xx_HAL_Driver/Src/stm32f1xx_hal_i2s.c ****       if (I2S_WaitFlagStateUntilTimeout(hi2s, I2S_FLAG_RXNE, SET, Timeout) != HAL_OK)
 629:Libraries/STM32F1xx_HAL_Driver/Src/stm32f1xx_hal_i2s.c ****       {
 630:Libraries/STM32F1xx_HAL_Driver/Src/stm32f1xx_hal_i2s.c ****         /* Set the error code and execute error callback*/
 631:Libraries/STM32F1xx_HAL_Driver/Src/stm32f1xx_hal_i2s.c ****         SET_BIT(hi2s->ErrorCode,HAL_I2S_ERROR_TIMEOUT);
 632:Libraries/STM32F1xx_HAL_Driver/Src/stm32f1xx_hal_i2s.c ****         HAL_I2S_ErrorCallback(hi2s);
 633:Libraries/STM32F1xx_HAL_Driver/Src/stm32f1xx_hal_i2s.c ****         return HAL_TIMEOUT;
 634:Libraries/STM32F1xx_HAL_Driver/Src/stm32f1xx_hal_i2s.c ****       }
 635:Libraries/STM32F1xx_HAL_Driver/Src/stm32f1xx_hal_i2s.c **** 
 636:Libraries/STM32F1xx_HAL_Driver/Src/stm32f1xx_hal_i2s.c ****       /* Check if an overrun occurs */
 637:Libraries/STM32F1xx_HAL_Driver/Src/stm32f1xx_hal_i2s.c ****       if(__HAL_I2S_GET_FLAG(hi2s, I2S_FLAG_OVR) == SET)
 638:Libraries/STM32F1xx_HAL_Driver/Src/stm32f1xx_hal_i2s.c ****       {
 639:Libraries/STM32F1xx_HAL_Driver/Src/stm32f1xx_hal_i2s.c ****         /* Clear overrun flag */
 640:Libraries/STM32F1xx_HAL_Driver/Src/stm32f1xx_hal_i2s.c ****         __HAL_I2S_CLEAR_OVRFLAG(hi2s);
 641:Libraries/STM32F1xx_HAL_Driver/Src/stm32f1xx_hal_i2s.c **** 
 642:Libraries/STM32F1xx_HAL_Driver/Src/stm32f1xx_hal_i2s.c ****         /* Set the I2S State ready */
 643:Libraries/STM32F1xx_HAL_Driver/Src/stm32f1xx_hal_i2s.c ****         hi2s->State = HAL_I2S_STATE_READY;
 644:Libraries/STM32F1xx_HAL_Driver/Src/stm32f1xx_hal_i2s.c **** 
 645:Libraries/STM32F1xx_HAL_Driver/Src/stm32f1xx_hal_i2s.c ****         /* Process Unlocked */
 646:Libraries/STM32F1xx_HAL_Driver/Src/stm32f1xx_hal_i2s.c ****         __HAL_UNLOCK(hi2s);
 647:Libraries/STM32F1xx_HAL_Driver/Src/stm32f1xx_hal_i2s.c **** 
 648:Libraries/STM32F1xx_HAL_Driver/Src/stm32f1xx_hal_i2s.c ****         /* Set the error code and execute error callback*/
 649:Libraries/STM32F1xx_HAL_Driver/Src/stm32f1xx_hal_i2s.c ****         SET_BIT(hi2s->ErrorCode, HAL_I2S_ERROR_OVR);
 650:Libraries/STM32F1xx_HAL_Driver/Src/stm32f1xx_hal_i2s.c ****         HAL_I2S_ErrorCallback(hi2s);
 651:Libraries/STM32F1xx_HAL_Driver/Src/stm32f1xx_hal_i2s.c **** 
 652:Libraries/STM32F1xx_HAL_Driver/Src/stm32f1xx_hal_i2s.c ****         return HAL_ERROR;
 653:Libraries/STM32F1xx_HAL_Driver/Src/stm32f1xx_hal_i2s.c ****       }
 654:Libraries/STM32F1xx_HAL_Driver/Src/stm32f1xx_hal_i2s.c **** 
 655:Libraries/STM32F1xx_HAL_Driver/Src/stm32f1xx_hal_i2s.c ****       (*pData++) = hi2s->Instance->DR;
 656:Libraries/STM32F1xx_HAL_Driver/Src/stm32f1xx_hal_i2s.c ****       hi2s->RxXferCount--;
 657:Libraries/STM32F1xx_HAL_Driver/Src/stm32f1xx_hal_i2s.c ****     }
 658:Libraries/STM32F1xx_HAL_Driver/Src/stm32f1xx_hal_i2s.c **** 
 659:Libraries/STM32F1xx_HAL_Driver/Src/stm32f1xx_hal_i2s.c ****     hi2s->State = HAL_I2S_STATE_READY;
 660:Libraries/STM32F1xx_HAL_Driver/Src/stm32f1xx_hal_i2s.c **** 
 661:Libraries/STM32F1xx_HAL_Driver/Src/stm32f1xx_hal_i2s.c ****     /* Process Unlocked */
ARM GAS  /tmp/cc1Hj1lD.s 			page 13


 662:Libraries/STM32F1xx_HAL_Driver/Src/stm32f1xx_hal_i2s.c ****     __HAL_UNLOCK(hi2s);
 663:Libraries/STM32F1xx_HAL_Driver/Src/stm32f1xx_hal_i2s.c **** 
 664:Libraries/STM32F1xx_HAL_Driver/Src/stm32f1xx_hal_i2s.c ****     return HAL_OK;
 665:Libraries/STM32F1xx_HAL_Driver/Src/stm32f1xx_hal_i2s.c ****   }
 666:Libraries/STM32F1xx_HAL_Driver/Src/stm32f1xx_hal_i2s.c ****   else
 667:Libraries/STM32F1xx_HAL_Driver/Src/stm32f1xx_hal_i2s.c ****   {
 668:Libraries/STM32F1xx_HAL_Driver/Src/stm32f1xx_hal_i2s.c ****     return HAL_BUSY;
 669:Libraries/STM32F1xx_HAL_Driver/Src/stm32f1xx_hal_i2s.c ****   }
 670:Libraries/STM32F1xx_HAL_Driver/Src/stm32f1xx_hal_i2s.c **** }
 671:Libraries/STM32F1xx_HAL_Driver/Src/stm32f1xx_hal_i2s.c **** 
 672:Libraries/STM32F1xx_HAL_Driver/Src/stm32f1xx_hal_i2s.c **** /**
 673:Libraries/STM32F1xx_HAL_Driver/Src/stm32f1xx_hal_i2s.c ****   * @brief Transmit an amount of data in non-blocking mode with Interrupt
 674:Libraries/STM32F1xx_HAL_Driver/Src/stm32f1xx_hal_i2s.c ****   * @param  hi2s: pointer to a I2S_HandleTypeDef structure that contains
 675:Libraries/STM32F1xx_HAL_Driver/Src/stm32f1xx_hal_i2s.c ****   *         the configuration information for I2S module
 676:Libraries/STM32F1xx_HAL_Driver/Src/stm32f1xx_hal_i2s.c ****   * @param pData: a 16-bit pointer to data buffer.
 677:Libraries/STM32F1xx_HAL_Driver/Src/stm32f1xx_hal_i2s.c ****   * @param Size: number of data sample to be sent:
 678:Libraries/STM32F1xx_HAL_Driver/Src/stm32f1xx_hal_i2s.c ****   * @note When a 16-bit data frame or a 16-bit data frame extended is selected during the I2S
 679:Libraries/STM32F1xx_HAL_Driver/Src/stm32f1xx_hal_i2s.c ****   *       configuration phase, the Size parameter means the number of 16-bit data length
 680:Libraries/STM32F1xx_HAL_Driver/Src/stm32f1xx_hal_i2s.c ****   *       in the transaction and when a 24-bit data frame or a 32-bit data frame is selected
 681:Libraries/STM32F1xx_HAL_Driver/Src/stm32f1xx_hal_i2s.c ****   *       the Size parameter means the number of 16-bit data length.
 682:Libraries/STM32F1xx_HAL_Driver/Src/stm32f1xx_hal_i2s.c ****   * @note The I2S is kept enabled at the end of transaction to avoid the clock de-synchronization
 683:Libraries/STM32F1xx_HAL_Driver/Src/stm32f1xx_hal_i2s.c ****   *       between Master and Slave(example: audio streaming).
 684:Libraries/STM32F1xx_HAL_Driver/Src/stm32f1xx_hal_i2s.c ****   * @retval HAL status
 685:Libraries/STM32F1xx_HAL_Driver/Src/stm32f1xx_hal_i2s.c ****   */
 686:Libraries/STM32F1xx_HAL_Driver/Src/stm32f1xx_hal_i2s.c **** HAL_StatusTypeDef HAL_I2S_Transmit_IT(I2S_HandleTypeDef *hi2s, uint16_t *pData, uint16_t Size)
 687:Libraries/STM32F1xx_HAL_Driver/Src/stm32f1xx_hal_i2s.c **** {
 688:Libraries/STM32F1xx_HAL_Driver/Src/stm32f1xx_hal_i2s.c ****   uint32_t tmp1 = 0U;
 689:Libraries/STM32F1xx_HAL_Driver/Src/stm32f1xx_hal_i2s.c **** 
 690:Libraries/STM32F1xx_HAL_Driver/Src/stm32f1xx_hal_i2s.c ****   if(hi2s->State == HAL_I2S_STATE_READY)
 691:Libraries/STM32F1xx_HAL_Driver/Src/stm32f1xx_hal_i2s.c ****   {
 692:Libraries/STM32F1xx_HAL_Driver/Src/stm32f1xx_hal_i2s.c ****     if((pData == NULL) || (Size == 0U))
 693:Libraries/STM32F1xx_HAL_Driver/Src/stm32f1xx_hal_i2s.c ****     {
 694:Libraries/STM32F1xx_HAL_Driver/Src/stm32f1xx_hal_i2s.c ****       return  HAL_ERROR;
 695:Libraries/STM32F1xx_HAL_Driver/Src/stm32f1xx_hal_i2s.c ****     }
 696:Libraries/STM32F1xx_HAL_Driver/Src/stm32f1xx_hal_i2s.c **** 
 697:Libraries/STM32F1xx_HAL_Driver/Src/stm32f1xx_hal_i2s.c ****     hi2s->pTxBuffPtr = pData;
 698:Libraries/STM32F1xx_HAL_Driver/Src/stm32f1xx_hal_i2s.c ****     tmp1 = hi2s->Instance->I2SCFGR & (SPI_I2SCFGR_DATLEN | SPI_I2SCFGR_CHLEN);
 699:Libraries/STM32F1xx_HAL_Driver/Src/stm32f1xx_hal_i2s.c ****     if((tmp1 == I2S_DATAFORMAT_24B) || (tmp1 == I2S_DATAFORMAT_32B))
 700:Libraries/STM32F1xx_HAL_Driver/Src/stm32f1xx_hal_i2s.c ****     {
 701:Libraries/STM32F1xx_HAL_Driver/Src/stm32f1xx_hal_i2s.c ****       hi2s->TxXferSize  = (Size << 1U);
 702:Libraries/STM32F1xx_HAL_Driver/Src/stm32f1xx_hal_i2s.c ****       hi2s->TxXferCount = (Size << 1U);
 703:Libraries/STM32F1xx_HAL_Driver/Src/stm32f1xx_hal_i2s.c ****     }
 704:Libraries/STM32F1xx_HAL_Driver/Src/stm32f1xx_hal_i2s.c ****     else
 705:Libraries/STM32F1xx_HAL_Driver/Src/stm32f1xx_hal_i2s.c ****     {
 706:Libraries/STM32F1xx_HAL_Driver/Src/stm32f1xx_hal_i2s.c ****       hi2s->TxXferSize  = Size;
 707:Libraries/STM32F1xx_HAL_Driver/Src/stm32f1xx_hal_i2s.c ****       hi2s->TxXferCount = Size;
 708:Libraries/STM32F1xx_HAL_Driver/Src/stm32f1xx_hal_i2s.c ****     }
 709:Libraries/STM32F1xx_HAL_Driver/Src/stm32f1xx_hal_i2s.c **** 
 710:Libraries/STM32F1xx_HAL_Driver/Src/stm32f1xx_hal_i2s.c ****     /* Process Locked */
 711:Libraries/STM32F1xx_HAL_Driver/Src/stm32f1xx_hal_i2s.c ****     __HAL_LOCK(hi2s);
 712:Libraries/STM32F1xx_HAL_Driver/Src/stm32f1xx_hal_i2s.c **** 
 713:Libraries/STM32F1xx_HAL_Driver/Src/stm32f1xx_hal_i2s.c ****     hi2s->State     = HAL_I2S_STATE_BUSY_TX;
 714:Libraries/STM32F1xx_HAL_Driver/Src/stm32f1xx_hal_i2s.c ****     hi2s->ErrorCode = HAL_I2S_ERROR_NONE;
 715:Libraries/STM32F1xx_HAL_Driver/Src/stm32f1xx_hal_i2s.c **** 
 716:Libraries/STM32F1xx_HAL_Driver/Src/stm32f1xx_hal_i2s.c ****     /* Enable TXE and ERR interrupt */
 717:Libraries/STM32F1xx_HAL_Driver/Src/stm32f1xx_hal_i2s.c ****     __HAL_I2S_ENABLE_IT(hi2s, (I2S_IT_TXE | I2S_IT_ERR));
 718:Libraries/STM32F1xx_HAL_Driver/Src/stm32f1xx_hal_i2s.c **** 
ARM GAS  /tmp/cc1Hj1lD.s 			page 14


 719:Libraries/STM32F1xx_HAL_Driver/Src/stm32f1xx_hal_i2s.c ****     /* Check if the I2S is already enabled */
 720:Libraries/STM32F1xx_HAL_Driver/Src/stm32f1xx_hal_i2s.c ****     if((hi2s->Instance->I2SCFGR &SPI_I2SCFGR_I2SE) != SPI_I2SCFGR_I2SE)
 721:Libraries/STM32F1xx_HAL_Driver/Src/stm32f1xx_hal_i2s.c ****     {
 722:Libraries/STM32F1xx_HAL_Driver/Src/stm32f1xx_hal_i2s.c ****       /* Enable I2S peripheral */
 723:Libraries/STM32F1xx_HAL_Driver/Src/stm32f1xx_hal_i2s.c ****       __HAL_I2S_ENABLE(hi2s);
 724:Libraries/STM32F1xx_HAL_Driver/Src/stm32f1xx_hal_i2s.c ****     }
 725:Libraries/STM32F1xx_HAL_Driver/Src/stm32f1xx_hal_i2s.c **** 
 726:Libraries/STM32F1xx_HAL_Driver/Src/stm32f1xx_hal_i2s.c ****     /* Process Unlocked */
 727:Libraries/STM32F1xx_HAL_Driver/Src/stm32f1xx_hal_i2s.c ****     __HAL_UNLOCK(hi2s);
 728:Libraries/STM32F1xx_HAL_Driver/Src/stm32f1xx_hal_i2s.c **** 
 729:Libraries/STM32F1xx_HAL_Driver/Src/stm32f1xx_hal_i2s.c ****     return HAL_OK;
 730:Libraries/STM32F1xx_HAL_Driver/Src/stm32f1xx_hal_i2s.c ****   }
 731:Libraries/STM32F1xx_HAL_Driver/Src/stm32f1xx_hal_i2s.c ****   else
 732:Libraries/STM32F1xx_HAL_Driver/Src/stm32f1xx_hal_i2s.c ****   {
 733:Libraries/STM32F1xx_HAL_Driver/Src/stm32f1xx_hal_i2s.c ****     return HAL_BUSY;
 734:Libraries/STM32F1xx_HAL_Driver/Src/stm32f1xx_hal_i2s.c ****   }
 735:Libraries/STM32F1xx_HAL_Driver/Src/stm32f1xx_hal_i2s.c **** }
 736:Libraries/STM32F1xx_HAL_Driver/Src/stm32f1xx_hal_i2s.c **** 
 737:Libraries/STM32F1xx_HAL_Driver/Src/stm32f1xx_hal_i2s.c **** /**
 738:Libraries/STM32F1xx_HAL_Driver/Src/stm32f1xx_hal_i2s.c ****   * @brief Receive an amount of data in non-blocking mode with Interrupt
 739:Libraries/STM32F1xx_HAL_Driver/Src/stm32f1xx_hal_i2s.c ****   * @param  hi2s: pointer to a I2S_HandleTypeDef structure that contains
 740:Libraries/STM32F1xx_HAL_Driver/Src/stm32f1xx_hal_i2s.c ****   *         the configuration information for I2S module
 741:Libraries/STM32F1xx_HAL_Driver/Src/stm32f1xx_hal_i2s.c ****   * @param pData: a 16-bit pointer to the Receive data buffer.
 742:Libraries/STM32F1xx_HAL_Driver/Src/stm32f1xx_hal_i2s.c ****   * @param Size: number of data sample to be sent:
 743:Libraries/STM32F1xx_HAL_Driver/Src/stm32f1xx_hal_i2s.c ****   * @note When a 16-bit data frame or a 16-bit data frame extended is selected during the I2S
 744:Libraries/STM32F1xx_HAL_Driver/Src/stm32f1xx_hal_i2s.c ****   *       configuration phase, the Size parameter means the number of 16-bit data length
 745:Libraries/STM32F1xx_HAL_Driver/Src/stm32f1xx_hal_i2s.c ****   *       in the transaction and when a 24-bit data frame or a 32-bit data frame is selected
 746:Libraries/STM32F1xx_HAL_Driver/Src/stm32f1xx_hal_i2s.c ****   *       the Size parameter means the number of 16-bit data length.
 747:Libraries/STM32F1xx_HAL_Driver/Src/stm32f1xx_hal_i2s.c ****   * @note The I2S is kept enabled at the end of transaction to avoid the clock de-synchronization
 748:Libraries/STM32F1xx_HAL_Driver/Src/stm32f1xx_hal_i2s.c ****   *       between Master and Slave(example: audio streaming).
 749:Libraries/STM32F1xx_HAL_Driver/Src/stm32f1xx_hal_i2s.c ****   * @note It is recommended to use DMA for the I2S receiver to avoid de-synchronisation
 750:Libraries/STM32F1xx_HAL_Driver/Src/stm32f1xx_hal_i2s.c ****   * between Master and Slave otherwise the I2S interrupt should be optimized.
 751:Libraries/STM32F1xx_HAL_Driver/Src/stm32f1xx_hal_i2s.c ****   * @retval HAL status
 752:Libraries/STM32F1xx_HAL_Driver/Src/stm32f1xx_hal_i2s.c ****   */
 753:Libraries/STM32F1xx_HAL_Driver/Src/stm32f1xx_hal_i2s.c **** HAL_StatusTypeDef HAL_I2S_Receive_IT(I2S_HandleTypeDef *hi2s, uint16_t *pData, uint16_t Size)
 754:Libraries/STM32F1xx_HAL_Driver/Src/stm32f1xx_hal_i2s.c **** {
 755:Libraries/STM32F1xx_HAL_Driver/Src/stm32f1xx_hal_i2s.c ****   uint32_t tmp1 = 0U;
 756:Libraries/STM32F1xx_HAL_Driver/Src/stm32f1xx_hal_i2s.c **** 
 757:Libraries/STM32F1xx_HAL_Driver/Src/stm32f1xx_hal_i2s.c ****   if(hi2s->State == HAL_I2S_STATE_READY)
 758:Libraries/STM32F1xx_HAL_Driver/Src/stm32f1xx_hal_i2s.c ****   {
 759:Libraries/STM32F1xx_HAL_Driver/Src/stm32f1xx_hal_i2s.c ****     if((pData == NULL) || (Size == 0U))
 760:Libraries/STM32F1xx_HAL_Driver/Src/stm32f1xx_hal_i2s.c ****     {
 761:Libraries/STM32F1xx_HAL_Driver/Src/stm32f1xx_hal_i2s.c ****       return  HAL_ERROR;
 762:Libraries/STM32F1xx_HAL_Driver/Src/stm32f1xx_hal_i2s.c ****     }
 763:Libraries/STM32F1xx_HAL_Driver/Src/stm32f1xx_hal_i2s.c **** 
 764:Libraries/STM32F1xx_HAL_Driver/Src/stm32f1xx_hal_i2s.c ****     hi2s->pRxBuffPtr = pData;
 765:Libraries/STM32F1xx_HAL_Driver/Src/stm32f1xx_hal_i2s.c ****     tmp1 = hi2s->Instance->I2SCFGR & (SPI_I2SCFGR_DATLEN | SPI_I2SCFGR_CHLEN);
 766:Libraries/STM32F1xx_HAL_Driver/Src/stm32f1xx_hal_i2s.c ****     if((tmp1 == I2S_DATAFORMAT_24B) || (tmp1 == I2S_DATAFORMAT_32B))
 767:Libraries/STM32F1xx_HAL_Driver/Src/stm32f1xx_hal_i2s.c ****     {
 768:Libraries/STM32F1xx_HAL_Driver/Src/stm32f1xx_hal_i2s.c ****       hi2s->RxXferSize  = (Size << 1U);
 769:Libraries/STM32F1xx_HAL_Driver/Src/stm32f1xx_hal_i2s.c ****       hi2s->RxXferCount = (Size << 1U);
 770:Libraries/STM32F1xx_HAL_Driver/Src/stm32f1xx_hal_i2s.c ****     }
 771:Libraries/STM32F1xx_HAL_Driver/Src/stm32f1xx_hal_i2s.c ****     else
 772:Libraries/STM32F1xx_HAL_Driver/Src/stm32f1xx_hal_i2s.c ****     {
 773:Libraries/STM32F1xx_HAL_Driver/Src/stm32f1xx_hal_i2s.c ****       hi2s->RxXferSize  = Size;
 774:Libraries/STM32F1xx_HAL_Driver/Src/stm32f1xx_hal_i2s.c ****       hi2s->RxXferCount = Size;
 775:Libraries/STM32F1xx_HAL_Driver/Src/stm32f1xx_hal_i2s.c ****     }
ARM GAS  /tmp/cc1Hj1lD.s 			page 15


 776:Libraries/STM32F1xx_HAL_Driver/Src/stm32f1xx_hal_i2s.c ****     /* Process Locked */
 777:Libraries/STM32F1xx_HAL_Driver/Src/stm32f1xx_hal_i2s.c ****     __HAL_LOCK(hi2s);
 778:Libraries/STM32F1xx_HAL_Driver/Src/stm32f1xx_hal_i2s.c **** 
 779:Libraries/STM32F1xx_HAL_Driver/Src/stm32f1xx_hal_i2s.c ****     hi2s->State     = HAL_I2S_STATE_BUSY_RX;
 780:Libraries/STM32F1xx_HAL_Driver/Src/stm32f1xx_hal_i2s.c ****     hi2s->ErrorCode = HAL_I2S_ERROR_NONE;
 781:Libraries/STM32F1xx_HAL_Driver/Src/stm32f1xx_hal_i2s.c **** 
 782:Libraries/STM32F1xx_HAL_Driver/Src/stm32f1xx_hal_i2s.c ****     /* Enable TXE and ERR interrupt */
 783:Libraries/STM32F1xx_HAL_Driver/Src/stm32f1xx_hal_i2s.c ****     __HAL_I2S_ENABLE_IT(hi2s, (I2S_IT_RXNE | I2S_IT_ERR));
 784:Libraries/STM32F1xx_HAL_Driver/Src/stm32f1xx_hal_i2s.c **** 
 785:Libraries/STM32F1xx_HAL_Driver/Src/stm32f1xx_hal_i2s.c ****     /* Check if the I2S is already enabled */
 786:Libraries/STM32F1xx_HAL_Driver/Src/stm32f1xx_hal_i2s.c ****     if((hi2s->Instance->I2SCFGR &SPI_I2SCFGR_I2SE) != SPI_I2SCFGR_I2SE)
 787:Libraries/STM32F1xx_HAL_Driver/Src/stm32f1xx_hal_i2s.c ****     {
 788:Libraries/STM32F1xx_HAL_Driver/Src/stm32f1xx_hal_i2s.c ****       /* Enable I2S peripheral */
 789:Libraries/STM32F1xx_HAL_Driver/Src/stm32f1xx_hal_i2s.c ****       __HAL_I2S_ENABLE(hi2s);
 790:Libraries/STM32F1xx_HAL_Driver/Src/stm32f1xx_hal_i2s.c ****     }
 791:Libraries/STM32F1xx_HAL_Driver/Src/stm32f1xx_hal_i2s.c **** 
 792:Libraries/STM32F1xx_HAL_Driver/Src/stm32f1xx_hal_i2s.c ****     /* Process Unlocked */
 793:Libraries/STM32F1xx_HAL_Driver/Src/stm32f1xx_hal_i2s.c ****     __HAL_UNLOCK(hi2s);
 794:Libraries/STM32F1xx_HAL_Driver/Src/stm32f1xx_hal_i2s.c **** 
 795:Libraries/STM32F1xx_HAL_Driver/Src/stm32f1xx_hal_i2s.c ****     return HAL_OK;
 796:Libraries/STM32F1xx_HAL_Driver/Src/stm32f1xx_hal_i2s.c ****   }
 797:Libraries/STM32F1xx_HAL_Driver/Src/stm32f1xx_hal_i2s.c **** 
 798:Libraries/STM32F1xx_HAL_Driver/Src/stm32f1xx_hal_i2s.c ****   else
 799:Libraries/STM32F1xx_HAL_Driver/Src/stm32f1xx_hal_i2s.c ****   {
 800:Libraries/STM32F1xx_HAL_Driver/Src/stm32f1xx_hal_i2s.c ****     return HAL_BUSY;
 801:Libraries/STM32F1xx_HAL_Driver/Src/stm32f1xx_hal_i2s.c ****   }
 802:Libraries/STM32F1xx_HAL_Driver/Src/stm32f1xx_hal_i2s.c **** }
 803:Libraries/STM32F1xx_HAL_Driver/Src/stm32f1xx_hal_i2s.c **** 
 804:Libraries/STM32F1xx_HAL_Driver/Src/stm32f1xx_hal_i2s.c **** /**
 805:Libraries/STM32F1xx_HAL_Driver/Src/stm32f1xx_hal_i2s.c ****   * @brief Transmit an amount of data in non-blocking mode with DMA
 806:Libraries/STM32F1xx_HAL_Driver/Src/stm32f1xx_hal_i2s.c ****   * @param  hi2s: pointer to a I2S_HandleTypeDef structure that contains
 807:Libraries/STM32F1xx_HAL_Driver/Src/stm32f1xx_hal_i2s.c ****   *         the configuration information for I2S module
 808:Libraries/STM32F1xx_HAL_Driver/Src/stm32f1xx_hal_i2s.c ****   * @param pData: a 16-bit pointer to the Transmit data buffer.
 809:Libraries/STM32F1xx_HAL_Driver/Src/stm32f1xx_hal_i2s.c ****   * @param Size: number of data sample to be sent:
 810:Libraries/STM32F1xx_HAL_Driver/Src/stm32f1xx_hal_i2s.c ****   * @note When a 16-bit data frame or a 16-bit data frame extended is selected during the I2S
 811:Libraries/STM32F1xx_HAL_Driver/Src/stm32f1xx_hal_i2s.c ****   *       configuration phase, the Size parameter means the number of 16-bit data length
 812:Libraries/STM32F1xx_HAL_Driver/Src/stm32f1xx_hal_i2s.c ****   *       in the transaction and when a 24-bit data frame or a 32-bit data frame is selected
 813:Libraries/STM32F1xx_HAL_Driver/Src/stm32f1xx_hal_i2s.c ****   *       the Size parameter means the number of 16-bit data length.
 814:Libraries/STM32F1xx_HAL_Driver/Src/stm32f1xx_hal_i2s.c ****   * @note The I2S is kept enabled at the end of transaction to avoid the clock de-synchronization
 815:Libraries/STM32F1xx_HAL_Driver/Src/stm32f1xx_hal_i2s.c ****   *       between Master and Slave(example: audio streaming).
 816:Libraries/STM32F1xx_HAL_Driver/Src/stm32f1xx_hal_i2s.c ****   * @retval HAL status
 817:Libraries/STM32F1xx_HAL_Driver/Src/stm32f1xx_hal_i2s.c ****   */
 818:Libraries/STM32F1xx_HAL_Driver/Src/stm32f1xx_hal_i2s.c **** HAL_StatusTypeDef HAL_I2S_Transmit_DMA(I2S_HandleTypeDef *hi2s, uint16_t *pData, uint16_t Size)
 819:Libraries/STM32F1xx_HAL_Driver/Src/stm32f1xx_hal_i2s.c **** {
 820:Libraries/STM32F1xx_HAL_Driver/Src/stm32f1xx_hal_i2s.c ****   uint32_t *tmp = NULL;
 821:Libraries/STM32F1xx_HAL_Driver/Src/stm32f1xx_hal_i2s.c ****   uint32_t tmp1 = 0U;
 822:Libraries/STM32F1xx_HAL_Driver/Src/stm32f1xx_hal_i2s.c **** 
 823:Libraries/STM32F1xx_HAL_Driver/Src/stm32f1xx_hal_i2s.c ****   if((pData == NULL) || (Size == 0U))
 824:Libraries/STM32F1xx_HAL_Driver/Src/stm32f1xx_hal_i2s.c ****   {
 825:Libraries/STM32F1xx_HAL_Driver/Src/stm32f1xx_hal_i2s.c ****     return  HAL_ERROR;
 826:Libraries/STM32F1xx_HAL_Driver/Src/stm32f1xx_hal_i2s.c ****   }
 827:Libraries/STM32F1xx_HAL_Driver/Src/stm32f1xx_hal_i2s.c **** 
 828:Libraries/STM32F1xx_HAL_Driver/Src/stm32f1xx_hal_i2s.c ****   if(hi2s->State == HAL_I2S_STATE_READY)
 829:Libraries/STM32F1xx_HAL_Driver/Src/stm32f1xx_hal_i2s.c ****   {
 830:Libraries/STM32F1xx_HAL_Driver/Src/stm32f1xx_hal_i2s.c ****     hi2s->pTxBuffPtr = pData;
 831:Libraries/STM32F1xx_HAL_Driver/Src/stm32f1xx_hal_i2s.c ****     tmp1 = hi2s->Instance->I2SCFGR & (SPI_I2SCFGR_DATLEN | SPI_I2SCFGR_CHLEN);
 832:Libraries/STM32F1xx_HAL_Driver/Src/stm32f1xx_hal_i2s.c ****     if((tmp1 == I2S_DATAFORMAT_24B) || (tmp1 == I2S_DATAFORMAT_32B))
ARM GAS  /tmp/cc1Hj1lD.s 			page 16


 833:Libraries/STM32F1xx_HAL_Driver/Src/stm32f1xx_hal_i2s.c ****     {
 834:Libraries/STM32F1xx_HAL_Driver/Src/stm32f1xx_hal_i2s.c ****       hi2s->TxXferSize  = (Size << 1U);
 835:Libraries/STM32F1xx_HAL_Driver/Src/stm32f1xx_hal_i2s.c ****       hi2s->TxXferCount = (Size << 1U);
 836:Libraries/STM32F1xx_HAL_Driver/Src/stm32f1xx_hal_i2s.c ****     }
 837:Libraries/STM32F1xx_HAL_Driver/Src/stm32f1xx_hal_i2s.c ****     else
 838:Libraries/STM32F1xx_HAL_Driver/Src/stm32f1xx_hal_i2s.c ****     {
 839:Libraries/STM32F1xx_HAL_Driver/Src/stm32f1xx_hal_i2s.c ****       hi2s->TxXferSize  = Size;
 840:Libraries/STM32F1xx_HAL_Driver/Src/stm32f1xx_hal_i2s.c ****       hi2s->TxXferCount = Size;
 841:Libraries/STM32F1xx_HAL_Driver/Src/stm32f1xx_hal_i2s.c ****     }
 842:Libraries/STM32F1xx_HAL_Driver/Src/stm32f1xx_hal_i2s.c **** 
 843:Libraries/STM32F1xx_HAL_Driver/Src/stm32f1xx_hal_i2s.c ****     /* Process Locked */
 844:Libraries/STM32F1xx_HAL_Driver/Src/stm32f1xx_hal_i2s.c ****     __HAL_LOCK(hi2s);
 845:Libraries/STM32F1xx_HAL_Driver/Src/stm32f1xx_hal_i2s.c **** 
 846:Libraries/STM32F1xx_HAL_Driver/Src/stm32f1xx_hal_i2s.c ****     hi2s->ErrorCode = HAL_I2S_ERROR_NONE;
 847:Libraries/STM32F1xx_HAL_Driver/Src/stm32f1xx_hal_i2s.c ****     hi2s->State     = HAL_I2S_STATE_BUSY_TX;
 848:Libraries/STM32F1xx_HAL_Driver/Src/stm32f1xx_hal_i2s.c **** 
 849:Libraries/STM32F1xx_HAL_Driver/Src/stm32f1xx_hal_i2s.c ****     /* Set the I2S Tx DMA Half transfer complete callback */
 850:Libraries/STM32F1xx_HAL_Driver/Src/stm32f1xx_hal_i2s.c ****     hi2s->hdmatx->XferHalfCpltCallback = I2S_DMATxHalfCplt;
 851:Libraries/STM32F1xx_HAL_Driver/Src/stm32f1xx_hal_i2s.c **** 
 852:Libraries/STM32F1xx_HAL_Driver/Src/stm32f1xx_hal_i2s.c ****     /* Set the I2S Tx DMA transfer complete callback */
 853:Libraries/STM32F1xx_HAL_Driver/Src/stm32f1xx_hal_i2s.c ****     hi2s->hdmatx->XferCpltCallback = I2S_DMATxCplt;
 854:Libraries/STM32F1xx_HAL_Driver/Src/stm32f1xx_hal_i2s.c **** 
 855:Libraries/STM32F1xx_HAL_Driver/Src/stm32f1xx_hal_i2s.c ****     /* Set the DMA error callback */
 856:Libraries/STM32F1xx_HAL_Driver/Src/stm32f1xx_hal_i2s.c ****     hi2s->hdmatx->XferErrorCallback = I2S_DMAError;
 857:Libraries/STM32F1xx_HAL_Driver/Src/stm32f1xx_hal_i2s.c **** 
 858:Libraries/STM32F1xx_HAL_Driver/Src/stm32f1xx_hal_i2s.c ****     /* Enable the Tx DMA Stream */
 859:Libraries/STM32F1xx_HAL_Driver/Src/stm32f1xx_hal_i2s.c ****     tmp = (uint32_t*)&pData;
 860:Libraries/STM32F1xx_HAL_Driver/Src/stm32f1xx_hal_i2s.c ****     HAL_DMA_Start_IT(hi2s->hdmatx, *(uint32_t*)tmp, (uint32_t)&hi2s->Instance->DR, hi2s->TxXferSize
 861:Libraries/STM32F1xx_HAL_Driver/Src/stm32f1xx_hal_i2s.c **** 
 862:Libraries/STM32F1xx_HAL_Driver/Src/stm32f1xx_hal_i2s.c ****     /* Check if the I2S is already enabled */
 863:Libraries/STM32F1xx_HAL_Driver/Src/stm32f1xx_hal_i2s.c ****     if((hi2s->Instance->I2SCFGR &SPI_I2SCFGR_I2SE) != SPI_I2SCFGR_I2SE)
 864:Libraries/STM32F1xx_HAL_Driver/Src/stm32f1xx_hal_i2s.c ****     {
 865:Libraries/STM32F1xx_HAL_Driver/Src/stm32f1xx_hal_i2s.c ****       /* Enable I2S peripheral */
 866:Libraries/STM32F1xx_HAL_Driver/Src/stm32f1xx_hal_i2s.c ****       __HAL_I2S_ENABLE(hi2s);
 867:Libraries/STM32F1xx_HAL_Driver/Src/stm32f1xx_hal_i2s.c ****     }
 868:Libraries/STM32F1xx_HAL_Driver/Src/stm32f1xx_hal_i2s.c **** 
 869:Libraries/STM32F1xx_HAL_Driver/Src/stm32f1xx_hal_i2s.c ****      /* Check if the I2S Tx request is already enabled */
 870:Libraries/STM32F1xx_HAL_Driver/Src/stm32f1xx_hal_i2s.c ****     if((hi2s->Instance->CR2 & SPI_CR2_TXDMAEN) != SPI_CR2_TXDMAEN)
 871:Libraries/STM32F1xx_HAL_Driver/Src/stm32f1xx_hal_i2s.c ****     {
 872:Libraries/STM32F1xx_HAL_Driver/Src/stm32f1xx_hal_i2s.c ****       /* Enable Tx DMA Request */
 873:Libraries/STM32F1xx_HAL_Driver/Src/stm32f1xx_hal_i2s.c ****       SET_BIT(hi2s->Instance->CR2, SPI_CR2_TXDMAEN);
 874:Libraries/STM32F1xx_HAL_Driver/Src/stm32f1xx_hal_i2s.c ****     }
 875:Libraries/STM32F1xx_HAL_Driver/Src/stm32f1xx_hal_i2s.c **** 
 876:Libraries/STM32F1xx_HAL_Driver/Src/stm32f1xx_hal_i2s.c ****     /* Process Unlocked */
 877:Libraries/STM32F1xx_HAL_Driver/Src/stm32f1xx_hal_i2s.c ****     __HAL_UNLOCK(hi2s);
 878:Libraries/STM32F1xx_HAL_Driver/Src/stm32f1xx_hal_i2s.c **** 
 879:Libraries/STM32F1xx_HAL_Driver/Src/stm32f1xx_hal_i2s.c ****     return HAL_OK;
 880:Libraries/STM32F1xx_HAL_Driver/Src/stm32f1xx_hal_i2s.c ****   }
 881:Libraries/STM32F1xx_HAL_Driver/Src/stm32f1xx_hal_i2s.c ****   else
 882:Libraries/STM32F1xx_HAL_Driver/Src/stm32f1xx_hal_i2s.c ****   {
 883:Libraries/STM32F1xx_HAL_Driver/Src/stm32f1xx_hal_i2s.c ****     return HAL_BUSY;
 884:Libraries/STM32F1xx_HAL_Driver/Src/stm32f1xx_hal_i2s.c ****   }
 885:Libraries/STM32F1xx_HAL_Driver/Src/stm32f1xx_hal_i2s.c **** }
 886:Libraries/STM32F1xx_HAL_Driver/Src/stm32f1xx_hal_i2s.c **** 
 887:Libraries/STM32F1xx_HAL_Driver/Src/stm32f1xx_hal_i2s.c **** /**
 888:Libraries/STM32F1xx_HAL_Driver/Src/stm32f1xx_hal_i2s.c ****   * @brief Receive an amount of data in non-blocking mode with DMA
 889:Libraries/STM32F1xx_HAL_Driver/Src/stm32f1xx_hal_i2s.c ****   * @param  hi2s: pointer to a I2S_HandleTypeDef structure that contains
ARM GAS  /tmp/cc1Hj1lD.s 			page 17


 890:Libraries/STM32F1xx_HAL_Driver/Src/stm32f1xx_hal_i2s.c ****   *         the configuration information for I2S module
 891:Libraries/STM32F1xx_HAL_Driver/Src/stm32f1xx_hal_i2s.c ****   * @param pData: a 16-bit pointer to the Receive data buffer.
 892:Libraries/STM32F1xx_HAL_Driver/Src/stm32f1xx_hal_i2s.c ****   * @param Size: number of data sample to be sent:
 893:Libraries/STM32F1xx_HAL_Driver/Src/stm32f1xx_hal_i2s.c ****   * @note When a 16-bit data frame or a 16-bit data frame extended is selected during the I2S
 894:Libraries/STM32F1xx_HAL_Driver/Src/stm32f1xx_hal_i2s.c ****   *       configuration phase, the Size parameter means the number of 16-bit data length
 895:Libraries/STM32F1xx_HAL_Driver/Src/stm32f1xx_hal_i2s.c ****   *       in the transaction and when a 24-bit data frame or a 32-bit data frame is selected
 896:Libraries/STM32F1xx_HAL_Driver/Src/stm32f1xx_hal_i2s.c ****   *       the Size parameter means the number of 16-bit data length.
 897:Libraries/STM32F1xx_HAL_Driver/Src/stm32f1xx_hal_i2s.c ****   * @note The I2S is kept enabled at the end of transaction to avoid the clock de-synchronization
 898:Libraries/STM32F1xx_HAL_Driver/Src/stm32f1xx_hal_i2s.c ****   *       between Master and Slave(example: audio streaming).
 899:Libraries/STM32F1xx_HAL_Driver/Src/stm32f1xx_hal_i2s.c ****   * @retval HAL status
 900:Libraries/STM32F1xx_HAL_Driver/Src/stm32f1xx_hal_i2s.c ****   */
 901:Libraries/STM32F1xx_HAL_Driver/Src/stm32f1xx_hal_i2s.c **** HAL_StatusTypeDef HAL_I2S_Receive_DMA(I2S_HandleTypeDef *hi2s, uint16_t *pData, uint16_t Size)
 902:Libraries/STM32F1xx_HAL_Driver/Src/stm32f1xx_hal_i2s.c **** {
 903:Libraries/STM32F1xx_HAL_Driver/Src/stm32f1xx_hal_i2s.c ****   uint32_t *tmp = NULL;
 904:Libraries/STM32F1xx_HAL_Driver/Src/stm32f1xx_hal_i2s.c ****   uint32_t tmp1 = 0U;
 905:Libraries/STM32F1xx_HAL_Driver/Src/stm32f1xx_hal_i2s.c **** 
 906:Libraries/STM32F1xx_HAL_Driver/Src/stm32f1xx_hal_i2s.c ****   if((pData == NULL) || (Size == 0U))
 907:Libraries/STM32F1xx_HAL_Driver/Src/stm32f1xx_hal_i2s.c ****   {
 908:Libraries/STM32F1xx_HAL_Driver/Src/stm32f1xx_hal_i2s.c ****     return  HAL_ERROR;
 909:Libraries/STM32F1xx_HAL_Driver/Src/stm32f1xx_hal_i2s.c ****   }
 910:Libraries/STM32F1xx_HAL_Driver/Src/stm32f1xx_hal_i2s.c **** 
 911:Libraries/STM32F1xx_HAL_Driver/Src/stm32f1xx_hal_i2s.c ****   if(hi2s->State == HAL_I2S_STATE_READY)
 912:Libraries/STM32F1xx_HAL_Driver/Src/stm32f1xx_hal_i2s.c ****   {
 913:Libraries/STM32F1xx_HAL_Driver/Src/stm32f1xx_hal_i2s.c ****     hi2s->pRxBuffPtr = pData;
 914:Libraries/STM32F1xx_HAL_Driver/Src/stm32f1xx_hal_i2s.c ****     tmp1 = hi2s->Instance->I2SCFGR & (SPI_I2SCFGR_DATLEN | SPI_I2SCFGR_CHLEN);
 915:Libraries/STM32F1xx_HAL_Driver/Src/stm32f1xx_hal_i2s.c ****     if((tmp1 == I2S_DATAFORMAT_24B) || (tmp1 == I2S_DATAFORMAT_32B))
 916:Libraries/STM32F1xx_HAL_Driver/Src/stm32f1xx_hal_i2s.c ****     {
 917:Libraries/STM32F1xx_HAL_Driver/Src/stm32f1xx_hal_i2s.c ****       hi2s->RxXferSize  = (Size << 1U);
 918:Libraries/STM32F1xx_HAL_Driver/Src/stm32f1xx_hal_i2s.c ****       hi2s->RxXferCount = (Size << 1U);
 919:Libraries/STM32F1xx_HAL_Driver/Src/stm32f1xx_hal_i2s.c ****     }
 920:Libraries/STM32F1xx_HAL_Driver/Src/stm32f1xx_hal_i2s.c ****     else
 921:Libraries/STM32F1xx_HAL_Driver/Src/stm32f1xx_hal_i2s.c ****     {
 922:Libraries/STM32F1xx_HAL_Driver/Src/stm32f1xx_hal_i2s.c ****       hi2s->RxXferSize  = Size;
 923:Libraries/STM32F1xx_HAL_Driver/Src/stm32f1xx_hal_i2s.c ****       hi2s->RxXferCount = Size;
 924:Libraries/STM32F1xx_HAL_Driver/Src/stm32f1xx_hal_i2s.c ****     }
 925:Libraries/STM32F1xx_HAL_Driver/Src/stm32f1xx_hal_i2s.c ****     /* Process Locked */
 926:Libraries/STM32F1xx_HAL_Driver/Src/stm32f1xx_hal_i2s.c ****     __HAL_LOCK(hi2s);
 927:Libraries/STM32F1xx_HAL_Driver/Src/stm32f1xx_hal_i2s.c **** 
 928:Libraries/STM32F1xx_HAL_Driver/Src/stm32f1xx_hal_i2s.c ****     hi2s->State     = HAL_I2S_STATE_BUSY_RX;
 929:Libraries/STM32F1xx_HAL_Driver/Src/stm32f1xx_hal_i2s.c ****     hi2s->ErrorCode = HAL_I2S_ERROR_NONE;
 930:Libraries/STM32F1xx_HAL_Driver/Src/stm32f1xx_hal_i2s.c **** 
 931:Libraries/STM32F1xx_HAL_Driver/Src/stm32f1xx_hal_i2s.c ****     /* Set the I2S Rx DMA Half transfer complete callback */
 932:Libraries/STM32F1xx_HAL_Driver/Src/stm32f1xx_hal_i2s.c ****     hi2s->hdmarx->XferHalfCpltCallback = I2S_DMARxHalfCplt;
 933:Libraries/STM32F1xx_HAL_Driver/Src/stm32f1xx_hal_i2s.c **** 
 934:Libraries/STM32F1xx_HAL_Driver/Src/stm32f1xx_hal_i2s.c ****     /* Set the I2S Rx DMA transfer complete callback */
 935:Libraries/STM32F1xx_HAL_Driver/Src/stm32f1xx_hal_i2s.c ****     hi2s->hdmarx->XferCpltCallback = I2S_DMARxCplt;
 936:Libraries/STM32F1xx_HAL_Driver/Src/stm32f1xx_hal_i2s.c **** 
 937:Libraries/STM32F1xx_HAL_Driver/Src/stm32f1xx_hal_i2s.c ****     /* Set the DMA error callback */
 938:Libraries/STM32F1xx_HAL_Driver/Src/stm32f1xx_hal_i2s.c ****     hi2s->hdmarx->XferErrorCallback = I2S_DMAError;
 939:Libraries/STM32F1xx_HAL_Driver/Src/stm32f1xx_hal_i2s.c **** 
 940:Libraries/STM32F1xx_HAL_Driver/Src/stm32f1xx_hal_i2s.c ****     /* Check if Master Receiver mode is selected */
 941:Libraries/STM32F1xx_HAL_Driver/Src/stm32f1xx_hal_i2s.c ****     if((hi2s->Instance->I2SCFGR & SPI_I2SCFGR_I2SCFG) == I2S_MODE_MASTER_RX)
 942:Libraries/STM32F1xx_HAL_Driver/Src/stm32f1xx_hal_i2s.c ****     {
 943:Libraries/STM32F1xx_HAL_Driver/Src/stm32f1xx_hal_i2s.c ****       /* Clear the Overrun Flag by a read operation to the SPI_DR register followed by a read
 944:Libraries/STM32F1xx_HAL_Driver/Src/stm32f1xx_hal_i2s.c ****       access to the SPI_SR register. */
 945:Libraries/STM32F1xx_HAL_Driver/Src/stm32f1xx_hal_i2s.c ****       __HAL_I2S_CLEAR_OVRFLAG(hi2s);
 946:Libraries/STM32F1xx_HAL_Driver/Src/stm32f1xx_hal_i2s.c ****     }
ARM GAS  /tmp/cc1Hj1lD.s 			page 18


 947:Libraries/STM32F1xx_HAL_Driver/Src/stm32f1xx_hal_i2s.c **** 
 948:Libraries/STM32F1xx_HAL_Driver/Src/stm32f1xx_hal_i2s.c ****     /* Enable the Rx DMA Stream */
 949:Libraries/STM32F1xx_HAL_Driver/Src/stm32f1xx_hal_i2s.c ****     tmp = (uint32_t*)&pData;
 950:Libraries/STM32F1xx_HAL_Driver/Src/stm32f1xx_hal_i2s.c ****     HAL_DMA_Start_IT(hi2s->hdmarx, (uint32_t)&hi2s->Instance->DR, *(uint32_t*)tmp, hi2s->RxXferSize
 951:Libraries/STM32F1xx_HAL_Driver/Src/stm32f1xx_hal_i2s.c **** 
 952:Libraries/STM32F1xx_HAL_Driver/Src/stm32f1xx_hal_i2s.c ****     /* Check if the I2S is already enabled */
 953:Libraries/STM32F1xx_HAL_Driver/Src/stm32f1xx_hal_i2s.c ****     if((hi2s->Instance->I2SCFGR &SPI_I2SCFGR_I2SE) != SPI_I2SCFGR_I2SE)
 954:Libraries/STM32F1xx_HAL_Driver/Src/stm32f1xx_hal_i2s.c ****     {
 955:Libraries/STM32F1xx_HAL_Driver/Src/stm32f1xx_hal_i2s.c ****       /* Enable I2S peripheral */
 956:Libraries/STM32F1xx_HAL_Driver/Src/stm32f1xx_hal_i2s.c ****       __HAL_I2S_ENABLE(hi2s);
 957:Libraries/STM32F1xx_HAL_Driver/Src/stm32f1xx_hal_i2s.c ****     }
 958:Libraries/STM32F1xx_HAL_Driver/Src/stm32f1xx_hal_i2s.c **** 
 959:Libraries/STM32F1xx_HAL_Driver/Src/stm32f1xx_hal_i2s.c ****      /* Check if the I2S Rx request is already enabled */
 960:Libraries/STM32F1xx_HAL_Driver/Src/stm32f1xx_hal_i2s.c ****     if((hi2s->Instance->CR2 &SPI_CR2_RXDMAEN) != SPI_CR2_RXDMAEN)
 961:Libraries/STM32F1xx_HAL_Driver/Src/stm32f1xx_hal_i2s.c ****     {
 962:Libraries/STM32F1xx_HAL_Driver/Src/stm32f1xx_hal_i2s.c ****       /* Enable Rx DMA Request */
 963:Libraries/STM32F1xx_HAL_Driver/Src/stm32f1xx_hal_i2s.c ****       SET_BIT(hi2s->Instance->CR2,SPI_CR2_RXDMAEN);
 964:Libraries/STM32F1xx_HAL_Driver/Src/stm32f1xx_hal_i2s.c ****     }
 965:Libraries/STM32F1xx_HAL_Driver/Src/stm32f1xx_hal_i2s.c **** 
 966:Libraries/STM32F1xx_HAL_Driver/Src/stm32f1xx_hal_i2s.c ****     /* Process Unlocked */
 967:Libraries/STM32F1xx_HAL_Driver/Src/stm32f1xx_hal_i2s.c ****     __HAL_UNLOCK(hi2s);
 968:Libraries/STM32F1xx_HAL_Driver/Src/stm32f1xx_hal_i2s.c **** 
 969:Libraries/STM32F1xx_HAL_Driver/Src/stm32f1xx_hal_i2s.c ****     return HAL_OK;
 970:Libraries/STM32F1xx_HAL_Driver/Src/stm32f1xx_hal_i2s.c ****   }
 971:Libraries/STM32F1xx_HAL_Driver/Src/stm32f1xx_hal_i2s.c ****   else
 972:Libraries/STM32F1xx_HAL_Driver/Src/stm32f1xx_hal_i2s.c ****   {
 973:Libraries/STM32F1xx_HAL_Driver/Src/stm32f1xx_hal_i2s.c ****     return HAL_BUSY;
 974:Libraries/STM32F1xx_HAL_Driver/Src/stm32f1xx_hal_i2s.c ****   }
 975:Libraries/STM32F1xx_HAL_Driver/Src/stm32f1xx_hal_i2s.c **** }
 976:Libraries/STM32F1xx_HAL_Driver/Src/stm32f1xx_hal_i2s.c **** 
 977:Libraries/STM32F1xx_HAL_Driver/Src/stm32f1xx_hal_i2s.c **** /**
 978:Libraries/STM32F1xx_HAL_Driver/Src/stm32f1xx_hal_i2s.c ****   * @brief Pauses the audio channel playing from the Media.
 979:Libraries/STM32F1xx_HAL_Driver/Src/stm32f1xx_hal_i2s.c ****   * @param  hi2s: pointer to a I2S_HandleTypeDef structure that contains
 980:Libraries/STM32F1xx_HAL_Driver/Src/stm32f1xx_hal_i2s.c ****   *         the configuration information for I2S module
 981:Libraries/STM32F1xx_HAL_Driver/Src/stm32f1xx_hal_i2s.c ****   * @retval HAL status
 982:Libraries/STM32F1xx_HAL_Driver/Src/stm32f1xx_hal_i2s.c ****   */
 983:Libraries/STM32F1xx_HAL_Driver/Src/stm32f1xx_hal_i2s.c **** HAL_StatusTypeDef HAL_I2S_DMAPause(I2S_HandleTypeDef *hi2s)
 984:Libraries/STM32F1xx_HAL_Driver/Src/stm32f1xx_hal_i2s.c **** {
 985:Libraries/STM32F1xx_HAL_Driver/Src/stm32f1xx_hal_i2s.c ****   /* Process Locked */
 986:Libraries/STM32F1xx_HAL_Driver/Src/stm32f1xx_hal_i2s.c ****   __HAL_LOCK(hi2s);
 987:Libraries/STM32F1xx_HAL_Driver/Src/stm32f1xx_hal_i2s.c **** 
 988:Libraries/STM32F1xx_HAL_Driver/Src/stm32f1xx_hal_i2s.c ****   if(hi2s->State == HAL_I2S_STATE_BUSY_TX)
 989:Libraries/STM32F1xx_HAL_Driver/Src/stm32f1xx_hal_i2s.c ****   {
 990:Libraries/STM32F1xx_HAL_Driver/Src/stm32f1xx_hal_i2s.c ****     /* Disable the I2S DMA Tx request */
 991:Libraries/STM32F1xx_HAL_Driver/Src/stm32f1xx_hal_i2s.c ****     CLEAR_BIT(hi2s->Instance->CR2,SPI_CR2_TXDMAEN);
 992:Libraries/STM32F1xx_HAL_Driver/Src/stm32f1xx_hal_i2s.c ****   }
 993:Libraries/STM32F1xx_HAL_Driver/Src/stm32f1xx_hal_i2s.c ****   else if(hi2s->State == HAL_I2S_STATE_BUSY_RX)
 994:Libraries/STM32F1xx_HAL_Driver/Src/stm32f1xx_hal_i2s.c ****   {
 995:Libraries/STM32F1xx_HAL_Driver/Src/stm32f1xx_hal_i2s.c ****     /* Disable the I2S DMA Rx request */
 996:Libraries/STM32F1xx_HAL_Driver/Src/stm32f1xx_hal_i2s.c ****     CLEAR_BIT(hi2s->Instance->CR2,SPI_CR2_RXDMAEN);
 997:Libraries/STM32F1xx_HAL_Driver/Src/stm32f1xx_hal_i2s.c ****   }
 998:Libraries/STM32F1xx_HAL_Driver/Src/stm32f1xx_hal_i2s.c **** 
 999:Libraries/STM32F1xx_HAL_Driver/Src/stm32f1xx_hal_i2s.c ****   /* Process Unlocked */
1000:Libraries/STM32F1xx_HAL_Driver/Src/stm32f1xx_hal_i2s.c ****   __HAL_UNLOCK(hi2s);
1001:Libraries/STM32F1xx_HAL_Driver/Src/stm32f1xx_hal_i2s.c **** 
1002:Libraries/STM32F1xx_HAL_Driver/Src/stm32f1xx_hal_i2s.c ****   return HAL_OK;
1003:Libraries/STM32F1xx_HAL_Driver/Src/stm32f1xx_hal_i2s.c **** }
ARM GAS  /tmp/cc1Hj1lD.s 			page 19


1004:Libraries/STM32F1xx_HAL_Driver/Src/stm32f1xx_hal_i2s.c **** 
1005:Libraries/STM32F1xx_HAL_Driver/Src/stm32f1xx_hal_i2s.c **** /**
1006:Libraries/STM32F1xx_HAL_Driver/Src/stm32f1xx_hal_i2s.c ****   * @brief Resumes the audio channel playing from the Media.
1007:Libraries/STM32F1xx_HAL_Driver/Src/stm32f1xx_hal_i2s.c ****   * @param  hi2s: pointer to a I2S_HandleTypeDef structure that contains
1008:Libraries/STM32F1xx_HAL_Driver/Src/stm32f1xx_hal_i2s.c ****   *         the configuration information for I2S module
1009:Libraries/STM32F1xx_HAL_Driver/Src/stm32f1xx_hal_i2s.c ****   * @retval HAL status
1010:Libraries/STM32F1xx_HAL_Driver/Src/stm32f1xx_hal_i2s.c ****   */
1011:Libraries/STM32F1xx_HAL_Driver/Src/stm32f1xx_hal_i2s.c **** HAL_StatusTypeDef HAL_I2S_DMAResume(I2S_HandleTypeDef *hi2s)
1012:Libraries/STM32F1xx_HAL_Driver/Src/stm32f1xx_hal_i2s.c **** {
1013:Libraries/STM32F1xx_HAL_Driver/Src/stm32f1xx_hal_i2s.c ****   /* Process Locked */
1014:Libraries/STM32F1xx_HAL_Driver/Src/stm32f1xx_hal_i2s.c ****   __HAL_LOCK(hi2s);
1015:Libraries/STM32F1xx_HAL_Driver/Src/stm32f1xx_hal_i2s.c **** 
1016:Libraries/STM32F1xx_HAL_Driver/Src/stm32f1xx_hal_i2s.c ****   if(hi2s->State == HAL_I2S_STATE_BUSY_TX)
1017:Libraries/STM32F1xx_HAL_Driver/Src/stm32f1xx_hal_i2s.c ****   {
1018:Libraries/STM32F1xx_HAL_Driver/Src/stm32f1xx_hal_i2s.c ****     /* Enable the I2S DMA Tx request */
1019:Libraries/STM32F1xx_HAL_Driver/Src/stm32f1xx_hal_i2s.c ****     SET_BIT(hi2s->Instance->CR2,SPI_CR2_TXDMAEN);
1020:Libraries/STM32F1xx_HAL_Driver/Src/stm32f1xx_hal_i2s.c ****   }
1021:Libraries/STM32F1xx_HAL_Driver/Src/stm32f1xx_hal_i2s.c ****   else if(hi2s->State == HAL_I2S_STATE_BUSY_RX)
1022:Libraries/STM32F1xx_HAL_Driver/Src/stm32f1xx_hal_i2s.c ****   {
1023:Libraries/STM32F1xx_HAL_Driver/Src/stm32f1xx_hal_i2s.c ****     /* Enable the I2S DMA Rx request */
1024:Libraries/STM32F1xx_HAL_Driver/Src/stm32f1xx_hal_i2s.c ****     SET_BIT(hi2s->Instance->CR2,SPI_CR2_RXDMAEN);
1025:Libraries/STM32F1xx_HAL_Driver/Src/stm32f1xx_hal_i2s.c ****   }
1026:Libraries/STM32F1xx_HAL_Driver/Src/stm32f1xx_hal_i2s.c ****   
1027:Libraries/STM32F1xx_HAL_Driver/Src/stm32f1xx_hal_i2s.c ****   /* If the I2S peripheral is still not enabled, enable it */
1028:Libraries/STM32F1xx_HAL_Driver/Src/stm32f1xx_hal_i2s.c ****   if ((hi2s->Instance->I2SCFGR & SPI_I2SCFGR_I2SE) == 0U)
1029:Libraries/STM32F1xx_HAL_Driver/Src/stm32f1xx_hal_i2s.c ****   {
1030:Libraries/STM32F1xx_HAL_Driver/Src/stm32f1xx_hal_i2s.c ****     /* Enable I2S peripheral */
1031:Libraries/STM32F1xx_HAL_Driver/Src/stm32f1xx_hal_i2s.c ****     __HAL_I2S_ENABLE(hi2s);
1032:Libraries/STM32F1xx_HAL_Driver/Src/stm32f1xx_hal_i2s.c ****   }
1033:Libraries/STM32F1xx_HAL_Driver/Src/stm32f1xx_hal_i2s.c **** 
1034:Libraries/STM32F1xx_HAL_Driver/Src/stm32f1xx_hal_i2s.c ****   /* Process Unlocked */
1035:Libraries/STM32F1xx_HAL_Driver/Src/stm32f1xx_hal_i2s.c ****   __HAL_UNLOCK(hi2s);
1036:Libraries/STM32F1xx_HAL_Driver/Src/stm32f1xx_hal_i2s.c **** 
1037:Libraries/STM32F1xx_HAL_Driver/Src/stm32f1xx_hal_i2s.c ****   return HAL_OK;
1038:Libraries/STM32F1xx_HAL_Driver/Src/stm32f1xx_hal_i2s.c **** }
1039:Libraries/STM32F1xx_HAL_Driver/Src/stm32f1xx_hal_i2s.c **** 
1040:Libraries/STM32F1xx_HAL_Driver/Src/stm32f1xx_hal_i2s.c **** /**
1041:Libraries/STM32F1xx_HAL_Driver/Src/stm32f1xx_hal_i2s.c ****   * @brief Resumes the audio channel playing from the Media.
1042:Libraries/STM32F1xx_HAL_Driver/Src/stm32f1xx_hal_i2s.c ****   * @param  hi2s: pointer to a I2S_HandleTypeDef structure that contains
1043:Libraries/STM32F1xx_HAL_Driver/Src/stm32f1xx_hal_i2s.c ****   *         the configuration information for I2S module
1044:Libraries/STM32F1xx_HAL_Driver/Src/stm32f1xx_hal_i2s.c ****   * @retval HAL status
1045:Libraries/STM32F1xx_HAL_Driver/Src/stm32f1xx_hal_i2s.c ****   */
1046:Libraries/STM32F1xx_HAL_Driver/Src/stm32f1xx_hal_i2s.c **** HAL_StatusTypeDef HAL_I2S_DMAStop(I2S_HandleTypeDef *hi2s)
1047:Libraries/STM32F1xx_HAL_Driver/Src/stm32f1xx_hal_i2s.c **** {
1048:Libraries/STM32F1xx_HAL_Driver/Src/stm32f1xx_hal_i2s.c ****   /* Process Locked */
1049:Libraries/STM32F1xx_HAL_Driver/Src/stm32f1xx_hal_i2s.c ****   __HAL_LOCK(hi2s);
1050:Libraries/STM32F1xx_HAL_Driver/Src/stm32f1xx_hal_i2s.c **** 
1051:Libraries/STM32F1xx_HAL_Driver/Src/stm32f1xx_hal_i2s.c ****   if(hi2s->State == HAL_I2S_STATE_BUSY_TX)
1052:Libraries/STM32F1xx_HAL_Driver/Src/stm32f1xx_hal_i2s.c ****   {
1053:Libraries/STM32F1xx_HAL_Driver/Src/stm32f1xx_hal_i2s.c ****     /* Disable the I2S DMA requests */
1054:Libraries/STM32F1xx_HAL_Driver/Src/stm32f1xx_hal_i2s.c ****     CLEAR_BIT(hi2s->Instance->CR2,SPI_CR2_TXDMAEN);
1055:Libraries/STM32F1xx_HAL_Driver/Src/stm32f1xx_hal_i2s.c **** 
1056:Libraries/STM32F1xx_HAL_Driver/Src/stm32f1xx_hal_i2s.c ****     /* Disable the I2S DMA Channel */
1057:Libraries/STM32F1xx_HAL_Driver/Src/stm32f1xx_hal_i2s.c ****     HAL_DMA_Abort(hi2s->hdmatx);
1058:Libraries/STM32F1xx_HAL_Driver/Src/stm32f1xx_hal_i2s.c ****   }
1059:Libraries/STM32F1xx_HAL_Driver/Src/stm32f1xx_hal_i2s.c ****   else if(hi2s->State == HAL_I2S_STATE_BUSY_RX)
1060:Libraries/STM32F1xx_HAL_Driver/Src/stm32f1xx_hal_i2s.c ****   {
ARM GAS  /tmp/cc1Hj1lD.s 			page 20


1061:Libraries/STM32F1xx_HAL_Driver/Src/stm32f1xx_hal_i2s.c ****     /* Disable the I2S DMA requests */
1062:Libraries/STM32F1xx_HAL_Driver/Src/stm32f1xx_hal_i2s.c ****     CLEAR_BIT(hi2s->Instance->CR2,SPI_CR2_RXDMAEN);
1063:Libraries/STM32F1xx_HAL_Driver/Src/stm32f1xx_hal_i2s.c **** 
1064:Libraries/STM32F1xx_HAL_Driver/Src/stm32f1xx_hal_i2s.c ****     /* Disable the I2S DMA Channel */
1065:Libraries/STM32F1xx_HAL_Driver/Src/stm32f1xx_hal_i2s.c ****     HAL_DMA_Abort(hi2s->hdmarx);
1066:Libraries/STM32F1xx_HAL_Driver/Src/stm32f1xx_hal_i2s.c ****   }
1067:Libraries/STM32F1xx_HAL_Driver/Src/stm32f1xx_hal_i2s.c ****   /* Disable I2S peripheral */
1068:Libraries/STM32F1xx_HAL_Driver/Src/stm32f1xx_hal_i2s.c ****   __HAL_I2S_DISABLE(hi2s);
1069:Libraries/STM32F1xx_HAL_Driver/Src/stm32f1xx_hal_i2s.c **** 
1070:Libraries/STM32F1xx_HAL_Driver/Src/stm32f1xx_hal_i2s.c ****   hi2s->State = HAL_I2S_STATE_READY;
1071:Libraries/STM32F1xx_HAL_Driver/Src/stm32f1xx_hal_i2s.c **** 
1072:Libraries/STM32F1xx_HAL_Driver/Src/stm32f1xx_hal_i2s.c ****   /* Process Unlocked */
1073:Libraries/STM32F1xx_HAL_Driver/Src/stm32f1xx_hal_i2s.c ****   __HAL_UNLOCK(hi2s);
1074:Libraries/STM32F1xx_HAL_Driver/Src/stm32f1xx_hal_i2s.c **** 
1075:Libraries/STM32F1xx_HAL_Driver/Src/stm32f1xx_hal_i2s.c ****   return HAL_OK;
1076:Libraries/STM32F1xx_HAL_Driver/Src/stm32f1xx_hal_i2s.c **** }
1077:Libraries/STM32F1xx_HAL_Driver/Src/stm32f1xx_hal_i2s.c **** 
1078:Libraries/STM32F1xx_HAL_Driver/Src/stm32f1xx_hal_i2s.c **** /**
1079:Libraries/STM32F1xx_HAL_Driver/Src/stm32f1xx_hal_i2s.c ****   * @brief  This function handles I2S interrupt request.
1080:Libraries/STM32F1xx_HAL_Driver/Src/stm32f1xx_hal_i2s.c ****   * @param  hi2s: pointer to a I2S_HandleTypeDef structure that contains
1081:Libraries/STM32F1xx_HAL_Driver/Src/stm32f1xx_hal_i2s.c ****   *         the configuration information for I2S module
1082:Libraries/STM32F1xx_HAL_Driver/Src/stm32f1xx_hal_i2s.c ****   * @retval None
1083:Libraries/STM32F1xx_HAL_Driver/Src/stm32f1xx_hal_i2s.c ****   */
1084:Libraries/STM32F1xx_HAL_Driver/Src/stm32f1xx_hal_i2s.c **** void HAL_I2S_IRQHandler(I2S_HandleTypeDef *hi2s)
1085:Libraries/STM32F1xx_HAL_Driver/Src/stm32f1xx_hal_i2s.c **** {
1086:Libraries/STM32F1xx_HAL_Driver/Src/stm32f1xx_hal_i2s.c ****   /* Call the IrqHandler ISR set during HAL_I2S_INIT */
1087:Libraries/STM32F1xx_HAL_Driver/Src/stm32f1xx_hal_i2s.c ****   hi2s->IrqHandlerISR(hi2s);
1088:Libraries/STM32F1xx_HAL_Driver/Src/stm32f1xx_hal_i2s.c **** }
1089:Libraries/STM32F1xx_HAL_Driver/Src/stm32f1xx_hal_i2s.c **** 
1090:Libraries/STM32F1xx_HAL_Driver/Src/stm32f1xx_hal_i2s.c **** /**
1091:Libraries/STM32F1xx_HAL_Driver/Src/stm32f1xx_hal_i2s.c ****   * @brief Tx Transfer Half completed callbacks
1092:Libraries/STM32F1xx_HAL_Driver/Src/stm32f1xx_hal_i2s.c ****   * @param  hi2s: pointer to a I2S_HandleTypeDef structure that contains
1093:Libraries/STM32F1xx_HAL_Driver/Src/stm32f1xx_hal_i2s.c ****   *         the configuration information for I2S module
1094:Libraries/STM32F1xx_HAL_Driver/Src/stm32f1xx_hal_i2s.c ****   * @retval None
1095:Libraries/STM32F1xx_HAL_Driver/Src/stm32f1xx_hal_i2s.c ****   */
1096:Libraries/STM32F1xx_HAL_Driver/Src/stm32f1xx_hal_i2s.c ****  __weak void HAL_I2S_TxHalfCpltCallback(I2S_HandleTypeDef *hi2s)
1097:Libraries/STM32F1xx_HAL_Driver/Src/stm32f1xx_hal_i2s.c **** {
1098:Libraries/STM32F1xx_HAL_Driver/Src/stm32f1xx_hal_i2s.c ****   /* Prevent unused argument(s) compilation warning */
1099:Libraries/STM32F1xx_HAL_Driver/Src/stm32f1xx_hal_i2s.c ****   UNUSED(hi2s);
1100:Libraries/STM32F1xx_HAL_Driver/Src/stm32f1xx_hal_i2s.c ****   /* NOTE : This function Should not be modified, when the callback is needed,
1101:Libraries/STM32F1xx_HAL_Driver/Src/stm32f1xx_hal_i2s.c ****             the HAL_I2S_TxHalfCpltCallback could be implemented in the user file
1102:Libraries/STM32F1xx_HAL_Driver/Src/stm32f1xx_hal_i2s.c ****    */
1103:Libraries/STM32F1xx_HAL_Driver/Src/stm32f1xx_hal_i2s.c **** }
1104:Libraries/STM32F1xx_HAL_Driver/Src/stm32f1xx_hal_i2s.c **** 
1105:Libraries/STM32F1xx_HAL_Driver/Src/stm32f1xx_hal_i2s.c **** /**
1106:Libraries/STM32F1xx_HAL_Driver/Src/stm32f1xx_hal_i2s.c ****   * @brief Tx Transfer completed callbacks
1107:Libraries/STM32F1xx_HAL_Driver/Src/stm32f1xx_hal_i2s.c ****   * @param  hi2s: pointer to a I2S_HandleTypeDef structure that contains
1108:Libraries/STM32F1xx_HAL_Driver/Src/stm32f1xx_hal_i2s.c ****   *         the configuration information for I2S module
1109:Libraries/STM32F1xx_HAL_Driver/Src/stm32f1xx_hal_i2s.c ****   * @retval None
1110:Libraries/STM32F1xx_HAL_Driver/Src/stm32f1xx_hal_i2s.c ****   */
1111:Libraries/STM32F1xx_HAL_Driver/Src/stm32f1xx_hal_i2s.c ****  __weak void HAL_I2S_TxCpltCallback(I2S_HandleTypeDef *hi2s)
1112:Libraries/STM32F1xx_HAL_Driver/Src/stm32f1xx_hal_i2s.c **** {
1113:Libraries/STM32F1xx_HAL_Driver/Src/stm32f1xx_hal_i2s.c ****   /* Prevent unused argument(s) compilation warning */
1114:Libraries/STM32F1xx_HAL_Driver/Src/stm32f1xx_hal_i2s.c ****   UNUSED(hi2s);
1115:Libraries/STM32F1xx_HAL_Driver/Src/stm32f1xx_hal_i2s.c ****   /* NOTE : This function Should not be modified, when the callback is needed,
1116:Libraries/STM32F1xx_HAL_Driver/Src/stm32f1xx_hal_i2s.c ****             the HAL_I2S_TxCpltCallback could be implemented in the user file
1117:Libraries/STM32F1xx_HAL_Driver/Src/stm32f1xx_hal_i2s.c ****    */
ARM GAS  /tmp/cc1Hj1lD.s 			page 21


1118:Libraries/STM32F1xx_HAL_Driver/Src/stm32f1xx_hal_i2s.c **** }
1119:Libraries/STM32F1xx_HAL_Driver/Src/stm32f1xx_hal_i2s.c **** 
1120:Libraries/STM32F1xx_HAL_Driver/Src/stm32f1xx_hal_i2s.c **** /**
1121:Libraries/STM32F1xx_HAL_Driver/Src/stm32f1xx_hal_i2s.c ****   * @brief Rx Transfer half completed callbacks
1122:Libraries/STM32F1xx_HAL_Driver/Src/stm32f1xx_hal_i2s.c ****   * @param  hi2s: pointer to a I2S_HandleTypeDef structure that contains
1123:Libraries/STM32F1xx_HAL_Driver/Src/stm32f1xx_hal_i2s.c ****   *         the configuration information for I2S module
1124:Libraries/STM32F1xx_HAL_Driver/Src/stm32f1xx_hal_i2s.c ****   * @retval None
1125:Libraries/STM32F1xx_HAL_Driver/Src/stm32f1xx_hal_i2s.c ****   */
1126:Libraries/STM32F1xx_HAL_Driver/Src/stm32f1xx_hal_i2s.c **** __weak void HAL_I2S_RxHalfCpltCallback(I2S_HandleTypeDef *hi2s)
1127:Libraries/STM32F1xx_HAL_Driver/Src/stm32f1xx_hal_i2s.c **** {
1128:Libraries/STM32F1xx_HAL_Driver/Src/stm32f1xx_hal_i2s.c ****   /* Prevent unused argument(s) compilation warning */
1129:Libraries/STM32F1xx_HAL_Driver/Src/stm32f1xx_hal_i2s.c ****   UNUSED(hi2s);
1130:Libraries/STM32F1xx_HAL_Driver/Src/stm32f1xx_hal_i2s.c ****   /* NOTE : This function Should not be modified, when the callback is needed,
1131:Libraries/STM32F1xx_HAL_Driver/Src/stm32f1xx_hal_i2s.c ****             the HAL_I2S_RxHalfCpltCallback could be implemented in the user file
1132:Libraries/STM32F1xx_HAL_Driver/Src/stm32f1xx_hal_i2s.c ****    */
1133:Libraries/STM32F1xx_HAL_Driver/Src/stm32f1xx_hal_i2s.c **** }
1134:Libraries/STM32F1xx_HAL_Driver/Src/stm32f1xx_hal_i2s.c **** 
1135:Libraries/STM32F1xx_HAL_Driver/Src/stm32f1xx_hal_i2s.c **** /**
1136:Libraries/STM32F1xx_HAL_Driver/Src/stm32f1xx_hal_i2s.c ****   * @brief Rx Transfer completed callbacks
1137:Libraries/STM32F1xx_HAL_Driver/Src/stm32f1xx_hal_i2s.c ****   * @param  hi2s: pointer to a I2S_HandleTypeDef structure that contains
1138:Libraries/STM32F1xx_HAL_Driver/Src/stm32f1xx_hal_i2s.c ****   *         the configuration information for I2S module
1139:Libraries/STM32F1xx_HAL_Driver/Src/stm32f1xx_hal_i2s.c ****   * @retval None
1140:Libraries/STM32F1xx_HAL_Driver/Src/stm32f1xx_hal_i2s.c ****   */
1141:Libraries/STM32F1xx_HAL_Driver/Src/stm32f1xx_hal_i2s.c **** __weak void HAL_I2S_RxCpltCallback(I2S_HandleTypeDef *hi2s)
1142:Libraries/STM32F1xx_HAL_Driver/Src/stm32f1xx_hal_i2s.c **** {
1143:Libraries/STM32F1xx_HAL_Driver/Src/stm32f1xx_hal_i2s.c ****   /* Prevent unused argument(s) compilation warning */
1144:Libraries/STM32F1xx_HAL_Driver/Src/stm32f1xx_hal_i2s.c ****   UNUSED(hi2s);
1145:Libraries/STM32F1xx_HAL_Driver/Src/stm32f1xx_hal_i2s.c ****   /* NOTE : This function Should not be modified, when the callback is needed,
1146:Libraries/STM32F1xx_HAL_Driver/Src/stm32f1xx_hal_i2s.c ****             the HAL_I2S_RxCpltCallback could be implemented in the user file
1147:Libraries/STM32F1xx_HAL_Driver/Src/stm32f1xx_hal_i2s.c ****    */
1148:Libraries/STM32F1xx_HAL_Driver/Src/stm32f1xx_hal_i2s.c **** }
1149:Libraries/STM32F1xx_HAL_Driver/Src/stm32f1xx_hal_i2s.c **** 
1150:Libraries/STM32F1xx_HAL_Driver/Src/stm32f1xx_hal_i2s.c **** /**
1151:Libraries/STM32F1xx_HAL_Driver/Src/stm32f1xx_hal_i2s.c ****   * @brief I2S error callbacks
1152:Libraries/STM32F1xx_HAL_Driver/Src/stm32f1xx_hal_i2s.c ****   * @param  hi2s: pointer to a I2S_HandleTypeDef structure that contains
1153:Libraries/STM32F1xx_HAL_Driver/Src/stm32f1xx_hal_i2s.c ****   *         the configuration information for I2S module
1154:Libraries/STM32F1xx_HAL_Driver/Src/stm32f1xx_hal_i2s.c ****   * @retval None
1155:Libraries/STM32F1xx_HAL_Driver/Src/stm32f1xx_hal_i2s.c ****   */
1156:Libraries/STM32F1xx_HAL_Driver/Src/stm32f1xx_hal_i2s.c ****  __weak void HAL_I2S_ErrorCallback(I2S_HandleTypeDef *hi2s)
1157:Libraries/STM32F1xx_HAL_Driver/Src/stm32f1xx_hal_i2s.c **** {
1158:Libraries/STM32F1xx_HAL_Driver/Src/stm32f1xx_hal_i2s.c ****   /* Prevent unused argument(s) compilation warning */
1159:Libraries/STM32F1xx_HAL_Driver/Src/stm32f1xx_hal_i2s.c ****   UNUSED(hi2s);
1160:Libraries/STM32F1xx_HAL_Driver/Src/stm32f1xx_hal_i2s.c ****   /* NOTE : This function Should not be modified, when the callback is needed,
1161:Libraries/STM32F1xx_HAL_Driver/Src/stm32f1xx_hal_i2s.c ****             the HAL_I2S_ErrorCallback could be implemented in the user file
1162:Libraries/STM32F1xx_HAL_Driver/Src/stm32f1xx_hal_i2s.c ****    */
1163:Libraries/STM32F1xx_HAL_Driver/Src/stm32f1xx_hal_i2s.c **** }
1164:Libraries/STM32F1xx_HAL_Driver/Src/stm32f1xx_hal_i2s.c **** 
1165:Libraries/STM32F1xx_HAL_Driver/Src/stm32f1xx_hal_i2s.c **** /**
1166:Libraries/STM32F1xx_HAL_Driver/Src/stm32f1xx_hal_i2s.c ****   * @}
1167:Libraries/STM32F1xx_HAL_Driver/Src/stm32f1xx_hal_i2s.c ****   */
1168:Libraries/STM32F1xx_HAL_Driver/Src/stm32f1xx_hal_i2s.c **** 
1169:Libraries/STM32F1xx_HAL_Driver/Src/stm32f1xx_hal_i2s.c **** /** @defgroup I2S_Exported_Functions_Group3 Peripheral State and Errors functions 
1170:Libraries/STM32F1xx_HAL_Driver/Src/stm32f1xx_hal_i2s.c ****   *  @brief   Peripheral State functions 
1171:Libraries/STM32F1xx_HAL_Driver/Src/stm32f1xx_hal_i2s.c ****   *
1172:Libraries/STM32F1xx_HAL_Driver/Src/stm32f1xx_hal_i2s.c **** @verbatim
1173:Libraries/STM32F1xx_HAL_Driver/Src/stm32f1xx_hal_i2s.c ****  ===============================================================================
1174:Libraries/STM32F1xx_HAL_Driver/Src/stm32f1xx_hal_i2s.c ****                       ##### Peripheral State and Errors functions #####
ARM GAS  /tmp/cc1Hj1lD.s 			page 22


1175:Libraries/STM32F1xx_HAL_Driver/Src/stm32f1xx_hal_i2s.c ****  ===============================================================================
1176:Libraries/STM32F1xx_HAL_Driver/Src/stm32f1xx_hal_i2s.c ****     [..]
1177:Libraries/STM32F1xx_HAL_Driver/Src/stm32f1xx_hal_i2s.c ****     This subsection permits to get in run-time the status of the peripheral
1178:Libraries/STM32F1xx_HAL_Driver/Src/stm32f1xx_hal_i2s.c ****     and the data flow.
1179:Libraries/STM32F1xx_HAL_Driver/Src/stm32f1xx_hal_i2s.c **** 
1180:Libraries/STM32F1xx_HAL_Driver/Src/stm32f1xx_hal_i2s.c **** @endverbatim
1181:Libraries/STM32F1xx_HAL_Driver/Src/stm32f1xx_hal_i2s.c ****   * @{
1182:Libraries/STM32F1xx_HAL_Driver/Src/stm32f1xx_hal_i2s.c ****   */
1183:Libraries/STM32F1xx_HAL_Driver/Src/stm32f1xx_hal_i2s.c **** 
1184:Libraries/STM32F1xx_HAL_Driver/Src/stm32f1xx_hal_i2s.c **** /**
1185:Libraries/STM32F1xx_HAL_Driver/Src/stm32f1xx_hal_i2s.c ****   * @brief  Return the I2S state
1186:Libraries/STM32F1xx_HAL_Driver/Src/stm32f1xx_hal_i2s.c ****   * @param  hi2s: pointer to a I2S_HandleTypeDef structure that contains
1187:Libraries/STM32F1xx_HAL_Driver/Src/stm32f1xx_hal_i2s.c ****   *         the configuration information for I2S module
1188:Libraries/STM32F1xx_HAL_Driver/Src/stm32f1xx_hal_i2s.c ****   * @retval HAL state
1189:Libraries/STM32F1xx_HAL_Driver/Src/stm32f1xx_hal_i2s.c ****   */
1190:Libraries/STM32F1xx_HAL_Driver/Src/stm32f1xx_hal_i2s.c **** HAL_I2S_StateTypeDef HAL_I2S_GetState(I2S_HandleTypeDef *hi2s)
1191:Libraries/STM32F1xx_HAL_Driver/Src/stm32f1xx_hal_i2s.c **** {
1192:Libraries/STM32F1xx_HAL_Driver/Src/stm32f1xx_hal_i2s.c ****   return hi2s->State;
1193:Libraries/STM32F1xx_HAL_Driver/Src/stm32f1xx_hal_i2s.c **** }
1194:Libraries/STM32F1xx_HAL_Driver/Src/stm32f1xx_hal_i2s.c **** 
1195:Libraries/STM32F1xx_HAL_Driver/Src/stm32f1xx_hal_i2s.c **** /**
1196:Libraries/STM32F1xx_HAL_Driver/Src/stm32f1xx_hal_i2s.c ****   * @brief  Return the I2S error code
1197:Libraries/STM32F1xx_HAL_Driver/Src/stm32f1xx_hal_i2s.c ****   * @param  hi2s: pointer to a I2S_HandleTypeDef structure that contains
1198:Libraries/STM32F1xx_HAL_Driver/Src/stm32f1xx_hal_i2s.c ****   *         the configuration information for I2S module
1199:Libraries/STM32F1xx_HAL_Driver/Src/stm32f1xx_hal_i2s.c ****   * @retval I2S Error Code
1200:Libraries/STM32F1xx_HAL_Driver/Src/stm32f1xx_hal_i2s.c ****   */
1201:Libraries/STM32F1xx_HAL_Driver/Src/stm32f1xx_hal_i2s.c **** uint32_t HAL_I2S_GetError(I2S_HandleTypeDef *hi2s)
1202:Libraries/STM32F1xx_HAL_Driver/Src/stm32f1xx_hal_i2s.c **** {
1203:Libraries/STM32F1xx_HAL_Driver/Src/stm32f1xx_hal_i2s.c ****   return hi2s->ErrorCode;
1204:Libraries/STM32F1xx_HAL_Driver/Src/stm32f1xx_hal_i2s.c **** }
1205:Libraries/STM32F1xx_HAL_Driver/Src/stm32f1xx_hal_i2s.c **** /**
1206:Libraries/STM32F1xx_HAL_Driver/Src/stm32f1xx_hal_i2s.c ****   * @}
1207:Libraries/STM32F1xx_HAL_Driver/Src/stm32f1xx_hal_i2s.c ****   */
1208:Libraries/STM32F1xx_HAL_Driver/Src/stm32f1xx_hal_i2s.c **** 
1209:Libraries/STM32F1xx_HAL_Driver/Src/stm32f1xx_hal_i2s.c **** /**
1210:Libraries/STM32F1xx_HAL_Driver/Src/stm32f1xx_hal_i2s.c ****   * @}
1211:Libraries/STM32F1xx_HAL_Driver/Src/stm32f1xx_hal_i2s.c ****   */
1212:Libraries/STM32F1xx_HAL_Driver/Src/stm32f1xx_hal_i2s.c **** 
1213:Libraries/STM32F1xx_HAL_Driver/Src/stm32f1xx_hal_i2s.c **** /* Private functions ---------------------------------------------------------*/
1214:Libraries/STM32F1xx_HAL_Driver/Src/stm32f1xx_hal_i2s.c **** /** @addtogroup I2S_Private_Functions I2S Private Functions
1215:Libraries/STM32F1xx_HAL_Driver/Src/stm32f1xx_hal_i2s.c ****   * @{
1216:Libraries/STM32F1xx_HAL_Driver/Src/stm32f1xx_hal_i2s.c ****   */
1217:Libraries/STM32F1xx_HAL_Driver/Src/stm32f1xx_hal_i2s.c **** /**
1218:Libraries/STM32F1xx_HAL_Driver/Src/stm32f1xx_hal_i2s.c ****   * @brief DMA I2S transmit process complete callback
1219:Libraries/STM32F1xx_HAL_Driver/Src/stm32f1xx_hal_i2s.c ****   * @param  hdma: pointer to a DMA_HandleTypeDef structure that contains
1220:Libraries/STM32F1xx_HAL_Driver/Src/stm32f1xx_hal_i2s.c ****   *                the configuration information for the specified DMA module.
1221:Libraries/STM32F1xx_HAL_Driver/Src/stm32f1xx_hal_i2s.c ****   * @retval None
1222:Libraries/STM32F1xx_HAL_Driver/Src/stm32f1xx_hal_i2s.c ****   */
1223:Libraries/STM32F1xx_HAL_Driver/Src/stm32f1xx_hal_i2s.c **** static void I2S_DMATxCplt(DMA_HandleTypeDef *hdma)
1224:Libraries/STM32F1xx_HAL_Driver/Src/stm32f1xx_hal_i2s.c **** {
1225:Libraries/STM32F1xx_HAL_Driver/Src/stm32f1xx_hal_i2s.c ****   I2S_HandleTypeDef* hi2s = ( I2S_HandleTypeDef* )((DMA_HandleTypeDef* )hdma)->Parent;
1226:Libraries/STM32F1xx_HAL_Driver/Src/stm32f1xx_hal_i2s.c **** 
1227:Libraries/STM32F1xx_HAL_Driver/Src/stm32f1xx_hal_i2s.c ****   if(HAL_IS_BIT_CLR(hdma->Instance->CCR, DMA_CCR_CIRC))
1228:Libraries/STM32F1xx_HAL_Driver/Src/stm32f1xx_hal_i2s.c ****   {
1229:Libraries/STM32F1xx_HAL_Driver/Src/stm32f1xx_hal_i2s.c ****     /* Disable Tx DMA Request */
1230:Libraries/STM32F1xx_HAL_Driver/Src/stm32f1xx_hal_i2s.c ****     CLEAR_BIT(hi2s->Instance->CR2,SPI_CR2_TXDMAEN);
1231:Libraries/STM32F1xx_HAL_Driver/Src/stm32f1xx_hal_i2s.c **** 
ARM GAS  /tmp/cc1Hj1lD.s 			page 23


1232:Libraries/STM32F1xx_HAL_Driver/Src/stm32f1xx_hal_i2s.c ****     hi2s->TxXferCount = 0U;
1233:Libraries/STM32F1xx_HAL_Driver/Src/stm32f1xx_hal_i2s.c ****     hi2s->State       = HAL_I2S_STATE_READY;
1234:Libraries/STM32F1xx_HAL_Driver/Src/stm32f1xx_hal_i2s.c ****   }
1235:Libraries/STM32F1xx_HAL_Driver/Src/stm32f1xx_hal_i2s.c ****   HAL_I2S_TxCpltCallback(hi2s);
1236:Libraries/STM32F1xx_HAL_Driver/Src/stm32f1xx_hal_i2s.c **** }
1237:Libraries/STM32F1xx_HAL_Driver/Src/stm32f1xx_hal_i2s.c **** /**
1238:Libraries/STM32F1xx_HAL_Driver/Src/stm32f1xx_hal_i2s.c ****   * @brief DMA I2S transmit process half complete callback
1239:Libraries/STM32F1xx_HAL_Driver/Src/stm32f1xx_hal_i2s.c ****   * @param  hdma: pointer to a DMA_HandleTypeDef structure that contains
1240:Libraries/STM32F1xx_HAL_Driver/Src/stm32f1xx_hal_i2s.c ****   *                the configuration information for the specified DMA module.
1241:Libraries/STM32F1xx_HAL_Driver/Src/stm32f1xx_hal_i2s.c ****   * @retval None
1242:Libraries/STM32F1xx_HAL_Driver/Src/stm32f1xx_hal_i2s.c ****   */
1243:Libraries/STM32F1xx_HAL_Driver/Src/stm32f1xx_hal_i2s.c **** static void I2S_DMATxHalfCplt(DMA_HandleTypeDef *hdma)
1244:Libraries/STM32F1xx_HAL_Driver/Src/stm32f1xx_hal_i2s.c **** {
1245:Libraries/STM32F1xx_HAL_Driver/Src/stm32f1xx_hal_i2s.c ****   I2S_HandleTypeDef* hi2s = (I2S_HandleTypeDef*)((DMA_HandleTypeDef*)hdma)->Parent;
1246:Libraries/STM32F1xx_HAL_Driver/Src/stm32f1xx_hal_i2s.c **** 
1247:Libraries/STM32F1xx_HAL_Driver/Src/stm32f1xx_hal_i2s.c ****   HAL_I2S_TxHalfCpltCallback(hi2s);
1248:Libraries/STM32F1xx_HAL_Driver/Src/stm32f1xx_hal_i2s.c **** }
1249:Libraries/STM32F1xx_HAL_Driver/Src/stm32f1xx_hal_i2s.c **** 
1250:Libraries/STM32F1xx_HAL_Driver/Src/stm32f1xx_hal_i2s.c **** /**
1251:Libraries/STM32F1xx_HAL_Driver/Src/stm32f1xx_hal_i2s.c ****   * @brief DMA I2S receive process complete callback
1252:Libraries/STM32F1xx_HAL_Driver/Src/stm32f1xx_hal_i2s.c ****   * @param  hdma: pointer to a DMA_HandleTypeDef structure that contains
1253:Libraries/STM32F1xx_HAL_Driver/Src/stm32f1xx_hal_i2s.c ****   *                the configuration information for the specified DMA module.
1254:Libraries/STM32F1xx_HAL_Driver/Src/stm32f1xx_hal_i2s.c ****   * @retval None
1255:Libraries/STM32F1xx_HAL_Driver/Src/stm32f1xx_hal_i2s.c ****   */
1256:Libraries/STM32F1xx_HAL_Driver/Src/stm32f1xx_hal_i2s.c **** static void I2S_DMARxCplt(DMA_HandleTypeDef *hdma)
1257:Libraries/STM32F1xx_HAL_Driver/Src/stm32f1xx_hal_i2s.c **** {
1258:Libraries/STM32F1xx_HAL_Driver/Src/stm32f1xx_hal_i2s.c ****   I2S_HandleTypeDef* hi2s = ( I2S_HandleTypeDef* )((DMA_HandleTypeDef* )hdma)->Parent;
1259:Libraries/STM32F1xx_HAL_Driver/Src/stm32f1xx_hal_i2s.c **** 
1260:Libraries/STM32F1xx_HAL_Driver/Src/stm32f1xx_hal_i2s.c ****   if(HAL_IS_BIT_CLR(hdma->Instance->CCR, DMA_CCR_CIRC))
1261:Libraries/STM32F1xx_HAL_Driver/Src/stm32f1xx_hal_i2s.c ****   {
1262:Libraries/STM32F1xx_HAL_Driver/Src/stm32f1xx_hal_i2s.c ****     /* Disable Rx DMA Request */
1263:Libraries/STM32F1xx_HAL_Driver/Src/stm32f1xx_hal_i2s.c ****     CLEAR_BIT(hi2s->Instance->CR2,SPI_CR2_RXDMAEN);
1264:Libraries/STM32F1xx_HAL_Driver/Src/stm32f1xx_hal_i2s.c ****     hi2s->RxXferCount = 0U;
1265:Libraries/STM32F1xx_HAL_Driver/Src/stm32f1xx_hal_i2s.c ****     hi2s->State       = HAL_I2S_STATE_READY;
1266:Libraries/STM32F1xx_HAL_Driver/Src/stm32f1xx_hal_i2s.c ****   }
1267:Libraries/STM32F1xx_HAL_Driver/Src/stm32f1xx_hal_i2s.c ****   HAL_I2S_RxCpltCallback(hi2s);
1268:Libraries/STM32F1xx_HAL_Driver/Src/stm32f1xx_hal_i2s.c **** }
1269:Libraries/STM32F1xx_HAL_Driver/Src/stm32f1xx_hal_i2s.c **** 
1270:Libraries/STM32F1xx_HAL_Driver/Src/stm32f1xx_hal_i2s.c **** /**
1271:Libraries/STM32F1xx_HAL_Driver/Src/stm32f1xx_hal_i2s.c ****   * @brief DMA I2S receive process half complete callback
1272:Libraries/STM32F1xx_HAL_Driver/Src/stm32f1xx_hal_i2s.c ****   * @param  hdma: pointer to a DMA_HandleTypeDef structure that contains
1273:Libraries/STM32F1xx_HAL_Driver/Src/stm32f1xx_hal_i2s.c ****   *                the configuration information for the specified DMA module.
1274:Libraries/STM32F1xx_HAL_Driver/Src/stm32f1xx_hal_i2s.c ****   * @retval None
1275:Libraries/STM32F1xx_HAL_Driver/Src/stm32f1xx_hal_i2s.c ****   */
1276:Libraries/STM32F1xx_HAL_Driver/Src/stm32f1xx_hal_i2s.c **** static void I2S_DMARxHalfCplt(DMA_HandleTypeDef *hdma)
1277:Libraries/STM32F1xx_HAL_Driver/Src/stm32f1xx_hal_i2s.c **** {
1278:Libraries/STM32F1xx_HAL_Driver/Src/stm32f1xx_hal_i2s.c ****   I2S_HandleTypeDef* hi2s = (I2S_HandleTypeDef*)((DMA_HandleTypeDef*)hdma)->Parent;
1279:Libraries/STM32F1xx_HAL_Driver/Src/stm32f1xx_hal_i2s.c **** 
1280:Libraries/STM32F1xx_HAL_Driver/Src/stm32f1xx_hal_i2s.c ****   HAL_I2S_RxHalfCpltCallback(hi2s);
1281:Libraries/STM32F1xx_HAL_Driver/Src/stm32f1xx_hal_i2s.c **** }
1282:Libraries/STM32F1xx_HAL_Driver/Src/stm32f1xx_hal_i2s.c **** 
1283:Libraries/STM32F1xx_HAL_Driver/Src/stm32f1xx_hal_i2s.c **** /**
1284:Libraries/STM32F1xx_HAL_Driver/Src/stm32f1xx_hal_i2s.c ****   * @brief DMA I2S communication error callback
1285:Libraries/STM32F1xx_HAL_Driver/Src/stm32f1xx_hal_i2s.c ****   * @param  hdma: pointer to a DMA_HandleTypeDef structure that contains
1286:Libraries/STM32F1xx_HAL_Driver/Src/stm32f1xx_hal_i2s.c ****   *                the configuration information for the specified DMA module.
1287:Libraries/STM32F1xx_HAL_Driver/Src/stm32f1xx_hal_i2s.c ****   * @retval None
1288:Libraries/STM32F1xx_HAL_Driver/Src/stm32f1xx_hal_i2s.c ****   */
ARM GAS  /tmp/cc1Hj1lD.s 			page 24


1289:Libraries/STM32F1xx_HAL_Driver/Src/stm32f1xx_hal_i2s.c **** static void I2S_DMAError(DMA_HandleTypeDef *hdma)
1290:Libraries/STM32F1xx_HAL_Driver/Src/stm32f1xx_hal_i2s.c **** {
1291:Libraries/STM32F1xx_HAL_Driver/Src/stm32f1xx_hal_i2s.c ****   I2S_HandleTypeDef* hi2s = (I2S_HandleTypeDef*)((DMA_HandleTypeDef*)hdma)->Parent;
1292:Libraries/STM32F1xx_HAL_Driver/Src/stm32f1xx_hal_i2s.c **** 
1293:Libraries/STM32F1xx_HAL_Driver/Src/stm32f1xx_hal_i2s.c ****   /* Disable Rx and Tx DMA Request */
1294:Libraries/STM32F1xx_HAL_Driver/Src/stm32f1xx_hal_i2s.c ****   CLEAR_BIT(hi2s->Instance->CR2,(SPI_CR2_RXDMAEN | SPI_CR2_TXDMAEN));
1295:Libraries/STM32F1xx_HAL_Driver/Src/stm32f1xx_hal_i2s.c ****   hi2s->TxXferCount = 0U;
1296:Libraries/STM32F1xx_HAL_Driver/Src/stm32f1xx_hal_i2s.c ****   hi2s->RxXferCount = 0U;
1297:Libraries/STM32F1xx_HAL_Driver/Src/stm32f1xx_hal_i2s.c **** 
1298:Libraries/STM32F1xx_HAL_Driver/Src/stm32f1xx_hal_i2s.c ****   hi2s->State= HAL_I2S_STATE_READY;
1299:Libraries/STM32F1xx_HAL_Driver/Src/stm32f1xx_hal_i2s.c **** 
1300:Libraries/STM32F1xx_HAL_Driver/Src/stm32f1xx_hal_i2s.c ****   SET_BIT(hi2s->ErrorCode,HAL_I2S_ERROR_DMA);
1301:Libraries/STM32F1xx_HAL_Driver/Src/stm32f1xx_hal_i2s.c ****   HAL_I2S_ErrorCallback(hi2s);
1302:Libraries/STM32F1xx_HAL_Driver/Src/stm32f1xx_hal_i2s.c **** }
1303:Libraries/STM32F1xx_HAL_Driver/Src/stm32f1xx_hal_i2s.c **** 
1304:Libraries/STM32F1xx_HAL_Driver/Src/stm32f1xx_hal_i2s.c **** /**
1305:Libraries/STM32F1xx_HAL_Driver/Src/stm32f1xx_hal_i2s.c ****   * @brief Transmit an amount of data in non-blocking mode with Interrupt
1306:Libraries/STM32F1xx_HAL_Driver/Src/stm32f1xx_hal_i2s.c ****   * @param  hi2s: pointer to a I2S_HandleTypeDef structure that contains
1307:Libraries/STM32F1xx_HAL_Driver/Src/stm32f1xx_hal_i2s.c ****   *         the configuration information for I2S module
1308:Libraries/STM32F1xx_HAL_Driver/Src/stm32f1xx_hal_i2s.c ****   * @retval HAL status
1309:Libraries/STM32F1xx_HAL_Driver/Src/stm32f1xx_hal_i2s.c ****   */
1310:Libraries/STM32F1xx_HAL_Driver/Src/stm32f1xx_hal_i2s.c **** static void I2S_Transmit_IT(I2S_HandleTypeDef *hi2s)
1311:Libraries/STM32F1xx_HAL_Driver/Src/stm32f1xx_hal_i2s.c **** {
1312:Libraries/STM32F1xx_HAL_Driver/Src/stm32f1xx_hal_i2s.c ****   /* Transmit data */
1313:Libraries/STM32F1xx_HAL_Driver/Src/stm32f1xx_hal_i2s.c ****   hi2s->Instance->DR = (*hi2s->pTxBuffPtr++);
1314:Libraries/STM32F1xx_HAL_Driver/Src/stm32f1xx_hal_i2s.c ****   hi2s->TxXferCount--;
1315:Libraries/STM32F1xx_HAL_Driver/Src/stm32f1xx_hal_i2s.c **** 
1316:Libraries/STM32F1xx_HAL_Driver/Src/stm32f1xx_hal_i2s.c ****   if(hi2s->TxXferCount == 0U)
1317:Libraries/STM32F1xx_HAL_Driver/Src/stm32f1xx_hal_i2s.c ****   {
1318:Libraries/STM32F1xx_HAL_Driver/Src/stm32f1xx_hal_i2s.c ****     /* Disable TXE and ERR interrupt */
1319:Libraries/STM32F1xx_HAL_Driver/Src/stm32f1xx_hal_i2s.c ****     __HAL_I2S_DISABLE_IT(hi2s, (I2S_IT_TXE | I2S_IT_ERR));
1320:Libraries/STM32F1xx_HAL_Driver/Src/stm32f1xx_hal_i2s.c **** 
1321:Libraries/STM32F1xx_HAL_Driver/Src/stm32f1xx_hal_i2s.c ****     hi2s->State = HAL_I2S_STATE_READY;
1322:Libraries/STM32F1xx_HAL_Driver/Src/stm32f1xx_hal_i2s.c ****     HAL_I2S_TxCpltCallback(hi2s);
1323:Libraries/STM32F1xx_HAL_Driver/Src/stm32f1xx_hal_i2s.c ****   }
1324:Libraries/STM32F1xx_HAL_Driver/Src/stm32f1xx_hal_i2s.c **** }
1325:Libraries/STM32F1xx_HAL_Driver/Src/stm32f1xx_hal_i2s.c **** 
1326:Libraries/STM32F1xx_HAL_Driver/Src/stm32f1xx_hal_i2s.c **** /**
1327:Libraries/STM32F1xx_HAL_Driver/Src/stm32f1xx_hal_i2s.c ****   * @brief Receive an amount of data in non-blocking mode with Interrupt
1328:Libraries/STM32F1xx_HAL_Driver/Src/stm32f1xx_hal_i2s.c ****   * @param  hi2s: pointer to a I2S_HandleTypeDef structure that contains
1329:Libraries/STM32F1xx_HAL_Driver/Src/stm32f1xx_hal_i2s.c ****   *         the configuration information for I2S module
1330:Libraries/STM32F1xx_HAL_Driver/Src/stm32f1xx_hal_i2s.c ****   * @retval HAL status
1331:Libraries/STM32F1xx_HAL_Driver/Src/stm32f1xx_hal_i2s.c ****   */
1332:Libraries/STM32F1xx_HAL_Driver/Src/stm32f1xx_hal_i2s.c **** static void I2S_Receive_IT(I2S_HandleTypeDef *hi2s)
1333:Libraries/STM32F1xx_HAL_Driver/Src/stm32f1xx_hal_i2s.c **** {
1334:Libraries/STM32F1xx_HAL_Driver/Src/stm32f1xx_hal_i2s.c ****   /* Receive data */
1335:Libraries/STM32F1xx_HAL_Driver/Src/stm32f1xx_hal_i2s.c ****   (*hi2s->pRxBuffPtr++) = hi2s->Instance->DR;
1336:Libraries/STM32F1xx_HAL_Driver/Src/stm32f1xx_hal_i2s.c ****   hi2s->RxXferCount--;
1337:Libraries/STM32F1xx_HAL_Driver/Src/stm32f1xx_hal_i2s.c **** 
1338:Libraries/STM32F1xx_HAL_Driver/Src/stm32f1xx_hal_i2s.c ****   if(hi2s->RxXferCount == 0U)
1339:Libraries/STM32F1xx_HAL_Driver/Src/stm32f1xx_hal_i2s.c ****   {
1340:Libraries/STM32F1xx_HAL_Driver/Src/stm32f1xx_hal_i2s.c ****     /* Disable RXNE and ERR interrupt */
1341:Libraries/STM32F1xx_HAL_Driver/Src/stm32f1xx_hal_i2s.c ****     __HAL_I2S_DISABLE_IT(hi2s, (I2S_IT_RXNE | I2S_IT_ERR));
1342:Libraries/STM32F1xx_HAL_Driver/Src/stm32f1xx_hal_i2s.c **** 
1343:Libraries/STM32F1xx_HAL_Driver/Src/stm32f1xx_hal_i2s.c ****     hi2s->State = HAL_I2S_STATE_READY;
1344:Libraries/STM32F1xx_HAL_Driver/Src/stm32f1xx_hal_i2s.c ****     HAL_I2S_RxCpltCallback(hi2s);
1345:Libraries/STM32F1xx_HAL_Driver/Src/stm32f1xx_hal_i2s.c ****   }
ARM GAS  /tmp/cc1Hj1lD.s 			page 25


1346:Libraries/STM32F1xx_HAL_Driver/Src/stm32f1xx_hal_i2s.c **** }
1347:Libraries/STM32F1xx_HAL_Driver/Src/stm32f1xx_hal_i2s.c **** 
1348:Libraries/STM32F1xx_HAL_Driver/Src/stm32f1xx_hal_i2s.c **** /**
1349:Libraries/STM32F1xx_HAL_Driver/Src/stm32f1xx_hal_i2s.c ****   * @brief  This function handles I2S interrupt request.
1350:Libraries/STM32F1xx_HAL_Driver/Src/stm32f1xx_hal_i2s.c ****   * @param  hi2s: pointer to a I2S_HandleTypeDef structure that contains
1351:Libraries/STM32F1xx_HAL_Driver/Src/stm32f1xx_hal_i2s.c ****   *         the configuration information for I2S module
1352:Libraries/STM32F1xx_HAL_Driver/Src/stm32f1xx_hal_i2s.c ****   * @retval None
1353:Libraries/STM32F1xx_HAL_Driver/Src/stm32f1xx_hal_i2s.c ****   */
1354:Libraries/STM32F1xx_HAL_Driver/Src/stm32f1xx_hal_i2s.c **** static void I2S_IRQHandler(I2S_HandleTypeDef *hi2s)
1355:Libraries/STM32F1xx_HAL_Driver/Src/stm32f1xx_hal_i2s.c **** {
1356:Libraries/STM32F1xx_HAL_Driver/Src/stm32f1xx_hal_i2s.c ****   __IO uint32_t i2ssr = hi2s->Instance->SR;
1357:Libraries/STM32F1xx_HAL_Driver/Src/stm32f1xx_hal_i2s.c **** 
1358:Libraries/STM32F1xx_HAL_Driver/Src/stm32f1xx_hal_i2s.c ****   if(hi2s->State == HAL_I2S_STATE_BUSY_RX)
1359:Libraries/STM32F1xx_HAL_Driver/Src/stm32f1xx_hal_i2s.c ****   {
1360:Libraries/STM32F1xx_HAL_Driver/Src/stm32f1xx_hal_i2s.c ****     /* I2S in mode Receiver ------------------------------------------------*/
1361:Libraries/STM32F1xx_HAL_Driver/Src/stm32f1xx_hal_i2s.c ****     if(((i2ssr & I2S_FLAG_RXNE) == I2S_FLAG_RXNE) && (__HAL_I2S_GET_IT_SOURCE(hi2s, I2S_IT_RXNE) !=
1362:Libraries/STM32F1xx_HAL_Driver/Src/stm32f1xx_hal_i2s.c ****     {
1363:Libraries/STM32F1xx_HAL_Driver/Src/stm32f1xx_hal_i2s.c ****       I2S_Receive_IT(hi2s);
1364:Libraries/STM32F1xx_HAL_Driver/Src/stm32f1xx_hal_i2s.c ****     }
1365:Libraries/STM32F1xx_HAL_Driver/Src/stm32f1xx_hal_i2s.c **** 
1366:Libraries/STM32F1xx_HAL_Driver/Src/stm32f1xx_hal_i2s.c ****     /* I2S Overrun error interrupt occured -------------------------------------*/
1367:Libraries/STM32F1xx_HAL_Driver/Src/stm32f1xx_hal_i2s.c ****     if(((i2ssr & I2S_FLAG_OVR) == I2S_FLAG_OVR) && (__HAL_I2S_GET_IT_SOURCE(hi2s, I2S_IT_ERR) != RE
1368:Libraries/STM32F1xx_HAL_Driver/Src/stm32f1xx_hal_i2s.c ****     {
1369:Libraries/STM32F1xx_HAL_Driver/Src/stm32f1xx_hal_i2s.c ****       /* Disable RXNE and ERR interrupt */
1370:Libraries/STM32F1xx_HAL_Driver/Src/stm32f1xx_hal_i2s.c ****       __HAL_I2S_DISABLE_IT(hi2s, (I2S_IT_RXNE | I2S_IT_ERR));
1371:Libraries/STM32F1xx_HAL_Driver/Src/stm32f1xx_hal_i2s.c **** 
1372:Libraries/STM32F1xx_HAL_Driver/Src/stm32f1xx_hal_i2s.c ****       /* Clear Overrun flag */
1373:Libraries/STM32F1xx_HAL_Driver/Src/stm32f1xx_hal_i2s.c ****       __HAL_I2S_CLEAR_OVRFLAG(hi2s);
1374:Libraries/STM32F1xx_HAL_Driver/Src/stm32f1xx_hal_i2s.c **** 
1375:Libraries/STM32F1xx_HAL_Driver/Src/stm32f1xx_hal_i2s.c ****       /* Set the I2S State ready */
1376:Libraries/STM32F1xx_HAL_Driver/Src/stm32f1xx_hal_i2s.c ****       hi2s->State = HAL_I2S_STATE_READY;
1377:Libraries/STM32F1xx_HAL_Driver/Src/stm32f1xx_hal_i2s.c **** 
1378:Libraries/STM32F1xx_HAL_Driver/Src/stm32f1xx_hal_i2s.c **** 
1379:Libraries/STM32F1xx_HAL_Driver/Src/stm32f1xx_hal_i2s.c ****       /* Set the error code and execute error callback*/
1380:Libraries/STM32F1xx_HAL_Driver/Src/stm32f1xx_hal_i2s.c ****       SET_BIT(hi2s->ErrorCode,HAL_I2S_ERROR_OVR);
1381:Libraries/STM32F1xx_HAL_Driver/Src/stm32f1xx_hal_i2s.c ****       HAL_I2S_ErrorCallback(hi2s);
1382:Libraries/STM32F1xx_HAL_Driver/Src/stm32f1xx_hal_i2s.c ****       }
1383:Libraries/STM32F1xx_HAL_Driver/Src/stm32f1xx_hal_i2s.c ****     }
1384:Libraries/STM32F1xx_HAL_Driver/Src/stm32f1xx_hal_i2s.c **** 
1385:Libraries/STM32F1xx_HAL_Driver/Src/stm32f1xx_hal_i2s.c ****     if(hi2s->State == HAL_I2S_STATE_BUSY_TX)
1386:Libraries/STM32F1xx_HAL_Driver/Src/stm32f1xx_hal_i2s.c ****     {
1387:Libraries/STM32F1xx_HAL_Driver/Src/stm32f1xx_hal_i2s.c ****       /* I2S in mode Transmitter -----------------------------------------------*/
1388:Libraries/STM32F1xx_HAL_Driver/Src/stm32f1xx_hal_i2s.c ****     if(((i2ssr & I2S_FLAG_TXE) == I2S_FLAG_TXE) && (__HAL_I2S_GET_IT_SOURCE(hi2s, I2S_IT_TXE) != RE
1389:Libraries/STM32F1xx_HAL_Driver/Src/stm32f1xx_hal_i2s.c ****       {
1390:Libraries/STM32F1xx_HAL_Driver/Src/stm32f1xx_hal_i2s.c ****         I2S_Transmit_IT(hi2s);
1391:Libraries/STM32F1xx_HAL_Driver/Src/stm32f1xx_hal_i2s.c ****       }
1392:Libraries/STM32F1xx_HAL_Driver/Src/stm32f1xx_hal_i2s.c **** 
1393:Libraries/STM32F1xx_HAL_Driver/Src/stm32f1xx_hal_i2s.c ****       /* I2S Underrun error interrupt occurred --------------------------------*/
1394:Libraries/STM32F1xx_HAL_Driver/Src/stm32f1xx_hal_i2s.c ****     if(((i2ssr & I2S_FLAG_UDR) == I2S_FLAG_UDR) && (__HAL_I2S_GET_IT_SOURCE(hi2s, I2S_IT_ERR) != RE
1395:Libraries/STM32F1xx_HAL_Driver/Src/stm32f1xx_hal_i2s.c ****       {
1396:Libraries/STM32F1xx_HAL_Driver/Src/stm32f1xx_hal_i2s.c ****       /* Disable TXE and ERR interrupt */
1397:Libraries/STM32F1xx_HAL_Driver/Src/stm32f1xx_hal_i2s.c ****       __HAL_I2S_DISABLE_IT(hi2s, (I2S_IT_TXE | I2S_IT_ERR));
1398:Libraries/STM32F1xx_HAL_Driver/Src/stm32f1xx_hal_i2s.c **** 
1399:Libraries/STM32F1xx_HAL_Driver/Src/stm32f1xx_hal_i2s.c ****       /* Clear Underrun flag */
1400:Libraries/STM32F1xx_HAL_Driver/Src/stm32f1xx_hal_i2s.c ****       __HAL_I2S_CLEAR_UDRFLAG(hi2s);
1401:Libraries/STM32F1xx_HAL_Driver/Src/stm32f1xx_hal_i2s.c **** 
1402:Libraries/STM32F1xx_HAL_Driver/Src/stm32f1xx_hal_i2s.c ****       /* Set the I2S State ready */
ARM GAS  /tmp/cc1Hj1lD.s 			page 26


1403:Libraries/STM32F1xx_HAL_Driver/Src/stm32f1xx_hal_i2s.c ****       hi2s->State = HAL_I2S_STATE_READY;
1404:Libraries/STM32F1xx_HAL_Driver/Src/stm32f1xx_hal_i2s.c **** 
1405:Libraries/STM32F1xx_HAL_Driver/Src/stm32f1xx_hal_i2s.c ****       /* Set the error code and execute error callback*/
1406:Libraries/STM32F1xx_HAL_Driver/Src/stm32f1xx_hal_i2s.c ****       SET_BIT(hi2s->ErrorCode, HAL_I2S_ERROR_UDR);
1407:Libraries/STM32F1xx_HAL_Driver/Src/stm32f1xx_hal_i2s.c ****       HAL_I2S_ErrorCallback(hi2s);
1408:Libraries/STM32F1xx_HAL_Driver/Src/stm32f1xx_hal_i2s.c ****     }
1409:Libraries/STM32F1xx_HAL_Driver/Src/stm32f1xx_hal_i2s.c ****   }
1410:Libraries/STM32F1xx_HAL_Driver/Src/stm32f1xx_hal_i2s.c **** }
1411:Libraries/STM32F1xx_HAL_Driver/Src/stm32f1xx_hal_i2s.c **** 
1412:Libraries/STM32F1xx_HAL_Driver/Src/stm32f1xx_hal_i2s.c **** /**
1413:Libraries/STM32F1xx_HAL_Driver/Src/stm32f1xx_hal_i2s.c ****   * @brief This function handles I2S Communication Timeout.
1414:Libraries/STM32F1xx_HAL_Driver/Src/stm32f1xx_hal_i2s.c ****   * @param  hi2s: pointer to a I2S_HandleTypeDef structure that contains
1415:Libraries/STM32F1xx_HAL_Driver/Src/stm32f1xx_hal_i2s.c ****   *         the configuration information for I2S module
1416:Libraries/STM32F1xx_HAL_Driver/Src/stm32f1xx_hal_i2s.c ****   * @param Flag: Flag checked
1417:Libraries/STM32F1xx_HAL_Driver/Src/stm32f1xx_hal_i2s.c ****   * @param State: Value of the flag expected
1418:Libraries/STM32F1xx_HAL_Driver/Src/stm32f1xx_hal_i2s.c ****   * @param Timeout: Duration of the timeout
1419:Libraries/STM32F1xx_HAL_Driver/Src/stm32f1xx_hal_i2s.c ****   * @retval HAL status
1420:Libraries/STM32F1xx_HAL_Driver/Src/stm32f1xx_hal_i2s.c ****   */
1421:Libraries/STM32F1xx_HAL_Driver/Src/stm32f1xx_hal_i2s.c **** static HAL_StatusTypeDef I2S_WaitFlagStateUntilTimeout(I2S_HandleTypeDef *hi2s, uint32_t Flag, uint
1422:Libraries/STM32F1xx_HAL_Driver/Src/stm32f1xx_hal_i2s.c ****                                                        uint32_t Timeout)
1423:Libraries/STM32F1xx_HAL_Driver/Src/stm32f1xx_hal_i2s.c **** {
  25              		.loc 1 1423 0
  26              		.cfi_startproc
  27              		@ args = 0, pretend = 0, frame = 0
  28              		@ frame_needed = 0, uses_anonymous_args = 0
  29              	.LVL0:
  30 0000 2DE9F041 		push	{r4, r5, r6, r7, r8, lr}
  31              	.LCFI0:
  32              		.cfi_def_cfa_offset 24
  33              		.cfi_offset 4, -24
  34              		.cfi_offset 5, -20
  35              		.cfi_offset 6, -16
  36              		.cfi_offset 7, -12
  37              		.cfi_offset 8, -8
  38              		.cfi_offset 14, -4
  39 0004 0546     		mov	r5, r0
  40 0006 0F46     		mov	r7, r1
  41 0008 1646     		mov	r6, r2
  42 000a 1C46     		mov	r4, r3
1424:Libraries/STM32F1xx_HAL_Driver/Src/stm32f1xx_hal_i2s.c ****   uint32_t tickstart = HAL_GetTick();
  43              		.loc 1 1424 0
  44 000c FFF7FEFF 		bl	HAL_GetTick
  45              	.LVL1:
  46 0010 8046     		mov	r8, r0
  47              	.LVL2:
1425:Libraries/STM32F1xx_HAL_Driver/Src/stm32f1xx_hal_i2s.c ****   
1426:Libraries/STM32F1xx_HAL_Driver/Src/stm32f1xx_hal_i2s.c ****    /* Wait until flag is set to status*/
1427:Libraries/STM32F1xx_HAL_Driver/Src/stm32f1xx_hal_i2s.c ****   while(((__HAL_I2S_GET_FLAG(hi2s, Flag)) ? SET : RESET) != State)
  48              		.loc 1 1427 0
  49 0012 15E0     		b	.L3
  50              	.LVL3:
  51              	.L11:
1428:Libraries/STM32F1xx_HAL_Driver/Src/stm32f1xx_hal_i2s.c ****   {
1429:Libraries/STM32F1xx_HAL_Driver/Src/stm32f1xx_hal_i2s.c ****     if(Timeout != HAL_MAX_DELAY)
1430:Libraries/STM32F1xx_HAL_Driver/Src/stm32f1xx_hal_i2s.c ****     {
1431:Libraries/STM32F1xx_HAL_Driver/Src/stm32f1xx_hal_i2s.c ****       if((Timeout == 0U)||((HAL_GetTick() - tickstart ) > Timeout))
  52              		.loc 1 1431 0
ARM GAS  /tmp/cc1Hj1lD.s 			page 27


  53 0014 2CB1     		cbz	r4, .L4
  54              		.loc 1 1431 0 is_stmt 0 discriminator 1
  55 0016 FFF7FEFF 		bl	HAL_GetTick
  56              	.LVL4:
  57 001a A0EB0800 		sub	r0, r0, r8
  58 001e 8442     		cmp	r4, r0
  59 0020 0ED2     		bcs	.L3
  60              	.L4:
1432:Libraries/STM32F1xx_HAL_Driver/Src/stm32f1xx_hal_i2s.c ****       {
1433:Libraries/STM32F1xx_HAL_Driver/Src/stm32f1xx_hal_i2s.c ****         /* Set the I2S State ready */
1434:Libraries/STM32F1xx_HAL_Driver/Src/stm32f1xx_hal_i2s.c ****         hi2s->State = HAL_I2S_STATE_READY;
  61              		.loc 1 1434 0 is_stmt 1
  62 0022 0123     		movs	r3, #1
  63 0024 85F83930 		strb	r3, [r5, #57]
1435:Libraries/STM32F1xx_HAL_Driver/Src/stm32f1xx_hal_i2s.c **** 
1436:Libraries/STM32F1xx_HAL_Driver/Src/stm32f1xx_hal_i2s.c ****         /* Process Unlocked */
1437:Libraries/STM32F1xx_HAL_Driver/Src/stm32f1xx_hal_i2s.c ****         __HAL_UNLOCK(hi2s);
  64              		.loc 1 1437 0
  65 0028 0023     		movs	r3, #0
  66 002a 85F83830 		strb	r3, [r5, #56]
1438:Libraries/STM32F1xx_HAL_Driver/Src/stm32f1xx_hal_i2s.c **** 
1439:Libraries/STM32F1xx_HAL_Driver/Src/stm32f1xx_hal_i2s.c ****         return HAL_TIMEOUT;
  67              		.loc 1 1439 0
  68 002e 0320     		movs	r0, #3
  69 0030 BDE8F081 		pop	{r4, r5, r6, r7, r8, pc}
  70              	.LVL5:
  71              	.L12:
1427:Libraries/STM32F1xx_HAL_Driver/Src/stm32f1xx_hal_i2s.c ****   {
  72              		.loc 1 1427 0
  73 0034 0123     		movs	r3, #1
  74              	.L6:
1427:Libraries/STM32F1xx_HAL_Driver/Src/stm32f1xx_hal_i2s.c ****   {
  75              		.loc 1 1427 0 is_stmt 0 discriminator 4
  76 0036 B342     		cmp	r3, r6
  77 0038 09D0     		beq	.L10
1429:Libraries/STM32F1xx_HAL_Driver/Src/stm32f1xx_hal_i2s.c ****     {
  78              		.loc 1 1429 0 is_stmt 1
  79 003a B4F1FF3F 		cmp	r4, #-1
  80 003e E9D1     		bne	.L11
  81              	.L3:
1427:Libraries/STM32F1xx_HAL_Driver/Src/stm32f1xx_hal_i2s.c ****   {
  82              		.loc 1 1427 0
  83 0040 2B68     		ldr	r3, [r5]
  84 0042 9B68     		ldr	r3, [r3, #8]
  85 0044 37EA0303 		bics	r3, r7, r3
  86 0048 F4D0     		beq	.L12
  87 004a 0023     		movs	r3, #0
  88 004c F3E7     		b	.L6
  89              	.L10:
1440:Libraries/STM32F1xx_HAL_Driver/Src/stm32f1xx_hal_i2s.c ****       }
1441:Libraries/STM32F1xx_HAL_Driver/Src/stm32f1xx_hal_i2s.c ****     }
1442:Libraries/STM32F1xx_HAL_Driver/Src/stm32f1xx_hal_i2s.c ****   }
1443:Libraries/STM32F1xx_HAL_Driver/Src/stm32f1xx_hal_i2s.c ****   return HAL_OK;
  90              		.loc 1 1443 0
  91 004e 0020     		movs	r0, #0
1444:Libraries/STM32F1xx_HAL_Driver/Src/stm32f1xx_hal_i2s.c **** }
  92              		.loc 1 1444 0
ARM GAS  /tmp/cc1Hj1lD.s 			page 28


  93 0050 BDE8F081 		pop	{r4, r5, r6, r7, r8, pc}
  94              		.cfi_endproc
  95              	.LFE93:
  97              		.section	.text.HAL_I2S_MspInit,"ax",%progbits
  98              		.align	1
  99              		.weak	HAL_I2S_MspInit
 100              		.syntax unified
 101              		.thumb
 102              		.thumb_func
 103              		.fpu softvfp
 105              	HAL_I2S_MspInit:
 106              	.LFB66:
 399:Libraries/STM32F1xx_HAL_Driver/Src/stm32f1xx_hal_i2s.c ****   /* Prevent unused argument(s) compilation warning */
 107              		.loc 1 399 0
 108              		.cfi_startproc
 109              		@ args = 0, pretend = 0, frame = 0
 110              		@ frame_needed = 0, uses_anonymous_args = 0
 111              		@ link register save eliminated.
 112              	.LVL6:
 113 0000 7047     		bx	lr
 114              		.cfi_endproc
 115              	.LFE66:
 117              		.section	.text.HAL_I2S_MspDeInit,"ax",%progbits
 118              		.align	1
 119              		.weak	HAL_I2S_MspDeInit
 120              		.syntax unified
 121              		.thumb
 122              		.thumb_func
 123              		.fpu softvfp
 125              	HAL_I2S_MspDeInit:
 126              	.LFB67:
 414:Libraries/STM32F1xx_HAL_Driver/Src/stm32f1xx_hal_i2s.c ****   /* Prevent unused argument(s) compilation warning */
 127              		.loc 1 414 0
 128              		.cfi_startproc
 129              		@ args = 0, pretend = 0, frame = 0
 130              		@ frame_needed = 0, uses_anonymous_args = 0
 131              		@ link register save eliminated.
 132              	.LVL7:
 133 0000 7047     		bx	lr
 134              		.cfi_endproc
 135              	.LFE67:
 137              		.section	.text.HAL_I2S_DeInit,"ax",%progbits
 138              		.align	1
 139              		.global	HAL_I2S_DeInit
 140              		.syntax unified
 141              		.thumb
 142              		.thumb_func
 143              		.fpu softvfp
 145              	HAL_I2S_DeInit:
 146              	.LFB65:
 371:Libraries/STM32F1xx_HAL_Driver/Src/stm32f1xx_hal_i2s.c ****   /* Check the I2S handle allocation */
 147              		.loc 1 371 0
 148              		.cfi_startproc
 149              		@ args = 0, pretend = 0, frame = 0
 150              		@ frame_needed = 0, uses_anonymous_args = 0
 151              	.LVL8:
 373:Libraries/STM32F1xx_HAL_Driver/Src/stm32f1xx_hal_i2s.c ****   {
ARM GAS  /tmp/cc1Hj1lD.s 			page 29


 152              		.loc 1 373 0
 153 0000 68B1     		cbz	r0, .L17
 371:Libraries/STM32F1xx_HAL_Driver/Src/stm32f1xx_hal_i2s.c ****   /* Check the I2S handle allocation */
 154              		.loc 1 371 0
 155 0002 10B5     		push	{r4, lr}
 156              	.LCFI1:
 157              		.cfi_def_cfa_offset 8
 158              		.cfi_offset 4, -8
 159              		.cfi_offset 14, -4
 160 0004 0446     		mov	r4, r0
 378:Libraries/STM32F1xx_HAL_Driver/Src/stm32f1xx_hal_i2s.c **** 
 161              		.loc 1 378 0
 162 0006 0223     		movs	r3, #2
 163 0008 80F83930 		strb	r3, [r0, #57]
 381:Libraries/STM32F1xx_HAL_Driver/Src/stm32f1xx_hal_i2s.c **** 
 164              		.loc 1 381 0
 165 000c FFF7FEFF 		bl	HAL_I2S_MspDeInit
 166              	.LVL9:
 383:Libraries/STM32F1xx_HAL_Driver/Src/stm32f1xx_hal_i2s.c ****   hi2s->State     = HAL_I2S_STATE_RESET;
 167              		.loc 1 383 0
 168 0010 0020     		movs	r0, #0
 169 0012 E063     		str	r0, [r4, #60]
 384:Libraries/STM32F1xx_HAL_Driver/Src/stm32f1xx_hal_i2s.c **** 
 170              		.loc 1 384 0
 171 0014 84F83900 		strb	r0, [r4, #57]
 387:Libraries/STM32F1xx_HAL_Driver/Src/stm32f1xx_hal_i2s.c **** 
 172              		.loc 1 387 0
 173 0018 84F83800 		strb	r0, [r4, #56]
 389:Libraries/STM32F1xx_HAL_Driver/Src/stm32f1xx_hal_i2s.c **** }
 174              		.loc 1 389 0
 175 001c 10BD     		pop	{r4, pc}
 176              	.LVL10:
 177              	.L17:
 178              	.LCFI2:
 179              		.cfi_def_cfa_offset 0
 180              		.cfi_restore 4
 181              		.cfi_restore 14
 375:Libraries/STM32F1xx_HAL_Driver/Src/stm32f1xx_hal_i2s.c ****   }
 182              		.loc 1 375 0
 183 001e 0120     		movs	r0, #1
 184              	.LVL11:
 185 0020 7047     		bx	lr
 186              		.cfi_endproc
 187              	.LFE65:
 189              		.section	.text.HAL_I2S_Transmit_IT,"ax",%progbits
 190              		.align	1
 191              		.global	HAL_I2S_Transmit_IT
 192              		.syntax unified
 193              		.thumb
 194              		.thumb_func
 195              		.fpu softvfp
 197              	HAL_I2S_Transmit_IT:
 198              	.LFB70:
 687:Libraries/STM32F1xx_HAL_Driver/Src/stm32f1xx_hal_i2s.c ****   uint32_t tmp1 = 0U;
 199              		.loc 1 687 0
 200              		.cfi_startproc
 201              		@ args = 0, pretend = 0, frame = 0
ARM GAS  /tmp/cc1Hj1lD.s 			page 30


 202              		@ frame_needed = 0, uses_anonymous_args = 0
 203              		@ link register save eliminated.
 204              	.LVL12:
 690:Libraries/STM32F1xx_HAL_Driver/Src/stm32f1xx_hal_i2s.c ****   {
 205              		.loc 1 690 0
 206 0000 90F83930 		ldrb	r3, [r0, #57]	@ zero_extendqisi2
 207 0004 DBB2     		uxtb	r3, r3
 208 0006 012B     		cmp	r3, #1
 209 0008 01D0     		beq	.L32
 733:Libraries/STM32F1xx_HAL_Driver/Src/stm32f1xx_hal_i2s.c ****   }
 210              		.loc 1 733 0
 211 000a 0220     		movs	r0, #2
 212              	.LVL13:
 213 000c 7047     		bx	lr
 214              	.LVL14:
 215              	.L32:
 692:Libraries/STM32F1xx_HAL_Driver/Src/stm32f1xx_hal_i2s.c ****     {
 216              		.loc 1 692 0
 217 000e 0029     		cmp	r1, #0
 218 0010 31D0     		beq	.L29
 692:Libraries/STM32F1xx_HAL_Driver/Src/stm32f1xx_hal_i2s.c ****     {
 219              		.loc 1 692 0 is_stmt 0 discriminator 1
 220 0012 002A     		cmp	r2, #0
 221 0014 31D0     		beq	.L30
 697:Libraries/STM32F1xx_HAL_Driver/Src/stm32f1xx_hal_i2s.c ****     tmp1 = hi2s->Instance->I2SCFGR & (SPI_I2SCFGR_DATLEN | SPI_I2SCFGR_CHLEN);
 222              		.loc 1 697 0 is_stmt 1
 223 0016 C161     		str	r1, [r0, #28]
 698:Libraries/STM32F1xx_HAL_Driver/Src/stm32f1xx_hal_i2s.c ****     if((tmp1 == I2S_DATAFORMAT_24B) || (tmp1 == I2S_DATAFORMAT_32B))
 224              		.loc 1 698 0
 225 0018 0368     		ldr	r3, [r0]
 226 001a DB69     		ldr	r3, [r3, #28]
 227 001c 03F00703 		and	r3, r3, #7
 228              	.LVL15:
 699:Libraries/STM32F1xx_HAL_Driver/Src/stm32f1xx_hal_i2s.c ****     {
 229              		.loc 1 699 0
 230 0020 032B     		cmp	r3, #3
 231 0022 23D0     		beq	.L24
 699:Libraries/STM32F1xx_HAL_Driver/Src/stm32f1xx_hal_i2s.c ****     {
 232              		.loc 1 699 0 is_stmt 0 discriminator 1
 233 0024 052B     		cmp	r3, #5
 234 0026 21D0     		beq	.L24
 706:Libraries/STM32F1xx_HAL_Driver/Src/stm32f1xx_hal_i2s.c ****       hi2s->TxXferCount = Size;
 235              		.loc 1 706 0 is_stmt 1
 236 0028 0284     		strh	r2, [r0, #32]	@ movhi
 707:Libraries/STM32F1xx_HAL_Driver/Src/stm32f1xx_hal_i2s.c ****     }
 237              		.loc 1 707 0
 238 002a 4284     		strh	r2, [r0, #34]	@ movhi
 239              	.LVL16:
 240              	.L26:
 711:Libraries/STM32F1xx_HAL_Driver/Src/stm32f1xx_hal_i2s.c **** 
 241              		.loc 1 711 0
 242 002c 90F83830 		ldrb	r3, [r0, #56]	@ zero_extendqisi2
 243              	.LVL17:
 244 0030 DBB2     		uxtb	r3, r3
 245 0032 012B     		cmp	r3, #1
 246 0034 23D0     		beq	.L31
 711:Libraries/STM32F1xx_HAL_Driver/Src/stm32f1xx_hal_i2s.c **** 
ARM GAS  /tmp/cc1Hj1lD.s 			page 31


 247              		.loc 1 711 0 is_stmt 0 discriminator 2
 248 0036 0123     		movs	r3, #1
 249 0038 80F83830 		strb	r3, [r0, #56]
 713:Libraries/STM32F1xx_HAL_Driver/Src/stm32f1xx_hal_i2s.c ****     hi2s->ErrorCode = HAL_I2S_ERROR_NONE;
 250              		.loc 1 713 0 is_stmt 1 discriminator 2
 251 003c 0323     		movs	r3, #3
 252 003e 80F83930 		strb	r3, [r0, #57]
 714:Libraries/STM32F1xx_HAL_Driver/Src/stm32f1xx_hal_i2s.c **** 
 253              		.loc 1 714 0 discriminator 2
 254 0042 0023     		movs	r3, #0
 255 0044 C363     		str	r3, [r0, #60]
 717:Libraries/STM32F1xx_HAL_Driver/Src/stm32f1xx_hal_i2s.c **** 
 256              		.loc 1 717 0 discriminator 2
 257 0046 0268     		ldr	r2, [r0]
 258 0048 5368     		ldr	r3, [r2, #4]
 259 004a 43F0A003 		orr	r3, r3, #160
 260 004e 5360     		str	r3, [r2, #4]
 720:Libraries/STM32F1xx_HAL_Driver/Src/stm32f1xx_hal_i2s.c ****     {
 261              		.loc 1 720 0 discriminator 2
 262 0050 0368     		ldr	r3, [r0]
 263 0052 DA69     		ldr	r2, [r3, #28]
 264 0054 12F4806F 		tst	r2, #1024
 265 0058 03D1     		bne	.L27
 723:Libraries/STM32F1xx_HAL_Driver/Src/stm32f1xx_hal_i2s.c ****     }
 266              		.loc 1 723 0
 267 005a DA69     		ldr	r2, [r3, #28]
 268 005c 42F48062 		orr	r2, r2, #1024
 269 0060 DA61     		str	r2, [r3, #28]
 270              	.L27:
 727:Libraries/STM32F1xx_HAL_Driver/Src/stm32f1xx_hal_i2s.c **** 
 271              		.loc 1 727 0
 272 0062 0023     		movs	r3, #0
 273 0064 80F83830 		strb	r3, [r0, #56]
 729:Libraries/STM32F1xx_HAL_Driver/Src/stm32f1xx_hal_i2s.c ****   }
 274              		.loc 1 729 0
 275 0068 1846     		mov	r0, r3
 276              	.LVL18:
 277 006a 7047     		bx	lr
 278              	.LVL19:
 279              	.L24:
 701:Libraries/STM32F1xx_HAL_Driver/Src/stm32f1xx_hal_i2s.c ****       hi2s->TxXferCount = (Size << 1U);
 280              		.loc 1 701 0
 281 006c 5200     		lsls	r2, r2, #1
 282              	.LVL20:
 283 006e 92B2     		uxth	r2, r2
 284 0070 0284     		strh	r2, [r0, #32]	@ movhi
 702:Libraries/STM32F1xx_HAL_Driver/Src/stm32f1xx_hal_i2s.c ****     }
 285              		.loc 1 702 0
 286 0072 4284     		strh	r2, [r0, #34]	@ movhi
 287 0074 DAE7     		b	.L26
 288              	.LVL21:
 289              	.L29:
 694:Libraries/STM32F1xx_HAL_Driver/Src/stm32f1xx_hal_i2s.c ****     }
 290              		.loc 1 694 0
 291 0076 0120     		movs	r0, #1
 292              	.LVL22:
 293 0078 7047     		bx	lr
ARM GAS  /tmp/cc1Hj1lD.s 			page 32


 294              	.LVL23:
 295              	.L30:
 296 007a 0120     		movs	r0, #1
 297              	.LVL24:
 298 007c 7047     		bx	lr
 299              	.LVL25:
 300              	.L31:
 711:Libraries/STM32F1xx_HAL_Driver/Src/stm32f1xx_hal_i2s.c **** 
 301              		.loc 1 711 0
 302 007e 0220     		movs	r0, #2
 303              	.LVL26:
 735:Libraries/STM32F1xx_HAL_Driver/Src/stm32f1xx_hal_i2s.c **** 
 304              		.loc 1 735 0
 305 0080 7047     		bx	lr
 306              		.cfi_endproc
 307              	.LFE70:
 309              		.section	.text.HAL_I2S_Receive_IT,"ax",%progbits
 310              		.align	1
 311              		.global	HAL_I2S_Receive_IT
 312              		.syntax unified
 313              		.thumb
 314              		.thumb_func
 315              		.fpu softvfp
 317              	HAL_I2S_Receive_IT:
 318              	.LFB71:
 754:Libraries/STM32F1xx_HAL_Driver/Src/stm32f1xx_hal_i2s.c ****   uint32_t tmp1 = 0U;
 319              		.loc 1 754 0
 320              		.cfi_startproc
 321              		@ args = 0, pretend = 0, frame = 0
 322              		@ frame_needed = 0, uses_anonymous_args = 0
 323              		@ link register save eliminated.
 324              	.LVL27:
 757:Libraries/STM32F1xx_HAL_Driver/Src/stm32f1xx_hal_i2s.c ****   {
 325              		.loc 1 757 0
 326 0000 90F83930 		ldrb	r3, [r0, #57]	@ zero_extendqisi2
 327 0004 DBB2     		uxtb	r3, r3
 328 0006 012B     		cmp	r3, #1
 329 0008 01D0     		beq	.L43
 800:Libraries/STM32F1xx_HAL_Driver/Src/stm32f1xx_hal_i2s.c ****   }
 330              		.loc 1 800 0
 331 000a 0220     		movs	r0, #2
 332              	.LVL28:
 333 000c 7047     		bx	lr
 334              	.LVL29:
 335              	.L43:
 759:Libraries/STM32F1xx_HAL_Driver/Src/stm32f1xx_hal_i2s.c ****     {
 336              		.loc 1 759 0
 337 000e 0029     		cmp	r1, #0
 338 0010 31D0     		beq	.L40
 759:Libraries/STM32F1xx_HAL_Driver/Src/stm32f1xx_hal_i2s.c ****     {
 339              		.loc 1 759 0 is_stmt 0 discriminator 1
 340 0012 002A     		cmp	r2, #0
 341 0014 31D0     		beq	.L41
 764:Libraries/STM32F1xx_HAL_Driver/Src/stm32f1xx_hal_i2s.c ****     tmp1 = hi2s->Instance->I2SCFGR & (SPI_I2SCFGR_DATLEN | SPI_I2SCFGR_CHLEN);
 342              		.loc 1 764 0 is_stmt 1
 343 0016 4162     		str	r1, [r0, #36]
 765:Libraries/STM32F1xx_HAL_Driver/Src/stm32f1xx_hal_i2s.c ****     if((tmp1 == I2S_DATAFORMAT_24B) || (tmp1 == I2S_DATAFORMAT_32B))
ARM GAS  /tmp/cc1Hj1lD.s 			page 33


 344              		.loc 1 765 0
 345 0018 0368     		ldr	r3, [r0]
 346 001a DB69     		ldr	r3, [r3, #28]
 347 001c 03F00703 		and	r3, r3, #7
 348              	.LVL30:
 766:Libraries/STM32F1xx_HAL_Driver/Src/stm32f1xx_hal_i2s.c ****     {
 349              		.loc 1 766 0
 350 0020 032B     		cmp	r3, #3
 351 0022 23D0     		beq	.L35
 766:Libraries/STM32F1xx_HAL_Driver/Src/stm32f1xx_hal_i2s.c ****     {
 352              		.loc 1 766 0 is_stmt 0 discriminator 1
 353 0024 052B     		cmp	r3, #5
 354 0026 21D0     		beq	.L35
 773:Libraries/STM32F1xx_HAL_Driver/Src/stm32f1xx_hal_i2s.c ****       hi2s->RxXferCount = Size;
 355              		.loc 1 773 0 is_stmt 1
 356 0028 0285     		strh	r2, [r0, #40]	@ movhi
 774:Libraries/STM32F1xx_HAL_Driver/Src/stm32f1xx_hal_i2s.c ****     }
 357              		.loc 1 774 0
 358 002a 4285     		strh	r2, [r0, #42]	@ movhi
 359              	.LVL31:
 360              	.L37:
 777:Libraries/STM32F1xx_HAL_Driver/Src/stm32f1xx_hal_i2s.c **** 
 361              		.loc 1 777 0
 362 002c 90F83830 		ldrb	r3, [r0, #56]	@ zero_extendqisi2
 363              	.LVL32:
 364 0030 DBB2     		uxtb	r3, r3
 365 0032 012B     		cmp	r3, #1
 366 0034 23D0     		beq	.L42
 777:Libraries/STM32F1xx_HAL_Driver/Src/stm32f1xx_hal_i2s.c **** 
 367              		.loc 1 777 0 is_stmt 0 discriminator 2
 368 0036 0123     		movs	r3, #1
 369 0038 80F83830 		strb	r3, [r0, #56]
 779:Libraries/STM32F1xx_HAL_Driver/Src/stm32f1xx_hal_i2s.c ****     hi2s->ErrorCode = HAL_I2S_ERROR_NONE;
 370              		.loc 1 779 0 is_stmt 1 discriminator 2
 371 003c 0423     		movs	r3, #4
 372 003e 80F83930 		strb	r3, [r0, #57]
 780:Libraries/STM32F1xx_HAL_Driver/Src/stm32f1xx_hal_i2s.c **** 
 373              		.loc 1 780 0 discriminator 2
 374 0042 0023     		movs	r3, #0
 375 0044 C363     		str	r3, [r0, #60]
 783:Libraries/STM32F1xx_HAL_Driver/Src/stm32f1xx_hal_i2s.c **** 
 376              		.loc 1 783 0 discriminator 2
 377 0046 0268     		ldr	r2, [r0]
 378 0048 5368     		ldr	r3, [r2, #4]
 379 004a 43F06003 		orr	r3, r3, #96
 380 004e 5360     		str	r3, [r2, #4]
 786:Libraries/STM32F1xx_HAL_Driver/Src/stm32f1xx_hal_i2s.c ****     {
 381              		.loc 1 786 0 discriminator 2
 382 0050 0368     		ldr	r3, [r0]
 383 0052 DA69     		ldr	r2, [r3, #28]
 384 0054 12F4806F 		tst	r2, #1024
 385 0058 03D1     		bne	.L38
 789:Libraries/STM32F1xx_HAL_Driver/Src/stm32f1xx_hal_i2s.c ****     }
 386              		.loc 1 789 0
 387 005a DA69     		ldr	r2, [r3, #28]
 388 005c 42F48062 		orr	r2, r2, #1024
 389 0060 DA61     		str	r2, [r3, #28]
ARM GAS  /tmp/cc1Hj1lD.s 			page 34


 390              	.L38:
 793:Libraries/STM32F1xx_HAL_Driver/Src/stm32f1xx_hal_i2s.c **** 
 391              		.loc 1 793 0
 392 0062 0023     		movs	r3, #0
 393 0064 80F83830 		strb	r3, [r0, #56]
 795:Libraries/STM32F1xx_HAL_Driver/Src/stm32f1xx_hal_i2s.c ****   }
 394              		.loc 1 795 0
 395 0068 1846     		mov	r0, r3
 396              	.LVL33:
 397 006a 7047     		bx	lr
 398              	.LVL34:
 399              	.L35:
 768:Libraries/STM32F1xx_HAL_Driver/Src/stm32f1xx_hal_i2s.c ****       hi2s->RxXferCount = (Size << 1U);
 400              		.loc 1 768 0
 401 006c 5200     		lsls	r2, r2, #1
 402              	.LVL35:
 403 006e 92B2     		uxth	r2, r2
 404 0070 0285     		strh	r2, [r0, #40]	@ movhi
 769:Libraries/STM32F1xx_HAL_Driver/Src/stm32f1xx_hal_i2s.c ****     }
 405              		.loc 1 769 0
 406 0072 4285     		strh	r2, [r0, #42]	@ movhi
 407 0074 DAE7     		b	.L37
 408              	.LVL36:
 409              	.L40:
 761:Libraries/STM32F1xx_HAL_Driver/Src/stm32f1xx_hal_i2s.c ****     }
 410              		.loc 1 761 0
 411 0076 0120     		movs	r0, #1
 412              	.LVL37:
 413 0078 7047     		bx	lr
 414              	.LVL38:
 415              	.L41:
 416 007a 0120     		movs	r0, #1
 417              	.LVL39:
 418 007c 7047     		bx	lr
 419              	.LVL40:
 420              	.L42:
 777:Libraries/STM32F1xx_HAL_Driver/Src/stm32f1xx_hal_i2s.c **** 
 421              		.loc 1 777 0
 422 007e 0220     		movs	r0, #2
 423              	.LVL41:
 802:Libraries/STM32F1xx_HAL_Driver/Src/stm32f1xx_hal_i2s.c **** 
 424              		.loc 1 802 0
 425 0080 7047     		bx	lr
 426              		.cfi_endproc
 427              	.LFE71:
 429              		.section	.text.HAL_I2S_Transmit_DMA,"ax",%progbits
 430              		.align	1
 431              		.global	HAL_I2S_Transmit_DMA
 432              		.syntax unified
 433              		.thumb
 434              		.thumb_func
 435              		.fpu softvfp
 437              	HAL_I2S_Transmit_DMA:
 438              	.LFB72:
 819:Libraries/STM32F1xx_HAL_Driver/Src/stm32f1xx_hal_i2s.c ****   uint32_t *tmp = NULL;
 439              		.loc 1 819 0
 440              		.cfi_startproc
ARM GAS  /tmp/cc1Hj1lD.s 			page 35


 441              		@ args = 0, pretend = 0, frame = 0
 442              		@ frame_needed = 0, uses_anonymous_args = 0
 443              	.LVL42:
 823:Libraries/STM32F1xx_HAL_Driver/Src/stm32f1xx_hal_i2s.c ****   {
 444              		.loc 1 823 0
 445 0000 0029     		cmp	r1, #0
 446 0002 51D0     		beq	.L51
 819:Libraries/STM32F1xx_HAL_Driver/Src/stm32f1xx_hal_i2s.c ****   uint32_t *tmp = NULL;
 447              		.loc 1 819 0 discriminator 1
 448 0004 10B5     		push	{r4, lr}
 449              	.LCFI3:
 450              		.cfi_def_cfa_offset 8
 451              		.cfi_offset 4, -8
 452              		.cfi_offset 14, -4
 453 0006 0C46     		mov	r4, r1
 823:Libraries/STM32F1xx_HAL_Driver/Src/stm32f1xx_hal_i2s.c ****   {
 454              		.loc 1 823 0 discriminator 1
 455 0008 002A     		cmp	r2, #0
 456 000a 4FD0     		beq	.L52
 828:Libraries/STM32F1xx_HAL_Driver/Src/stm32f1xx_hal_i2s.c ****   {
 457              		.loc 1 828 0
 458 000c 90F83930 		ldrb	r3, [r0, #57]	@ zero_extendqisi2
 459 0010 DBB2     		uxtb	r3, r3
 460 0012 012B     		cmp	r3, #1
 461 0014 01D0     		beq	.L59
 883:Libraries/STM32F1xx_HAL_Driver/Src/stm32f1xx_hal_i2s.c ****   }
 462              		.loc 1 883 0
 463 0016 0220     		movs	r0, #2
 464              	.LVL43:
 465 0018 10BD     		pop	{r4, pc}
 466              	.LVL44:
 467              	.L59:
 830:Libraries/STM32F1xx_HAL_Driver/Src/stm32f1xx_hal_i2s.c ****     tmp1 = hi2s->Instance->I2SCFGR & (SPI_I2SCFGR_DATLEN | SPI_I2SCFGR_CHLEN);
 468              		.loc 1 830 0
 469 001a C161     		str	r1, [r0, #28]
 831:Libraries/STM32F1xx_HAL_Driver/Src/stm32f1xx_hal_i2s.c ****     if((tmp1 == I2S_DATAFORMAT_24B) || (tmp1 == I2S_DATAFORMAT_32B))
 470              		.loc 1 831 0
 471 001c 0368     		ldr	r3, [r0]
 472 001e DB69     		ldr	r3, [r3, #28]
 473 0020 03F00703 		and	r3, r3, #7
 474              	.LVL45:
 832:Libraries/STM32F1xx_HAL_Driver/Src/stm32f1xx_hal_i2s.c ****     {
 475              		.loc 1 832 0
 476 0024 032B     		cmp	r3, #3
 477 0026 0AD0     		beq	.L46
 832:Libraries/STM32F1xx_HAL_Driver/Src/stm32f1xx_hal_i2s.c ****     {
 478              		.loc 1 832 0 is_stmt 0 discriminator 1
 479 0028 052B     		cmp	r3, #5
 480 002a 08D0     		beq	.L46
 839:Libraries/STM32F1xx_HAL_Driver/Src/stm32f1xx_hal_i2s.c ****       hi2s->TxXferCount = Size;
 481              		.loc 1 839 0 is_stmt 1
 482 002c 0284     		strh	r2, [r0, #32]	@ movhi
 840:Libraries/STM32F1xx_HAL_Driver/Src/stm32f1xx_hal_i2s.c ****     }
 483              		.loc 1 840 0
 484 002e 4284     		strh	r2, [r0, #34]	@ movhi
 485              	.LVL46:
 486              	.L48:
ARM GAS  /tmp/cc1Hj1lD.s 			page 36


 844:Libraries/STM32F1xx_HAL_Driver/Src/stm32f1xx_hal_i2s.c **** 
 487              		.loc 1 844 0
 488 0030 90F83830 		ldrb	r3, [r0, #56]	@ zero_extendqisi2
 489              	.LVL47:
 490 0034 DBB2     		uxtb	r3, r3
 491 0036 012B     		cmp	r3, #1
 492 0038 06D1     		bne	.L60
 493 003a 0220     		movs	r0, #2
 494              	.LVL48:
 885:Libraries/STM32F1xx_HAL_Driver/Src/stm32f1xx_hal_i2s.c **** 
 495              		.loc 1 885 0
 496 003c 10BD     		pop	{r4, pc}
 497              	.LVL49:
 498              	.L46:
 834:Libraries/STM32F1xx_HAL_Driver/Src/stm32f1xx_hal_i2s.c ****       hi2s->TxXferCount = (Size << 1U);
 499              		.loc 1 834 0
 500 003e 5200     		lsls	r2, r2, #1
 501              	.LVL50:
 502 0040 92B2     		uxth	r2, r2
 503 0042 0284     		strh	r2, [r0, #32]	@ movhi
 835:Libraries/STM32F1xx_HAL_Driver/Src/stm32f1xx_hal_i2s.c ****     }
 504              		.loc 1 835 0
 505 0044 4284     		strh	r2, [r0, #34]	@ movhi
 506 0046 F3E7     		b	.L48
 507              	.LVL51:
 508              	.L60:
 509 0048 2146     		mov	r1, r4
 510              	.LVL52:
 511 004a 0446     		mov	r4, r0
 512              	.LVL53:
 844:Libraries/STM32F1xx_HAL_Driver/Src/stm32f1xx_hal_i2s.c **** 
 513              		.loc 1 844 0 discriminator 2
 514 004c 0123     		movs	r3, #1
 515 004e 80F83830 		strb	r3, [r0, #56]
 846:Libraries/STM32F1xx_HAL_Driver/Src/stm32f1xx_hal_i2s.c ****     hi2s->State     = HAL_I2S_STATE_BUSY_TX;
 516              		.loc 1 846 0 discriminator 2
 517 0052 0023     		movs	r3, #0
 518 0054 C363     		str	r3, [r0, #60]
 847:Libraries/STM32F1xx_HAL_Driver/Src/stm32f1xx_hal_i2s.c **** 
 519              		.loc 1 847 0 discriminator 2
 520 0056 0323     		movs	r3, #3
 521 0058 80F83930 		strb	r3, [r0, #57]
 850:Libraries/STM32F1xx_HAL_Driver/Src/stm32f1xx_hal_i2s.c **** 
 522              		.loc 1 850 0 discriminator 2
 523 005c 036B     		ldr	r3, [r0, #48]
 524 005e 144A     		ldr	r2, .L61
 525 0060 DA62     		str	r2, [r3, #44]
 526              	.LVL54:
 853:Libraries/STM32F1xx_HAL_Driver/Src/stm32f1xx_hal_i2s.c **** 
 527              		.loc 1 853 0 discriminator 2
 528 0062 036B     		ldr	r3, [r0, #48]
 529 0064 134A     		ldr	r2, .L61+4
 530 0066 9A62     		str	r2, [r3, #40]
 856:Libraries/STM32F1xx_HAL_Driver/Src/stm32f1xx_hal_i2s.c **** 
 531              		.loc 1 856 0 discriminator 2
 532 0068 036B     		ldr	r3, [r0, #48]
 533 006a 134A     		ldr	r2, .L61+8
ARM GAS  /tmp/cc1Hj1lD.s 			page 37


 534 006c 1A63     		str	r2, [r3, #48]
 535              	.LVL55:
 860:Libraries/STM32F1xx_HAL_Driver/Src/stm32f1xx_hal_i2s.c **** 
 536              		.loc 1 860 0 discriminator 2
 537 006e 0268     		ldr	r2, [r0]
 538 0070 038C     		ldrh	r3, [r0, #32]
 539 0072 9BB2     		uxth	r3, r3
 540 0074 0C32     		adds	r2, r2, #12
 541 0076 006B     		ldr	r0, [r0, #48]
 542              	.LVL56:
 543 0078 FFF7FEFF 		bl	HAL_DMA_Start_IT
 544              	.LVL57:
 863:Libraries/STM32F1xx_HAL_Driver/Src/stm32f1xx_hal_i2s.c ****     {
 545              		.loc 1 863 0 discriminator 2
 546 007c 2368     		ldr	r3, [r4]
 547 007e DA69     		ldr	r2, [r3, #28]
 548 0080 12F4806F 		tst	r2, #1024
 549 0084 03D1     		bne	.L49
 866:Libraries/STM32F1xx_HAL_Driver/Src/stm32f1xx_hal_i2s.c ****     }
 550              		.loc 1 866 0
 551 0086 DA69     		ldr	r2, [r3, #28]
 552 0088 42F48062 		orr	r2, r2, #1024
 553 008c DA61     		str	r2, [r3, #28]
 554              	.L49:
 870:Libraries/STM32F1xx_HAL_Driver/Src/stm32f1xx_hal_i2s.c ****     {
 555              		.loc 1 870 0
 556 008e 2368     		ldr	r3, [r4]
 557 0090 5A68     		ldr	r2, [r3, #4]
 558 0092 12F0020F 		tst	r2, #2
 559 0096 03D1     		bne	.L50
 873:Libraries/STM32F1xx_HAL_Driver/Src/stm32f1xx_hal_i2s.c ****     }
 560              		.loc 1 873 0
 561 0098 5A68     		ldr	r2, [r3, #4]
 562 009a 42F00202 		orr	r2, r2, #2
 563 009e 5A60     		str	r2, [r3, #4]
 564              	.L50:
 877:Libraries/STM32F1xx_HAL_Driver/Src/stm32f1xx_hal_i2s.c **** 
 565              		.loc 1 877 0
 566 00a0 0020     		movs	r0, #0
 567 00a2 84F83800 		strb	r0, [r4, #56]
 879:Libraries/STM32F1xx_HAL_Driver/Src/stm32f1xx_hal_i2s.c ****   }
 568              		.loc 1 879 0
 569 00a6 10BD     		pop	{r4, pc}
 570              	.LVL58:
 571              	.L51:
 572              	.LCFI4:
 573              		.cfi_def_cfa_offset 0
 574              		.cfi_restore 4
 575              		.cfi_restore 14
 825:Libraries/STM32F1xx_HAL_Driver/Src/stm32f1xx_hal_i2s.c ****   }
 576              		.loc 1 825 0
 577 00a8 0120     		movs	r0, #1
 578              	.LVL59:
 579 00aa 7047     		bx	lr
 580              	.LVL60:
 581              	.L52:
 582              	.LCFI5:
ARM GAS  /tmp/cc1Hj1lD.s 			page 38


 583              		.cfi_def_cfa_offset 8
 584              		.cfi_offset 4, -8
 585              		.cfi_offset 14, -4
 586 00ac 0120     		movs	r0, #1
 587              	.LVL61:
 588 00ae 10BD     		pop	{r4, pc}
 589              	.L62:
 590              		.align	2
 591              	.L61:
 592 00b0 00000000 		.word	I2S_DMATxHalfCplt
 593 00b4 00000000 		.word	I2S_DMATxCplt
 594 00b8 00000000 		.word	I2S_DMAError
 595              		.cfi_endproc
 596              	.LFE72:
 598              		.section	.text.HAL_I2S_Receive_DMA,"ax",%progbits
 599              		.align	1
 600              		.global	HAL_I2S_Receive_DMA
 601              		.syntax unified
 602              		.thumb
 603              		.thumb_func
 604              		.fpu softvfp
 606              	HAL_I2S_Receive_DMA:
 607              	.LFB73:
 902:Libraries/STM32F1xx_HAL_Driver/Src/stm32f1xx_hal_i2s.c ****   uint32_t *tmp = NULL;
 608              		.loc 1 902 0
 609              		.cfi_startproc
 610              		@ args = 0, pretend = 0, frame = 8
 611              		@ frame_needed = 0, uses_anonymous_args = 0
 612              	.LVL62:
 906:Libraries/STM32F1xx_HAL_Driver/Src/stm32f1xx_hal_i2s.c ****   {
 613              		.loc 1 906 0
 614 0000 0029     		cmp	r1, #0
 615 0002 5FD0     		beq	.L71
 902:Libraries/STM32F1xx_HAL_Driver/Src/stm32f1xx_hal_i2s.c ****   uint32_t *tmp = NULL;
 616              		.loc 1 902 0 discriminator 1
 617 0004 10B5     		push	{r4, lr}
 618              	.LCFI6:
 619              		.cfi_def_cfa_offset 8
 620              		.cfi_offset 4, -8
 621              		.cfi_offset 14, -4
 622 0006 82B0     		sub	sp, sp, #8
 623              	.LCFI7:
 624              		.cfi_def_cfa_offset 16
 625 0008 0C46     		mov	r4, r1
 906:Libraries/STM32F1xx_HAL_Driver/Src/stm32f1xx_hal_i2s.c ****   {
 626              		.loc 1 906 0 discriminator 1
 627 000a 002A     		cmp	r2, #0
 628 000c 5CD0     		beq	.L72
 911:Libraries/STM32F1xx_HAL_Driver/Src/stm32f1xx_hal_i2s.c ****   {
 629              		.loc 1 911 0
 630 000e 90F83930 		ldrb	r3, [r0, #57]	@ zero_extendqisi2
 631 0012 DBB2     		uxtb	r3, r3
 632 0014 012B     		cmp	r3, #1
 633 0016 02D0     		beq	.L79
 973:Libraries/STM32F1xx_HAL_Driver/Src/stm32f1xx_hal_i2s.c ****   }
 634              		.loc 1 973 0
 635 0018 0220     		movs	r0, #2
ARM GAS  /tmp/cc1Hj1lD.s 			page 39


 636              	.LVL63:
 637              	.L64:
 975:Libraries/STM32F1xx_HAL_Driver/Src/stm32f1xx_hal_i2s.c **** 
 638              		.loc 1 975 0
 639 001a 02B0     		add	sp, sp, #8
 640              	.LCFI8:
 641              		.cfi_remember_state
 642              		.cfi_def_cfa_offset 8
 643              		@ sp needed
 644 001c 10BD     		pop	{r4, pc}
 645              	.LVL64:
 646              	.L79:
 647              	.LCFI9:
 648              		.cfi_restore_state
 913:Libraries/STM32F1xx_HAL_Driver/Src/stm32f1xx_hal_i2s.c ****     tmp1 = hi2s->Instance->I2SCFGR & (SPI_I2SCFGR_DATLEN | SPI_I2SCFGR_CHLEN);
 649              		.loc 1 913 0
 650 001e 4162     		str	r1, [r0, #36]
 914:Libraries/STM32F1xx_HAL_Driver/Src/stm32f1xx_hal_i2s.c ****     if((tmp1 == I2S_DATAFORMAT_24B) || (tmp1 == I2S_DATAFORMAT_32B))
 651              		.loc 1 914 0
 652 0020 0368     		ldr	r3, [r0]
 653 0022 DB69     		ldr	r3, [r3, #28]
 654 0024 03F00703 		and	r3, r3, #7
 655              	.LVL65:
 915:Libraries/STM32F1xx_HAL_Driver/Src/stm32f1xx_hal_i2s.c ****     {
 656              		.loc 1 915 0
 657 0028 032B     		cmp	r3, #3
 658 002a 3ED0     		beq	.L65
 915:Libraries/STM32F1xx_HAL_Driver/Src/stm32f1xx_hal_i2s.c ****     {
 659              		.loc 1 915 0 is_stmt 0 discriminator 1
 660 002c 052B     		cmp	r3, #5
 661 002e 3CD0     		beq	.L65
 922:Libraries/STM32F1xx_HAL_Driver/Src/stm32f1xx_hal_i2s.c ****       hi2s->RxXferCount = Size;
 662              		.loc 1 922 0 is_stmt 1
 663 0030 0285     		strh	r2, [r0, #40]	@ movhi
 923:Libraries/STM32F1xx_HAL_Driver/Src/stm32f1xx_hal_i2s.c ****     }
 664              		.loc 1 923 0
 665 0032 4285     		strh	r2, [r0, #42]	@ movhi
 666              	.LVL66:
 667              	.L67:
 926:Libraries/STM32F1xx_HAL_Driver/Src/stm32f1xx_hal_i2s.c **** 
 668              		.loc 1 926 0
 669 0034 90F83830 		ldrb	r3, [r0, #56]	@ zero_extendqisi2
 670 0038 DBB2     		uxtb	r3, r3
 671 003a 012B     		cmp	r3, #1
 672 003c 46D0     		beq	.L74
 926:Libraries/STM32F1xx_HAL_Driver/Src/stm32f1xx_hal_i2s.c **** 
 673              		.loc 1 926 0 is_stmt 0 discriminator 2
 674 003e 0123     		movs	r3, #1
 675 0040 80F83830 		strb	r3, [r0, #56]
 928:Libraries/STM32F1xx_HAL_Driver/Src/stm32f1xx_hal_i2s.c ****     hi2s->ErrorCode = HAL_I2S_ERROR_NONE;
 676              		.loc 1 928 0 is_stmt 1 discriminator 2
 677 0044 0423     		movs	r3, #4
 678 0046 80F83930 		strb	r3, [r0, #57]
 929:Libraries/STM32F1xx_HAL_Driver/Src/stm32f1xx_hal_i2s.c **** 
 679              		.loc 1 929 0 discriminator 2
 680 004a 0023     		movs	r3, #0
 681 004c C363     		str	r3, [r0, #60]
ARM GAS  /tmp/cc1Hj1lD.s 			page 40


 932:Libraries/STM32F1xx_HAL_Driver/Src/stm32f1xx_hal_i2s.c **** 
 682              		.loc 1 932 0 discriminator 2
 683 004e 436B     		ldr	r3, [r0, #52]
 684 0050 1F4A     		ldr	r2, .L81
 685              	.LVL67:
 686 0052 DA62     		str	r2, [r3, #44]
 935:Libraries/STM32F1xx_HAL_Driver/Src/stm32f1xx_hal_i2s.c **** 
 687              		.loc 1 935 0 discriminator 2
 688 0054 436B     		ldr	r3, [r0, #52]
 689 0056 1F4A     		ldr	r2, .L81+4
 690 0058 9A62     		str	r2, [r3, #40]
 938:Libraries/STM32F1xx_HAL_Driver/Src/stm32f1xx_hal_i2s.c **** 
 691              		.loc 1 938 0 discriminator 2
 692 005a 436B     		ldr	r3, [r0, #52]
 693 005c 1E4A     		ldr	r2, .L81+8
 694 005e 1A63     		str	r2, [r3, #48]
 941:Libraries/STM32F1xx_HAL_Driver/Src/stm32f1xx_hal_i2s.c ****     {
 695              		.loc 1 941 0 discriminator 2
 696 0060 0168     		ldr	r1, [r0]
 697              	.LVL68:
 698 0062 CB69     		ldr	r3, [r1, #28]
 699 0064 03F44073 		and	r3, r3, #768
 700 0068 B3F5407F 		cmp	r3, #768
 701 006c 22D0     		beq	.L80
 702              	.L68:
 703 006e 2246     		mov	r2, r4
 704 0070 0446     		mov	r4, r0
 705              	.LVL69:
 950:Libraries/STM32F1xx_HAL_Driver/Src/stm32f1xx_hal_i2s.c **** 
 706              		.loc 1 950 0
 707 0072 038D     		ldrh	r3, [r0, #40]
 708 0074 9BB2     		uxth	r3, r3
 709 0076 0C31     		adds	r1, r1, #12
 710 0078 406B     		ldr	r0, [r0, #52]
 711              	.LVL70:
 712 007a FFF7FEFF 		bl	HAL_DMA_Start_IT
 713              	.LVL71:
 953:Libraries/STM32F1xx_HAL_Driver/Src/stm32f1xx_hal_i2s.c ****     {
 714              		.loc 1 953 0
 715 007e 2368     		ldr	r3, [r4]
 716 0080 DA69     		ldr	r2, [r3, #28]
 717 0082 12F4806F 		tst	r2, #1024
 718 0086 03D1     		bne	.L69
 956:Libraries/STM32F1xx_HAL_Driver/Src/stm32f1xx_hal_i2s.c ****     }
 719              		.loc 1 956 0
 720 0088 DA69     		ldr	r2, [r3, #28]
 721 008a 42F48062 		orr	r2, r2, #1024
 722 008e DA61     		str	r2, [r3, #28]
 723              	.L69:
 960:Libraries/STM32F1xx_HAL_Driver/Src/stm32f1xx_hal_i2s.c ****     {
 724              		.loc 1 960 0
 725 0090 2368     		ldr	r3, [r4]
 726 0092 5A68     		ldr	r2, [r3, #4]
 727 0094 12F0010F 		tst	r2, #1
 728 0098 03D1     		bne	.L70
 963:Libraries/STM32F1xx_HAL_Driver/Src/stm32f1xx_hal_i2s.c ****     }
 729              		.loc 1 963 0
ARM GAS  /tmp/cc1Hj1lD.s 			page 41


 730 009a 5A68     		ldr	r2, [r3, #4]
 731 009c 42F00102 		orr	r2, r2, #1
 732 00a0 5A60     		str	r2, [r3, #4]
 733              	.L70:
 967:Libraries/STM32F1xx_HAL_Driver/Src/stm32f1xx_hal_i2s.c **** 
 734              		.loc 1 967 0
 735 00a2 0020     		movs	r0, #0
 736 00a4 84F83800 		strb	r0, [r4, #56]
 969:Libraries/STM32F1xx_HAL_Driver/Src/stm32f1xx_hal_i2s.c ****   }
 737              		.loc 1 969 0
 738 00a8 B7E7     		b	.L64
 739              	.LVL72:
 740              	.L65:
 917:Libraries/STM32F1xx_HAL_Driver/Src/stm32f1xx_hal_i2s.c ****       hi2s->RxXferCount = (Size << 1U);
 741              		.loc 1 917 0
 742 00aa 5300     		lsls	r3, r2, #1
 743              	.LVL73:
 744 00ac 9BB2     		uxth	r3, r3
 745 00ae 0385     		strh	r3, [r0, #40]	@ movhi
 918:Libraries/STM32F1xx_HAL_Driver/Src/stm32f1xx_hal_i2s.c ****     }
 746              		.loc 1 918 0
 747 00b0 4385     		strh	r3, [r0, #42]	@ movhi
 748 00b2 BFE7     		b	.L67
 749              	.LVL74:
 750              	.L80:
 751              	.LBB2:
 945:Libraries/STM32F1xx_HAL_Driver/Src/stm32f1xx_hal_i2s.c ****     }
 752              		.loc 1 945 0
 753 00b4 0023     		movs	r3, #0
 754 00b6 0193     		str	r3, [sp, #4]
 755 00b8 CB68     		ldr	r3, [r1, #12]
 756 00ba 0193     		str	r3, [sp, #4]
 757 00bc 8B68     		ldr	r3, [r1, #8]
 758 00be 0193     		str	r3, [sp, #4]
 759 00c0 019B     		ldr	r3, [sp, #4]
 760 00c2 D4E7     		b	.L68
 761              	.LVL75:
 762              	.L71:
 763              	.LCFI10:
 764              		.cfi_def_cfa_offset 0
 765              		.cfi_restore 4
 766              		.cfi_restore 14
 767              	.LBE2:
 908:Libraries/STM32F1xx_HAL_Driver/Src/stm32f1xx_hal_i2s.c ****   }
 768              		.loc 1 908 0
 769 00c4 0120     		movs	r0, #1
 770              	.LVL76:
 771 00c6 7047     		bx	lr
 772              	.LVL77:
 773              	.L72:
 774              	.LCFI11:
 775              		.cfi_def_cfa_offset 16
 776              		.cfi_offset 4, -8
 777              		.cfi_offset 14, -4
 778 00c8 0120     		movs	r0, #1
 779              	.LVL78:
 780 00ca A6E7     		b	.L64
ARM GAS  /tmp/cc1Hj1lD.s 			page 42


 781              	.LVL79:
 782              	.L74:
 926:Libraries/STM32F1xx_HAL_Driver/Src/stm32f1xx_hal_i2s.c **** 
 783              		.loc 1 926 0
 784 00cc 0220     		movs	r0, #2
 785              	.LVL80:
 786 00ce A4E7     		b	.L64
 787              	.L82:
 788              		.align	2
 789              	.L81:
 790 00d0 00000000 		.word	I2S_DMARxHalfCplt
 791 00d4 00000000 		.word	I2S_DMARxCplt
 792 00d8 00000000 		.word	I2S_DMAError
 793              		.cfi_endproc
 794              	.LFE73:
 796              		.section	.text.HAL_I2S_DMAPause,"ax",%progbits
 797              		.align	1
 798              		.global	HAL_I2S_DMAPause
 799              		.syntax unified
 800              		.thumb
 801              		.thumb_func
 802              		.fpu softvfp
 804              	HAL_I2S_DMAPause:
 805              	.LFB74:
 984:Libraries/STM32F1xx_HAL_Driver/Src/stm32f1xx_hal_i2s.c ****   /* Process Locked */
 806              		.loc 1 984 0
 807              		.cfi_startproc
 808              		@ args = 0, pretend = 0, frame = 0
 809              		@ frame_needed = 0, uses_anonymous_args = 0
 810              		@ link register save eliminated.
 811              	.LVL81:
 986:Libraries/STM32F1xx_HAL_Driver/Src/stm32f1xx_hal_i2s.c **** 
 812              		.loc 1 986 0
 813 0000 90F83830 		ldrb	r3, [r0, #56]	@ zero_extendqisi2
 814 0004 DBB2     		uxtb	r3, r3
 815 0006 012B     		cmp	r3, #1
 816 0008 1DD0     		beq	.L87
 986:Libraries/STM32F1xx_HAL_Driver/Src/stm32f1xx_hal_i2s.c **** 
 817              		.loc 1 986 0 is_stmt 0 discriminator 2
 818 000a 0123     		movs	r3, #1
 819 000c 80F83830 		strb	r3, [r0, #56]
 988:Libraries/STM32F1xx_HAL_Driver/Src/stm32f1xx_hal_i2s.c ****   {
 820              		.loc 1 988 0 is_stmt 1 discriminator 2
 821 0010 90F83930 		ldrb	r3, [r0, #57]	@ zero_extendqisi2
 822 0014 DBB2     		uxtb	r3, r3
 823 0016 032B     		cmp	r3, #3
 824 0018 09D0     		beq	.L88
 993:Libraries/STM32F1xx_HAL_Driver/Src/stm32f1xx_hal_i2s.c ****   {
 825              		.loc 1 993 0
 826 001a 90F83930 		ldrb	r3, [r0, #57]	@ zero_extendqisi2
 827 001e DBB2     		uxtb	r3, r3
 828 0020 042B     		cmp	r3, #4
 829 0022 0AD0     		beq	.L89
 830              	.L86:
1000:Libraries/STM32F1xx_HAL_Driver/Src/stm32f1xx_hal_i2s.c **** 
 831              		.loc 1 1000 0
 832 0024 0023     		movs	r3, #0
ARM GAS  /tmp/cc1Hj1lD.s 			page 43


 833 0026 80F83830 		strb	r3, [r0, #56]
1002:Libraries/STM32F1xx_HAL_Driver/Src/stm32f1xx_hal_i2s.c **** }
 834              		.loc 1 1002 0
 835 002a 1846     		mov	r0, r3
 836              	.LVL82:
 837 002c 7047     		bx	lr
 838              	.LVL83:
 839              	.L88:
 991:Libraries/STM32F1xx_HAL_Driver/Src/stm32f1xx_hal_i2s.c ****   }
 840              		.loc 1 991 0
 841 002e 0268     		ldr	r2, [r0]
 842 0030 5368     		ldr	r3, [r2, #4]
 843 0032 23F00203 		bic	r3, r3, #2
 844 0036 5360     		str	r3, [r2, #4]
 845 0038 F4E7     		b	.L86
 846              	.L89:
 996:Libraries/STM32F1xx_HAL_Driver/Src/stm32f1xx_hal_i2s.c ****   }
 847              		.loc 1 996 0
 848 003a 0268     		ldr	r2, [r0]
 849 003c 5368     		ldr	r3, [r2, #4]
 850 003e 23F00103 		bic	r3, r3, #1
 851 0042 5360     		str	r3, [r2, #4]
 852 0044 EEE7     		b	.L86
 853              	.L87:
 986:Libraries/STM32F1xx_HAL_Driver/Src/stm32f1xx_hal_i2s.c **** 
 854              		.loc 1 986 0
 855 0046 0220     		movs	r0, #2
 856              	.LVL84:
1003:Libraries/STM32F1xx_HAL_Driver/Src/stm32f1xx_hal_i2s.c **** 
 857              		.loc 1 1003 0
 858 0048 7047     		bx	lr
 859              		.cfi_endproc
 860              	.LFE74:
 862              		.section	.text.HAL_I2S_DMAResume,"ax",%progbits
 863              		.align	1
 864              		.global	HAL_I2S_DMAResume
 865              		.syntax unified
 866              		.thumb
 867              		.thumb_func
 868              		.fpu softvfp
 870              	HAL_I2S_DMAResume:
 871              	.LFB75:
1012:Libraries/STM32F1xx_HAL_Driver/Src/stm32f1xx_hal_i2s.c ****   /* Process Locked */
 872              		.loc 1 1012 0
 873              		.cfi_startproc
 874              		@ args = 0, pretend = 0, frame = 0
 875              		@ frame_needed = 0, uses_anonymous_args = 0
 876              		@ link register save eliminated.
 877              	.LVL85:
1014:Libraries/STM32F1xx_HAL_Driver/Src/stm32f1xx_hal_i2s.c **** 
 878              		.loc 1 1014 0
 879 0000 90F83830 		ldrb	r3, [r0, #56]	@ zero_extendqisi2
 880 0004 DBB2     		uxtb	r3, r3
 881 0006 012B     		cmp	r3, #1
 882 0008 26D0     		beq	.L95
1014:Libraries/STM32F1xx_HAL_Driver/Src/stm32f1xx_hal_i2s.c **** 
 883              		.loc 1 1014 0 is_stmt 0 discriminator 2
ARM GAS  /tmp/cc1Hj1lD.s 			page 44


 884 000a 0123     		movs	r3, #1
 885 000c 80F83830 		strb	r3, [r0, #56]
1016:Libraries/STM32F1xx_HAL_Driver/Src/stm32f1xx_hal_i2s.c ****   {
 886              		.loc 1 1016 0 is_stmt 1 discriminator 2
 887 0010 90F83930 		ldrb	r3, [r0, #57]	@ zero_extendqisi2
 888 0014 DBB2     		uxtb	r3, r3
 889 0016 032B     		cmp	r3, #3
 890 0018 12D0     		beq	.L96
1021:Libraries/STM32F1xx_HAL_Driver/Src/stm32f1xx_hal_i2s.c ****   {
 891              		.loc 1 1021 0
 892 001a 90F83930 		ldrb	r3, [r0, #57]	@ zero_extendqisi2
 893 001e DBB2     		uxtb	r3, r3
 894 0020 042B     		cmp	r3, #4
 895 0022 13D0     		beq	.L97
 896              	.L93:
1028:Libraries/STM32F1xx_HAL_Driver/Src/stm32f1xx_hal_i2s.c ****   {
 897              		.loc 1 1028 0
 898 0024 0368     		ldr	r3, [r0]
 899 0026 DA69     		ldr	r2, [r3, #28]
 900 0028 12F4806F 		tst	r2, #1024
 901 002c 03D1     		bne	.L94
1031:Libraries/STM32F1xx_HAL_Driver/Src/stm32f1xx_hal_i2s.c ****   }
 902              		.loc 1 1031 0
 903 002e DA69     		ldr	r2, [r3, #28]
 904 0030 42F48062 		orr	r2, r2, #1024
 905 0034 DA61     		str	r2, [r3, #28]
 906              	.L94:
1035:Libraries/STM32F1xx_HAL_Driver/Src/stm32f1xx_hal_i2s.c **** 
 907              		.loc 1 1035 0
 908 0036 0023     		movs	r3, #0
 909 0038 80F83830 		strb	r3, [r0, #56]
1037:Libraries/STM32F1xx_HAL_Driver/Src/stm32f1xx_hal_i2s.c **** }
 910              		.loc 1 1037 0
 911 003c 1846     		mov	r0, r3
 912              	.LVL86:
 913 003e 7047     		bx	lr
 914              	.LVL87:
 915              	.L96:
1019:Libraries/STM32F1xx_HAL_Driver/Src/stm32f1xx_hal_i2s.c ****   }
 916              		.loc 1 1019 0
 917 0040 0268     		ldr	r2, [r0]
 918 0042 5368     		ldr	r3, [r2, #4]
 919 0044 43F00203 		orr	r3, r3, #2
 920 0048 5360     		str	r3, [r2, #4]
 921 004a EBE7     		b	.L93
 922              	.L97:
1024:Libraries/STM32F1xx_HAL_Driver/Src/stm32f1xx_hal_i2s.c ****   }
 923              		.loc 1 1024 0
 924 004c 0268     		ldr	r2, [r0]
 925 004e 5368     		ldr	r3, [r2, #4]
 926 0050 43F00103 		orr	r3, r3, #1
 927 0054 5360     		str	r3, [r2, #4]
 928 0056 E5E7     		b	.L93
 929              	.L95:
1014:Libraries/STM32F1xx_HAL_Driver/Src/stm32f1xx_hal_i2s.c **** 
 930              		.loc 1 1014 0
 931 0058 0220     		movs	r0, #2
ARM GAS  /tmp/cc1Hj1lD.s 			page 45


 932              	.LVL88:
1038:Libraries/STM32F1xx_HAL_Driver/Src/stm32f1xx_hal_i2s.c **** 
 933              		.loc 1 1038 0
 934 005a 7047     		bx	lr
 935              		.cfi_endproc
 936              	.LFE75:
 938              		.section	.text.HAL_I2S_DMAStop,"ax",%progbits
 939              		.align	1
 940              		.global	HAL_I2S_DMAStop
 941              		.syntax unified
 942              		.thumb
 943              		.thumb_func
 944              		.fpu softvfp
 946              	HAL_I2S_DMAStop:
 947              	.LFB76:
1047:Libraries/STM32F1xx_HAL_Driver/Src/stm32f1xx_hal_i2s.c ****   /* Process Locked */
 948              		.loc 1 1047 0
 949              		.cfi_startproc
 950              		@ args = 0, pretend = 0, frame = 0
 951              		@ frame_needed = 0, uses_anonymous_args = 0
 952              	.LVL89:
1049:Libraries/STM32F1xx_HAL_Driver/Src/stm32f1xx_hal_i2s.c **** 
 953              		.loc 1 1049 0
 954 0000 90F83830 		ldrb	r3, [r0, #56]	@ zero_extendqisi2
 955 0004 DBB2     		uxtb	r3, r3
 956 0006 012B     		cmp	r3, #1
 957 0008 2CD0     		beq	.L102
1047:Libraries/STM32F1xx_HAL_Driver/Src/stm32f1xx_hal_i2s.c ****   /* Process Locked */
 958              		.loc 1 1047 0 discriminator 2
 959 000a 10B5     		push	{r4, lr}
 960              	.LCFI12:
 961              		.cfi_def_cfa_offset 8
 962              		.cfi_offset 4, -8
 963              		.cfi_offset 14, -4
 964 000c 0446     		mov	r4, r0
1049:Libraries/STM32F1xx_HAL_Driver/Src/stm32f1xx_hal_i2s.c **** 
 965              		.loc 1 1049 0 discriminator 2
 966 000e 0123     		movs	r3, #1
 967 0010 80F83830 		strb	r3, [r0, #56]
1051:Libraries/STM32F1xx_HAL_Driver/Src/stm32f1xx_hal_i2s.c ****   {
 968              		.loc 1 1051 0 discriminator 2
 969 0014 90F83930 		ldrb	r3, [r0, #57]	@ zero_extendqisi2
 970 0018 DBB2     		uxtb	r3, r3
 971 001a 032B     		cmp	r3, #3
 972 001c 10D0     		beq	.L107
1059:Libraries/STM32F1xx_HAL_Driver/Src/stm32f1xx_hal_i2s.c ****   {
 973              		.loc 1 1059 0
 974 001e 90F83930 		ldrb	r3, [r0, #57]	@ zero_extendqisi2
 975 0022 DBB2     		uxtb	r3, r3
 976 0024 042B     		cmp	r3, #4
 977 0026 14D0     		beq	.L108
 978              	.LVL90:
 979              	.L101:
1068:Libraries/STM32F1xx_HAL_Driver/Src/stm32f1xx_hal_i2s.c **** 
 980              		.loc 1 1068 0
 981 0028 2268     		ldr	r2, [r4]
 982 002a D369     		ldr	r3, [r2, #28]
ARM GAS  /tmp/cc1Hj1lD.s 			page 46


 983 002c 23F48063 		bic	r3, r3, #1024
 984 0030 D361     		str	r3, [r2, #28]
1070:Libraries/STM32F1xx_HAL_Driver/Src/stm32f1xx_hal_i2s.c **** 
 985              		.loc 1 1070 0
 986 0032 0123     		movs	r3, #1
 987 0034 84F83930 		strb	r3, [r4, #57]
1073:Libraries/STM32F1xx_HAL_Driver/Src/stm32f1xx_hal_i2s.c **** 
 988              		.loc 1 1073 0
 989 0038 0020     		movs	r0, #0
 990 003a 84F83800 		strb	r0, [r4, #56]
1075:Libraries/STM32F1xx_HAL_Driver/Src/stm32f1xx_hal_i2s.c **** }
 991              		.loc 1 1075 0
 992 003e 10BD     		pop	{r4, pc}
 993              	.LVL91:
 994              	.L107:
1054:Libraries/STM32F1xx_HAL_Driver/Src/stm32f1xx_hal_i2s.c **** 
 995              		.loc 1 1054 0
 996 0040 0268     		ldr	r2, [r0]
 997 0042 5368     		ldr	r3, [r2, #4]
 998 0044 23F00203 		bic	r3, r3, #2
 999 0048 5360     		str	r3, [r2, #4]
1057:Libraries/STM32F1xx_HAL_Driver/Src/stm32f1xx_hal_i2s.c ****   }
 1000              		.loc 1 1057 0
 1001 004a 006B     		ldr	r0, [r0, #48]
 1002              	.LVL92:
 1003 004c FFF7FEFF 		bl	HAL_DMA_Abort
 1004              	.LVL93:
 1005 0050 EAE7     		b	.L101
 1006              	.LVL94:
 1007              	.L108:
1062:Libraries/STM32F1xx_HAL_Driver/Src/stm32f1xx_hal_i2s.c **** 
 1008              		.loc 1 1062 0
 1009 0052 0268     		ldr	r2, [r0]
 1010 0054 5368     		ldr	r3, [r2, #4]
 1011 0056 23F00103 		bic	r3, r3, #1
 1012 005a 5360     		str	r3, [r2, #4]
1065:Libraries/STM32F1xx_HAL_Driver/Src/stm32f1xx_hal_i2s.c ****   }
 1013              		.loc 1 1065 0
 1014 005c 406B     		ldr	r0, [r0, #52]
 1015              	.LVL95:
 1016 005e FFF7FEFF 		bl	HAL_DMA_Abort
 1017              	.LVL96:
 1018 0062 E1E7     		b	.L101
 1019              	.LVL97:
 1020              	.L102:
 1021              	.LCFI13:
 1022              		.cfi_def_cfa_offset 0
 1023              		.cfi_restore 4
 1024              		.cfi_restore 14
1049:Libraries/STM32F1xx_HAL_Driver/Src/stm32f1xx_hal_i2s.c **** 
 1025              		.loc 1 1049 0
 1026 0064 0220     		movs	r0, #2
 1027              	.LVL98:
 1028 0066 7047     		bx	lr
 1029              		.cfi_endproc
 1030              	.LFE76:
 1032              		.section	.text.HAL_I2S_IRQHandler,"ax",%progbits
ARM GAS  /tmp/cc1Hj1lD.s 			page 47


 1033              		.align	1
 1034              		.global	HAL_I2S_IRQHandler
 1035              		.syntax unified
 1036              		.thumb
 1037              		.thumb_func
 1038              		.fpu softvfp
 1040              	HAL_I2S_IRQHandler:
 1041              	.LFB77:
1085:Libraries/STM32F1xx_HAL_Driver/Src/stm32f1xx_hal_i2s.c ****   /* Call the IrqHandler ISR set during HAL_I2S_INIT */
 1042              		.loc 1 1085 0
 1043              		.cfi_startproc
 1044              		@ args = 0, pretend = 0, frame = 0
 1045              		@ frame_needed = 0, uses_anonymous_args = 0
 1046              	.LVL99:
 1047 0000 08B5     		push	{r3, lr}
 1048              	.LCFI14:
 1049              		.cfi_def_cfa_offset 8
 1050              		.cfi_offset 3, -8
 1051              		.cfi_offset 14, -4
1087:Libraries/STM32F1xx_HAL_Driver/Src/stm32f1xx_hal_i2s.c **** }
 1052              		.loc 1 1087 0
 1053 0002 C36A     		ldr	r3, [r0, #44]
 1054 0004 9847     		blx	r3
 1055              	.LVL100:
 1056 0006 08BD     		pop	{r3, pc}
 1057              		.cfi_endproc
 1058              	.LFE77:
 1060              		.section	.text.HAL_I2S_TxHalfCpltCallback,"ax",%progbits
 1061              		.align	1
 1062              		.weak	HAL_I2S_TxHalfCpltCallback
 1063              		.syntax unified
 1064              		.thumb
 1065              		.thumb_func
 1066              		.fpu softvfp
 1068              	HAL_I2S_TxHalfCpltCallback:
 1069              	.LFB78:
1097:Libraries/STM32F1xx_HAL_Driver/Src/stm32f1xx_hal_i2s.c ****   /* Prevent unused argument(s) compilation warning */
 1070              		.loc 1 1097 0
 1071              		.cfi_startproc
 1072              		@ args = 0, pretend = 0, frame = 0
 1073              		@ frame_needed = 0, uses_anonymous_args = 0
 1074              		@ link register save eliminated.
 1075              	.LVL101:
 1076 0000 7047     		bx	lr
 1077              		.cfi_endproc
 1078              	.LFE78:
 1080              		.section	.text.I2S_DMATxHalfCplt,"ax",%progbits
 1081              		.align	1
 1082              		.syntax unified
 1083              		.thumb
 1084              		.thumb_func
 1085              		.fpu softvfp
 1087              	I2S_DMATxHalfCplt:
 1088              	.LFB86:
1244:Libraries/STM32F1xx_HAL_Driver/Src/stm32f1xx_hal_i2s.c ****   I2S_HandleTypeDef* hi2s = (I2S_HandleTypeDef*)((DMA_HandleTypeDef*)hdma)->Parent;
 1089              		.loc 1 1244 0
 1090              		.cfi_startproc
ARM GAS  /tmp/cc1Hj1lD.s 			page 48


 1091              		@ args = 0, pretend = 0, frame = 0
 1092              		@ frame_needed = 0, uses_anonymous_args = 0
 1093              	.LVL102:
1244:Libraries/STM32F1xx_HAL_Driver/Src/stm32f1xx_hal_i2s.c ****   I2S_HandleTypeDef* hi2s = (I2S_HandleTypeDef*)((DMA_HandleTypeDef*)hdma)->Parent;
 1094              		.loc 1 1244 0
 1095 0000 08B5     		push	{r3, lr}
 1096              	.LCFI15:
 1097              		.cfi_def_cfa_offset 8
 1098              		.cfi_offset 3, -8
 1099              		.cfi_offset 14, -4
 1100              	.LVL103:
1247:Libraries/STM32F1xx_HAL_Driver/Src/stm32f1xx_hal_i2s.c **** }
 1101              		.loc 1 1247 0
 1102 0002 406A     		ldr	r0, [r0, #36]
 1103              	.LVL104:
 1104 0004 FFF7FEFF 		bl	HAL_I2S_TxHalfCpltCallback
 1105              	.LVL105:
 1106 0008 08BD     		pop	{r3, pc}
 1107              		.cfi_endproc
 1108              	.LFE86:
 1110              		.section	.text.HAL_I2S_TxCpltCallback,"ax",%progbits
 1111              		.align	1
 1112              		.weak	HAL_I2S_TxCpltCallback
 1113              		.syntax unified
 1114              		.thumb
 1115              		.thumb_func
 1116              		.fpu softvfp
 1118              	HAL_I2S_TxCpltCallback:
 1119              	.LFB79:
1112:Libraries/STM32F1xx_HAL_Driver/Src/stm32f1xx_hal_i2s.c ****   /* Prevent unused argument(s) compilation warning */
 1120              		.loc 1 1112 0
 1121              		.cfi_startproc
 1122              		@ args = 0, pretend = 0, frame = 0
 1123              		@ frame_needed = 0, uses_anonymous_args = 0
 1124              		@ link register save eliminated.
 1125              	.LVL106:
 1126 0000 7047     		bx	lr
 1127              		.cfi_endproc
 1128              	.LFE79:
 1130              		.section	.text.I2S_Transmit_IT,"ax",%progbits
 1131              		.align	1
 1132              		.syntax unified
 1133              		.thumb
 1134              		.thumb_func
 1135              		.fpu softvfp
 1137              	I2S_Transmit_IT:
 1138              	.LFB90:
1311:Libraries/STM32F1xx_HAL_Driver/Src/stm32f1xx_hal_i2s.c ****   /* Transmit data */
 1139              		.loc 1 1311 0
 1140              		.cfi_startproc
 1141              		@ args = 0, pretend = 0, frame = 0
 1142              		@ frame_needed = 0, uses_anonymous_args = 0
 1143              	.LVL107:
1311:Libraries/STM32F1xx_HAL_Driver/Src/stm32f1xx_hal_i2s.c ****   /* Transmit data */
 1144              		.loc 1 1311 0
 1145 0000 08B5     		push	{r3, lr}
 1146              	.LCFI16:
ARM GAS  /tmp/cc1Hj1lD.s 			page 49


 1147              		.cfi_def_cfa_offset 8
 1148              		.cfi_offset 3, -8
 1149              		.cfi_offset 14, -4
1313:Libraries/STM32F1xx_HAL_Driver/Src/stm32f1xx_hal_i2s.c ****   hi2s->TxXferCount--;
 1150              		.loc 1 1313 0
 1151 0002 0268     		ldr	r2, [r0]
 1152 0004 C369     		ldr	r3, [r0, #28]
 1153 0006 991C     		adds	r1, r3, #2
 1154 0008 C161     		str	r1, [r0, #28]
 1155 000a 1B88     		ldrh	r3, [r3]
 1156 000c D360     		str	r3, [r2, #12]
1314:Libraries/STM32F1xx_HAL_Driver/Src/stm32f1xx_hal_i2s.c **** 
 1157              		.loc 1 1314 0
 1158 000e 438C     		ldrh	r3, [r0, #34]
 1159 0010 9BB2     		uxth	r3, r3
 1160 0012 013B     		subs	r3, r3, #1
 1161 0014 9BB2     		uxth	r3, r3
 1162 0016 4384     		strh	r3, [r0, #34]	@ movhi
1316:Libraries/STM32F1xx_HAL_Driver/Src/stm32f1xx_hal_i2s.c ****   {
 1163              		.loc 1 1316 0
 1164 0018 438C     		ldrh	r3, [r0, #34]
 1165 001a 9BB2     		uxth	r3, r3
 1166 001c 03B1     		cbz	r3, .L118
 1167              	.LVL108:
 1168              	.L115:
 1169 001e 08BD     		pop	{r3, pc}
 1170              	.LVL109:
 1171              	.L118:
1319:Libraries/STM32F1xx_HAL_Driver/Src/stm32f1xx_hal_i2s.c **** 
 1172              		.loc 1 1319 0
 1173 0020 0268     		ldr	r2, [r0]
 1174 0022 5368     		ldr	r3, [r2, #4]
 1175 0024 23F0A003 		bic	r3, r3, #160
 1176 0028 5360     		str	r3, [r2, #4]
1321:Libraries/STM32F1xx_HAL_Driver/Src/stm32f1xx_hal_i2s.c ****     HAL_I2S_TxCpltCallback(hi2s);
 1177              		.loc 1 1321 0
 1178 002a 0123     		movs	r3, #1
 1179 002c 80F83930 		strb	r3, [r0, #57]
1322:Libraries/STM32F1xx_HAL_Driver/Src/stm32f1xx_hal_i2s.c ****   }
 1180              		.loc 1 1322 0
 1181 0030 FFF7FEFF 		bl	HAL_I2S_TxCpltCallback
 1182              	.LVL110:
1324:Libraries/STM32F1xx_HAL_Driver/Src/stm32f1xx_hal_i2s.c **** 
 1183              		.loc 1 1324 0
 1184 0034 F3E7     		b	.L115
 1185              		.cfi_endproc
 1186              	.LFE90:
 1188              		.section	.text.I2S_DMATxCplt,"ax",%progbits
 1189              		.align	1
 1190              		.syntax unified
 1191              		.thumb
 1192              		.thumb_func
 1193              		.fpu softvfp
 1195              	I2S_DMATxCplt:
 1196              	.LFB85:
1224:Libraries/STM32F1xx_HAL_Driver/Src/stm32f1xx_hal_i2s.c ****   I2S_HandleTypeDef* hi2s = ( I2S_HandleTypeDef* )((DMA_HandleTypeDef* )hdma)->Parent;
 1197              		.loc 1 1224 0
ARM GAS  /tmp/cc1Hj1lD.s 			page 50


 1198              		.cfi_startproc
 1199              		@ args = 0, pretend = 0, frame = 0
 1200              		@ frame_needed = 0, uses_anonymous_args = 0
 1201              	.LVL111:
 1202 0000 08B5     		push	{r3, lr}
 1203              	.LCFI17:
 1204              		.cfi_def_cfa_offset 8
 1205              		.cfi_offset 3, -8
 1206              		.cfi_offset 14, -4
1225:Libraries/STM32F1xx_HAL_Driver/Src/stm32f1xx_hal_i2s.c **** 
 1207              		.loc 1 1225 0
 1208 0002 436A     		ldr	r3, [r0, #36]
 1209              	.LVL112:
1227:Libraries/STM32F1xx_HAL_Driver/Src/stm32f1xx_hal_i2s.c ****   {
 1210              		.loc 1 1227 0
 1211 0004 0268     		ldr	r2, [r0]
 1212 0006 1268     		ldr	r2, [r2]
 1213 0008 12F0200F 		tst	r2, #32
 1214 000c 09D1     		bne	.L120
1230:Libraries/STM32F1xx_HAL_Driver/Src/stm32f1xx_hal_i2s.c **** 
 1215              		.loc 1 1230 0
 1216 000e 1968     		ldr	r1, [r3]
 1217 0010 4A68     		ldr	r2, [r1, #4]
 1218 0012 22F00202 		bic	r2, r2, #2
 1219 0016 4A60     		str	r2, [r1, #4]
1232:Libraries/STM32F1xx_HAL_Driver/Src/stm32f1xx_hal_i2s.c ****     hi2s->State       = HAL_I2S_STATE_READY;
 1220              		.loc 1 1232 0
 1221 0018 0022     		movs	r2, #0
 1222 001a 5A84     		strh	r2, [r3, #34]	@ movhi
1233:Libraries/STM32F1xx_HAL_Driver/Src/stm32f1xx_hal_i2s.c ****   }
 1223              		.loc 1 1233 0
 1224 001c 0122     		movs	r2, #1
 1225 001e 83F83920 		strb	r2, [r3, #57]
 1226              	.L120:
1235:Libraries/STM32F1xx_HAL_Driver/Src/stm32f1xx_hal_i2s.c **** }
 1227              		.loc 1 1235 0
 1228 0022 1846     		mov	r0, r3
 1229              	.LVL113:
 1230 0024 FFF7FEFF 		bl	HAL_I2S_TxCpltCallback
 1231              	.LVL114:
 1232 0028 08BD     		pop	{r3, pc}
 1233              		.cfi_endproc
 1234              	.LFE85:
 1236              		.section	.text.HAL_I2S_RxHalfCpltCallback,"ax",%progbits
 1237              		.align	1
 1238              		.weak	HAL_I2S_RxHalfCpltCallback
 1239              		.syntax unified
 1240              		.thumb
 1241              		.thumb_func
 1242              		.fpu softvfp
 1244              	HAL_I2S_RxHalfCpltCallback:
 1245              	.LFB80:
1127:Libraries/STM32F1xx_HAL_Driver/Src/stm32f1xx_hal_i2s.c ****   /* Prevent unused argument(s) compilation warning */
 1246              		.loc 1 1127 0
 1247              		.cfi_startproc
 1248              		@ args = 0, pretend = 0, frame = 0
 1249              		@ frame_needed = 0, uses_anonymous_args = 0
ARM GAS  /tmp/cc1Hj1lD.s 			page 51


 1250              		@ link register save eliminated.
 1251              	.LVL115:
 1252 0000 7047     		bx	lr
 1253              		.cfi_endproc
 1254              	.LFE80:
 1256              		.section	.text.I2S_DMARxHalfCplt,"ax",%progbits
 1257              		.align	1
 1258              		.syntax unified
 1259              		.thumb
 1260              		.thumb_func
 1261              		.fpu softvfp
 1263              	I2S_DMARxHalfCplt:
 1264              	.LFB88:
1277:Libraries/STM32F1xx_HAL_Driver/Src/stm32f1xx_hal_i2s.c ****   I2S_HandleTypeDef* hi2s = (I2S_HandleTypeDef*)((DMA_HandleTypeDef*)hdma)->Parent;
 1265              		.loc 1 1277 0
 1266              		.cfi_startproc
 1267              		@ args = 0, pretend = 0, frame = 0
 1268              		@ frame_needed = 0, uses_anonymous_args = 0
 1269              	.LVL116:
1277:Libraries/STM32F1xx_HAL_Driver/Src/stm32f1xx_hal_i2s.c ****   I2S_HandleTypeDef* hi2s = (I2S_HandleTypeDef*)((DMA_HandleTypeDef*)hdma)->Parent;
 1270              		.loc 1 1277 0
 1271 0000 08B5     		push	{r3, lr}
 1272              	.LCFI18:
 1273              		.cfi_def_cfa_offset 8
 1274              		.cfi_offset 3, -8
 1275              		.cfi_offset 14, -4
 1276              	.LVL117:
1280:Libraries/STM32F1xx_HAL_Driver/Src/stm32f1xx_hal_i2s.c **** }
 1277              		.loc 1 1280 0
 1278 0002 406A     		ldr	r0, [r0, #36]
 1279              	.LVL118:
 1280 0004 FFF7FEFF 		bl	HAL_I2S_RxHalfCpltCallback
 1281              	.LVL119:
 1282 0008 08BD     		pop	{r3, pc}
 1283              		.cfi_endproc
 1284              	.LFE88:
 1286              		.section	.text.HAL_I2S_RxCpltCallback,"ax",%progbits
 1287              		.align	1
 1288              		.weak	HAL_I2S_RxCpltCallback
 1289              		.syntax unified
 1290              		.thumb
 1291              		.thumb_func
 1292              		.fpu softvfp
 1294              	HAL_I2S_RxCpltCallback:
 1295              	.LFB81:
1142:Libraries/STM32F1xx_HAL_Driver/Src/stm32f1xx_hal_i2s.c ****   /* Prevent unused argument(s) compilation warning */
 1296              		.loc 1 1142 0
 1297              		.cfi_startproc
 1298              		@ args = 0, pretend = 0, frame = 0
 1299              		@ frame_needed = 0, uses_anonymous_args = 0
 1300              		@ link register save eliminated.
 1301              	.LVL120:
 1302 0000 7047     		bx	lr
 1303              		.cfi_endproc
 1304              	.LFE81:
 1306              		.section	.text.I2S_Receive_IT,"ax",%progbits
 1307              		.align	1
ARM GAS  /tmp/cc1Hj1lD.s 			page 52


 1308              		.syntax unified
 1309              		.thumb
 1310              		.thumb_func
 1311              		.fpu softvfp
 1313              	I2S_Receive_IT:
 1314              	.LFB91:
1333:Libraries/STM32F1xx_HAL_Driver/Src/stm32f1xx_hal_i2s.c ****   /* Receive data */
 1315              		.loc 1 1333 0
 1316              		.cfi_startproc
 1317              		@ args = 0, pretend = 0, frame = 0
 1318              		@ frame_needed = 0, uses_anonymous_args = 0
 1319              	.LVL121:
1333:Libraries/STM32F1xx_HAL_Driver/Src/stm32f1xx_hal_i2s.c ****   /* Receive data */
 1320              		.loc 1 1333 0
 1321 0000 08B5     		push	{r3, lr}
 1322              	.LCFI19:
 1323              		.cfi_def_cfa_offset 8
 1324              		.cfi_offset 3, -8
 1325              		.cfi_offset 14, -4
1335:Libraries/STM32F1xx_HAL_Driver/Src/stm32f1xx_hal_i2s.c ****   hi2s->RxXferCount--;
 1326              		.loc 1 1335 0
 1327 0002 436A     		ldr	r3, [r0, #36]
 1328 0004 9A1C     		adds	r2, r3, #2
 1329 0006 4262     		str	r2, [r0, #36]
 1330 0008 0268     		ldr	r2, [r0]
 1331 000a D268     		ldr	r2, [r2, #12]
 1332 000c 1A80     		strh	r2, [r3]	@ movhi
1336:Libraries/STM32F1xx_HAL_Driver/Src/stm32f1xx_hal_i2s.c **** 
 1333              		.loc 1 1336 0
 1334 000e 438D     		ldrh	r3, [r0, #42]
 1335 0010 9BB2     		uxth	r3, r3
 1336 0012 013B     		subs	r3, r3, #1
 1337 0014 9BB2     		uxth	r3, r3
 1338 0016 4385     		strh	r3, [r0, #42]	@ movhi
1338:Libraries/STM32F1xx_HAL_Driver/Src/stm32f1xx_hal_i2s.c ****   {
 1339              		.loc 1 1338 0
 1340 0018 438D     		ldrh	r3, [r0, #42]
 1341 001a 9BB2     		uxth	r3, r3
 1342 001c 03B1     		cbz	r3, .L129
 1343              	.LVL122:
 1344              	.L126:
 1345 001e 08BD     		pop	{r3, pc}
 1346              	.LVL123:
 1347              	.L129:
1341:Libraries/STM32F1xx_HAL_Driver/Src/stm32f1xx_hal_i2s.c **** 
 1348              		.loc 1 1341 0
 1349 0020 0268     		ldr	r2, [r0]
 1350 0022 5368     		ldr	r3, [r2, #4]
 1351 0024 23F06003 		bic	r3, r3, #96
 1352 0028 5360     		str	r3, [r2, #4]
1343:Libraries/STM32F1xx_HAL_Driver/Src/stm32f1xx_hal_i2s.c ****     HAL_I2S_RxCpltCallback(hi2s);
 1353              		.loc 1 1343 0
 1354 002a 0123     		movs	r3, #1
 1355 002c 80F83930 		strb	r3, [r0, #57]
1344:Libraries/STM32F1xx_HAL_Driver/Src/stm32f1xx_hal_i2s.c ****   }
 1356              		.loc 1 1344 0
 1357 0030 FFF7FEFF 		bl	HAL_I2S_RxCpltCallback
ARM GAS  /tmp/cc1Hj1lD.s 			page 53


 1358              	.LVL124:
1346:Libraries/STM32F1xx_HAL_Driver/Src/stm32f1xx_hal_i2s.c **** 
 1359              		.loc 1 1346 0
 1360 0034 F3E7     		b	.L126
 1361              		.cfi_endproc
 1362              	.LFE91:
 1364              		.section	.text.I2S_DMARxCplt,"ax",%progbits
 1365              		.align	1
 1366              		.syntax unified
 1367              		.thumb
 1368              		.thumb_func
 1369              		.fpu softvfp
 1371              	I2S_DMARxCplt:
 1372              	.LFB87:
1257:Libraries/STM32F1xx_HAL_Driver/Src/stm32f1xx_hal_i2s.c ****   I2S_HandleTypeDef* hi2s = ( I2S_HandleTypeDef* )((DMA_HandleTypeDef* )hdma)->Parent;
 1373              		.loc 1 1257 0
 1374              		.cfi_startproc
 1375              		@ args = 0, pretend = 0, frame = 0
 1376              		@ frame_needed = 0, uses_anonymous_args = 0
 1377              	.LVL125:
 1378 0000 08B5     		push	{r3, lr}
 1379              	.LCFI20:
 1380              		.cfi_def_cfa_offset 8
 1381              		.cfi_offset 3, -8
 1382              		.cfi_offset 14, -4
1258:Libraries/STM32F1xx_HAL_Driver/Src/stm32f1xx_hal_i2s.c **** 
 1383              		.loc 1 1258 0
 1384 0002 436A     		ldr	r3, [r0, #36]
 1385              	.LVL126:
1260:Libraries/STM32F1xx_HAL_Driver/Src/stm32f1xx_hal_i2s.c ****   {
 1386              		.loc 1 1260 0
 1387 0004 0268     		ldr	r2, [r0]
 1388 0006 1268     		ldr	r2, [r2]
 1389 0008 12F0200F 		tst	r2, #32
 1390 000c 09D1     		bne	.L131
1263:Libraries/STM32F1xx_HAL_Driver/Src/stm32f1xx_hal_i2s.c ****     hi2s->RxXferCount = 0U;
 1391              		.loc 1 1263 0
 1392 000e 1968     		ldr	r1, [r3]
 1393 0010 4A68     		ldr	r2, [r1, #4]
 1394 0012 22F00102 		bic	r2, r2, #1
 1395 0016 4A60     		str	r2, [r1, #4]
1264:Libraries/STM32F1xx_HAL_Driver/Src/stm32f1xx_hal_i2s.c ****     hi2s->State       = HAL_I2S_STATE_READY;
 1396              		.loc 1 1264 0
 1397 0018 0022     		movs	r2, #0
 1398 001a 5A85     		strh	r2, [r3, #42]	@ movhi
1265:Libraries/STM32F1xx_HAL_Driver/Src/stm32f1xx_hal_i2s.c ****   }
 1399              		.loc 1 1265 0
 1400 001c 0122     		movs	r2, #1
 1401 001e 83F83920 		strb	r2, [r3, #57]
 1402              	.L131:
1267:Libraries/STM32F1xx_HAL_Driver/Src/stm32f1xx_hal_i2s.c **** }
 1403              		.loc 1 1267 0
 1404 0022 1846     		mov	r0, r3
 1405              	.LVL127:
 1406 0024 FFF7FEFF 		bl	HAL_I2S_RxCpltCallback
 1407              	.LVL128:
 1408 0028 08BD     		pop	{r3, pc}
ARM GAS  /tmp/cc1Hj1lD.s 			page 54


 1409              		.cfi_endproc
 1410              	.LFE87:
 1412              		.section	.text.HAL_I2S_ErrorCallback,"ax",%progbits
 1413              		.align	1
 1414              		.weak	HAL_I2S_ErrorCallback
 1415              		.syntax unified
 1416              		.thumb
 1417              		.thumb_func
 1418              		.fpu softvfp
 1420              	HAL_I2S_ErrorCallback:
 1421              	.LFB82:
1157:Libraries/STM32F1xx_HAL_Driver/Src/stm32f1xx_hal_i2s.c ****   /* Prevent unused argument(s) compilation warning */
 1422              		.loc 1 1157 0
 1423              		.cfi_startproc
 1424              		@ args = 0, pretend = 0, frame = 0
 1425              		@ frame_needed = 0, uses_anonymous_args = 0
 1426              		@ link register save eliminated.
 1427              	.LVL129:
 1428 0000 7047     		bx	lr
 1429              		.cfi_endproc
 1430              	.LFE82:
 1432              		.section	.text.HAL_I2S_Init,"ax",%progbits
 1433              		.align	1
 1434              		.global	HAL_I2S_Init
 1435              		.syntax unified
 1436              		.thumb
 1437              		.thumb_func
 1438              		.fpu softvfp
 1440              	HAL_I2S_Init:
 1441              	.LFB64:
 227:Libraries/STM32F1xx_HAL_Driver/Src/stm32f1xx_hal_i2s.c ****   uint32_t tmpreg = 0U, i2sdiv = 2U, i2sodd = 0U, packetlength = 16U;
 1442              		.loc 1 227 0
 1443              		.cfi_startproc
 1444              		@ args = 0, pretend = 0, frame = 0
 1445              		@ frame_needed = 0, uses_anonymous_args = 0
 1446              	.LVL130:
 232:Libraries/STM32F1xx_HAL_Driver/Src/stm32f1xx_hal_i2s.c ****   {
 1447              		.loc 1 232 0
 1448 0000 0028     		cmp	r0, #0
 1449 0002 00F08880 		beq	.L146
 227:Libraries/STM32F1xx_HAL_Driver/Src/stm32f1xx_hal_i2s.c ****   uint32_t tmpreg = 0U, i2sdiv = 2U, i2sodd = 0U, packetlength = 16U;
 1450              		.loc 1 227 0
 1451 0006 70B5     		push	{r4, r5, r6, lr}
 1452              	.LCFI21:
 1453              		.cfi_def_cfa_offset 16
 1454              		.cfi_offset 4, -16
 1455              		.cfi_offset 5, -12
 1456              		.cfi_offset 6, -8
 1457              		.cfi_offset 14, -4
 1458 0008 0446     		mov	r4, r0
 246:Libraries/STM32F1xx_HAL_Driver/Src/stm32f1xx_hal_i2s.c **** 
 1459              		.loc 1 246 0
 1460 000a 0225     		movs	r5, #2
 1461 000c 80F83950 		strb	r5, [r0, #57]
 249:Libraries/STM32F1xx_HAL_Driver/Src/stm32f1xx_hal_i2s.c **** 
 1462              		.loc 1 249 0
 1463 0010 424B     		ldr	r3, .L157
ARM GAS  /tmp/cc1Hj1lD.s 			page 55


 1464 0012 C362     		str	r3, [r0, #44]
 252:Libraries/STM32F1xx_HAL_Driver/Src/stm32f1xx_hal_i2s.c **** 
 1465              		.loc 1 252 0
 1466 0014 FFF7FEFF 		bl	HAL_I2S_MspInit
 1467              	.LVL131:
 256:Libraries/STM32F1xx_HAL_Driver/Src/stm32f1xx_hal_i2s.c ****                                      SPI_I2SCFGR_I2SSTD | SPI_I2SCFGR_PCMSYNC | SPI_I2SCFGR_I2SCFG 
 1468              		.loc 1 256 0
 1469 0018 2268     		ldr	r2, [r4]
 1470 001a D369     		ldr	r3, [r2, #28]
 1471 001c 23F47B63 		bic	r3, r3, #4016
 1472 0020 23F00F03 		bic	r3, r3, #15
 1473 0024 D361     		str	r3, [r2, #28]
 259:Libraries/STM32F1xx_HAL_Driver/Src/stm32f1xx_hal_i2s.c **** 
 1474              		.loc 1 259 0
 1475 0026 2368     		ldr	r3, [r4]
 1476 0028 1D62     		str	r5, [r3, #32]
 262:Libraries/STM32F1xx_HAL_Driver/Src/stm32f1xx_hal_i2s.c **** 
 1477              		.loc 1 262 0
 1478 002a 2268     		ldr	r2, [r4]
 1479 002c D569     		ldr	r5, [r2, #28]
 1480              	.LVL132:
 266:Libraries/STM32F1xx_HAL_Driver/Src/stm32f1xx_hal_i2s.c ****   {
 1481              		.loc 1 266 0
 1482 002e 6369     		ldr	r3, [r4, #20]
 1483 0030 022B     		cmp	r3, #2
 1484 0032 65D0     		beq	.L147
 270:Libraries/STM32F1xx_HAL_Driver/Src/stm32f1xx_hal_i2s.c ****     {
 1485              		.loc 1 270 0
 1486 0034 E368     		ldr	r3, [r4, #12]
 1487 0036 002B     		cmp	r3, #0
 1488 0038 40D0     		beq	.L148
 273:Libraries/STM32F1xx_HAL_Driver/Src/stm32f1xx_hal_i2s.c ****     }
 1489              		.loc 1 273 0
 1490 003a 2026     		movs	r6, #32
 1491              	.L137:
 1492              	.LVL133:
 282:Libraries/STM32F1xx_HAL_Driver/Src/stm32f1xx_hal_i2s.c ****     {
 1493              		.loc 1 282 0
 1494 003c A368     		ldr	r3, [r4, #8]
 1495 003e 202B     		cmp	r3, #32
 1496 0040 00D8     		bhi	.L138
 285:Libraries/STM32F1xx_HAL_Driver/Src/stm32f1xx_hal_i2s.c ****     }
 1497              		.loc 1 285 0
 1498 0042 7600     		lsls	r6, r6, #1
 1499              	.LVL134:
 1500              	.L138:
 288:Libraries/STM32F1xx_HAL_Driver/Src/stm32f1xx_hal_i2s.c ****     {
 1501              		.loc 1 288 0
 1502 0044 364B     		ldr	r3, .L157+4
 1503 0046 9A42     		cmp	r2, r3
 1504 0048 3AD0     		beq	.L153
 293:Libraries/STM32F1xx_HAL_Driver/Src/stm32f1xx_hal_i2s.c ****     {
 1505              		.loc 1 293 0
 1506 004a 364B     		ldr	r3, .L157+8
 1507 004c 9A42     		cmp	r2, r3
 1508 004e 3BD0     		beq	.L154
 301:Libraries/STM32F1xx_HAL_Driver/Src/stm32f1xx_hal_i2s.c ****     }
ARM GAS  /tmp/cc1Hj1lD.s 			page 56


 1509              		.loc 1 301 0
 1510 0050 FFF7FEFF 		bl	HAL_RCC_GetSysClockFreq
 1511              	.LVL135:
 1512              	.L140:
 305:Libraries/STM32F1xx_HAL_Driver/Src/stm32f1xx_hal_i2s.c ****     {
 1513              		.loc 1 305 0
 1514 0054 2369     		ldr	r3, [r4, #16]
 1515 0056 B3F5007F 		cmp	r3, #512
 1516 005a 39D0     		beq	.L155
 320:Libraries/STM32F1xx_HAL_Driver/Src/stm32f1xx_hal_i2s.c ****     }
 1517              		.loc 1 320 0
 1518 005c B0FBF6F0 		udiv	r0, r0, r6
 1519              	.LVL136:
 1520 0060 00EB8000 		add	r0, r0, r0, lsl #2
 1521 0064 4300     		lsls	r3, r0, #1
 1522 0066 6269     		ldr	r2, [r4, #20]
 1523 0068 B3FBF2F3 		udiv	r3, r3, r2
 1524 006c 0533     		adds	r3, r3, #5
 1525              	.LVL137:
 1526              	.L144:
 324:Libraries/STM32F1xx_HAL_Driver/Src/stm32f1xx_hal_i2s.c **** 
 1527              		.loc 1 324 0
 1528 006e 2E4A     		ldr	r2, .L157+12
 1529 0070 A2FB0323 		umull	r2, r3, r2, r3
 1530              	.LVL138:
 1531 0074 DB08     		lsrs	r3, r3, #3
 1532              	.LVL139:
 327:Libraries/STM32F1xx_HAL_Driver/Src/stm32f1xx_hal_i2s.c **** 
 1533              		.loc 1 327 0
 1534 0076 03F00102 		and	r2, r3, #1
 1535              	.LVL140:
 330:Libraries/STM32F1xx_HAL_Driver/Src/stm32f1xx_hal_i2s.c **** 
 1536              		.loc 1 330 0
 1537 007a 9B1A     		subs	r3, r3, r2
 1538              	.LVL141:
 1539 007c C3F34F03 		ubfx	r3, r3, #1, #16
 1540              	.LVL142:
 333:Libraries/STM32F1xx_HAL_Driver/Src/stm32f1xx_hal_i2s.c ****   }
 1541              		.loc 1 333 0
 1542 0080 1202     		lsls	r2, r2, #8
 1543              	.LVL143:
 1544              	.L136:
 337:Libraries/STM32F1xx_HAL_Driver/Src/stm32f1xx_hal_i2s.c ****   {
 1545              		.loc 1 337 0
 1546 0082 991E     		subs	r1, r3, #2
 1547 0084 FD29     		cmp	r1, #253
 1548 0086 3DD8     		bhi	.L156
 350:Libraries/STM32F1xx_HAL_Driver/Src/stm32f1xx_hal_i2s.c **** 
 1549              		.loc 1 350 0
 1550 0088 2168     		ldr	r1, [r4]
 1551 008a 2069     		ldr	r0, [r4, #16]
 1552 008c 0243     		orrs	r2, r2, r0
 1553              	.LVL144:
 1554 008e 1343     		orrs	r3, r3, r2
 1555              	.LVL145:
 1556 0090 0B62     		str	r3, [r1, #32]
 353:Libraries/STM32F1xx_HAL_Driver/Src/stm32f1xx_hal_i2s.c ****                        (uint16_t)(hi2s->Init.Standard | (uint16_t)(hi2s->Init.DataFormat | \
ARM GAS  /tmp/cc1Hj1lD.s 			page 57


 1557              		.loc 1 353 0
 1558 0092 6268     		ldr	r2, [r4, #4]
 354:Libraries/STM32F1xx_HAL_Driver/Src/stm32f1xx_hal_i2s.c ****                        (uint16_t)hi2s->Init.CPOL))));
 1559              		.loc 1 354 0
 1560 0094 A168     		ldr	r1, [r4, #8]
 1561 0096 E068     		ldr	r0, [r4, #12]
 355:Libraries/STM32F1xx_HAL_Driver/Src/stm32f1xx_hal_i2s.c ****   /* Write to SPIx I2SCFGR */
 1562              		.loc 1 355 0
 1563 0098 238B     		ldrh	r3, [r4, #24]
 354:Libraries/STM32F1xx_HAL_Driver/Src/stm32f1xx_hal_i2s.c ****                        (uint16_t)hi2s->Init.CPOL))));
 1564              		.loc 1 354 0
 1565 009a 0343     		orrs	r3, r3, r0
 1566 009c 9BB2     		uxth	r3, r3
 1567 009e 0B43     		orrs	r3, r3, r1
 1568 00a0 9BB2     		uxth	r3, r3
 353:Libraries/STM32F1xx_HAL_Driver/Src/stm32f1xx_hal_i2s.c ****                        (uint16_t)(hi2s->Init.Standard | (uint16_t)(hi2s->Init.DataFormat | \
 1569              		.loc 1 353 0
 1570 00a2 1343     		orrs	r3, r3, r2
 1571 00a4 9BB2     		uxth	r3, r3
 1572 00a6 43F40063 		orr	r3, r3, #2048
 1573 00aa 1D43     		orrs	r5, r5, r3
 1574              	.LVL146:
 357:Libraries/STM32F1xx_HAL_Driver/Src/stm32f1xx_hal_i2s.c ****   hi2s->ErrorCode = HAL_I2S_ERROR_NONE;
 1575              		.loc 1 357 0
 1576 00ac 2368     		ldr	r3, [r4]
 1577 00ae DD61     		str	r5, [r3, #28]
 358:Libraries/STM32F1xx_HAL_Driver/Src/stm32f1xx_hal_i2s.c ****   hi2s->State     = HAL_I2S_STATE_READY;
 1578              		.loc 1 358 0
 1579 00b0 0020     		movs	r0, #0
 1580 00b2 E063     		str	r0, [r4, #60]
 359:Libraries/STM32F1xx_HAL_Driver/Src/stm32f1xx_hal_i2s.c **** 
 1581              		.loc 1 359 0
 1582 00b4 0123     		movs	r3, #1
 1583 00b6 84F83930 		strb	r3, [r4, #57]
 361:Libraries/STM32F1xx_HAL_Driver/Src/stm32f1xx_hal_i2s.c **** }
 1584              		.loc 1 361 0
 1585 00ba 70BD     		pop	{r4, r5, r6, pc}
 1586              	.LVL147:
 1587              	.L148:
 278:Libraries/STM32F1xx_HAL_Driver/Src/stm32f1xx_hal_i2s.c ****     }
 1588              		.loc 1 278 0
 1589 00bc 1026     		movs	r6, #16
 1590 00be BDE7     		b	.L137
 1591              	.LVL148:
 1592              	.L153:
 291:Libraries/STM32F1xx_HAL_Driver/Src/stm32f1xx_hal_i2s.c ****     }
 1593              		.loc 1 291 0
 1594 00c0 0420     		movs	r0, #4
 1595 00c2 FFF7FEFF 		bl	HAL_RCCEx_GetPeriphCLKFreq
 1596              	.LVL149:
 1597 00c6 C5E7     		b	.L140
 1598              	.LVL150:
 1599              	.L154:
 296:Libraries/STM32F1xx_HAL_Driver/Src/stm32f1xx_hal_i2s.c ****     }
 1600              		.loc 1 296 0
 1601 00c8 0820     		movs	r0, #8
 1602 00ca FFF7FEFF 		bl	HAL_RCCEx_GetPeriphCLKFreq
ARM GAS  /tmp/cc1Hj1lD.s 			page 58


 1603              	.LVL151:
 1604 00ce C1E7     		b	.L140
 1605              	.L155:
 308:Libraries/STM32F1xx_HAL_Driver/Src/stm32f1xx_hal_i2s.c ****       {
 1606              		.loc 1 308 0
 1607 00d0 E368     		ldr	r3, [r4, #12]
 1608 00d2 53B1     		cbz	r3, .L143
 310:Libraries/STM32F1xx_HAL_Driver/Src/stm32f1xx_hal_i2s.c ****       }
 1609              		.loc 1 310 0
 1610 00d4 B600     		lsls	r6, r6, #2
 1611              	.LVL152:
 1612 00d6 B0FBF6F0 		udiv	r0, r0, r6
 1613              	.LVL153:
 1614 00da 00EB8000 		add	r0, r0, r0, lsl #2
 1615 00de 4300     		lsls	r3, r0, #1
 1616 00e0 6269     		ldr	r2, [r4, #20]
 1617 00e2 B3FBF2F3 		udiv	r3, r3, r2
 1618 00e6 0533     		adds	r3, r3, #5
 1619              	.LVL154:
 1620 00e8 C1E7     		b	.L144
 1621              	.LVL155:
 1622              	.L143:
 314:Libraries/STM32F1xx_HAL_Driver/Src/stm32f1xx_hal_i2s.c ****       }
 1623              		.loc 1 314 0
 1624 00ea F600     		lsls	r6, r6, #3
 1625              	.LVL156:
 1626 00ec B0FBF6F0 		udiv	r0, r0, r6
 1627              	.LVL157:
 1628 00f0 00EB8000 		add	r0, r0, r0, lsl #2
 1629 00f4 4300     		lsls	r3, r0, #1
 1630 00f6 6269     		ldr	r2, [r4, #20]
 1631 00f8 B3FBF2F3 		udiv	r3, r3, r2
 1632 00fc 0533     		adds	r3, r3, #5
 1633              	.LVL158:
 1634 00fe B6E7     		b	.L144
 1635              	.LVL159:
 1636              	.L147:
 228:Libraries/STM32F1xx_HAL_Driver/Src/stm32f1xx_hal_i2s.c ****   uint32_t tmp = 0U, i2sclk = 0U;
 1637              		.loc 1 228 0
 1638 0100 0022     		movs	r2, #0
 1639 0102 BEE7     		b	.L136
 1640              	.LVL160:
 1641              	.L156:
 344:Libraries/STM32F1xx_HAL_Driver/Src/stm32f1xx_hal_i2s.c ****     HAL_I2S_ErrorCallback(hi2s);
 1642              		.loc 1 344 0
 1643 0104 E36B     		ldr	r3, [r4, #60]
 1644 0106 43F01003 		orr	r3, r3, #16
 1645 010a E363     		str	r3, [r4, #60]
 345:Libraries/STM32F1xx_HAL_Driver/Src/stm32f1xx_hal_i2s.c ****     return  HAL_ERROR;
 1646              		.loc 1 345 0
 1647 010c 2046     		mov	r0, r4
 1648 010e FFF7FEFF 		bl	HAL_I2S_ErrorCallback
 1649              	.LVL161:
 346:Libraries/STM32F1xx_HAL_Driver/Src/stm32f1xx_hal_i2s.c ****   }
 1650              		.loc 1 346 0
 1651 0112 0120     		movs	r0, #1
 1652 0114 70BD     		pop	{r4, r5, r6, pc}
ARM GAS  /tmp/cc1Hj1lD.s 			page 59


 1653              	.LVL162:
 1654              	.L146:
 1655              	.LCFI22:
 1656              		.cfi_def_cfa_offset 0
 1657              		.cfi_restore 4
 1658              		.cfi_restore 5
 1659              		.cfi_restore 6
 1660              		.cfi_restore 14
 234:Libraries/STM32F1xx_HAL_Driver/Src/stm32f1xx_hal_i2s.c ****   }
 1661              		.loc 1 234 0
 1662 0116 0120     		movs	r0, #1
 1663              	.LVL163:
 1664 0118 7047     		bx	lr
 1665              	.L158:
 1666 011a 00BF     		.align	2
 1667              	.L157:
 1668 011c 00000000 		.word	I2S_IRQHandler
 1669 0120 00380040 		.word	1073756160
 1670 0124 003C0040 		.word	1073757184
 1671 0128 CDCCCCCC 		.word	-858993459
 1672              		.cfi_endproc
 1673              	.LFE64:
 1675              		.section	.text.I2S_IRQHandler,"ax",%progbits
 1676              		.align	1
 1677              		.syntax unified
 1678              		.thumb
 1679              		.thumb_func
 1680              		.fpu softvfp
 1682              	I2S_IRQHandler:
 1683              	.LFB92:
1355:Libraries/STM32F1xx_HAL_Driver/Src/stm32f1xx_hal_i2s.c ****   __IO uint32_t i2ssr = hi2s->Instance->SR;
 1684              		.loc 1 1355 0
 1685              		.cfi_startproc
 1686              		@ args = 0, pretend = 0, frame = 16
 1687              		@ frame_needed = 0, uses_anonymous_args = 0
 1688              	.LVL164:
 1689 0000 10B5     		push	{r4, lr}
 1690              	.LCFI23:
 1691              		.cfi_def_cfa_offset 8
 1692              		.cfi_offset 4, -8
 1693              		.cfi_offset 14, -4
 1694 0002 84B0     		sub	sp, sp, #16
 1695              	.LCFI24:
 1696              		.cfi_def_cfa_offset 24
 1697 0004 0446     		mov	r4, r0
1356:Libraries/STM32F1xx_HAL_Driver/Src/stm32f1xx_hal_i2s.c **** 
 1698              		.loc 1 1356 0
 1699 0006 0268     		ldr	r2, [r0]
 1700 0008 9368     		ldr	r3, [r2, #8]
 1701 000a 0393     		str	r3, [sp, #12]
1358:Libraries/STM32F1xx_HAL_Driver/Src/stm32f1xx_hal_i2s.c ****   {
 1702              		.loc 1 1358 0
 1703 000c 90F83930 		ldrb	r3, [r0, #57]	@ zero_extendqisi2
 1704 0010 DBB2     		uxtb	r3, r3
 1705 0012 042B     		cmp	r3, #4
 1706 0014 06D0     		beq	.L165
 1707              	.LVL165:
ARM GAS  /tmp/cc1Hj1lD.s 			page 60


 1708              	.L160:
1385:Libraries/STM32F1xx_HAL_Driver/Src/stm32f1xx_hal_i2s.c ****     {
 1709              		.loc 1 1385 0
 1710 0016 94F83930 		ldrb	r3, [r4, #57]	@ zero_extendqisi2
 1711 001a DBB2     		uxtb	r3, r3
 1712 001c 032B     		cmp	r3, #3
 1713 001e 2CD0     		beq	.L166
 1714              	.L159:
1410:Libraries/STM32F1xx_HAL_Driver/Src/stm32f1xx_hal_i2s.c **** 
 1715              		.loc 1 1410 0
 1716 0020 04B0     		add	sp, sp, #16
 1717              	.LCFI25:
 1718              		.cfi_remember_state
 1719              		.cfi_def_cfa_offset 8
 1720              		@ sp needed
 1721 0022 10BD     		pop	{r4, pc}
 1722              	.LVL166:
 1723              	.L165:
 1724              	.LCFI26:
 1725              		.cfi_restore_state
1361:Libraries/STM32F1xx_HAL_Driver/Src/stm32f1xx_hal_i2s.c ****     {
 1726              		.loc 1 1361 0
 1727 0024 039B     		ldr	r3, [sp, #12]
 1728 0026 13F0010F 		tst	r3, #1
 1729 002a 03D0     		beq	.L161
1361:Libraries/STM32F1xx_HAL_Driver/Src/stm32f1xx_hal_i2s.c ****     {
 1730              		.loc 1 1361 0 is_stmt 0 discriminator 1
 1731 002c 5368     		ldr	r3, [r2, #4]
 1732 002e 13F0400F 		tst	r3, #64
 1733 0032 1FD1     		bne	.L167
 1734              	.LVL167:
 1735              	.L161:
1367:Libraries/STM32F1xx_HAL_Driver/Src/stm32f1xx_hal_i2s.c ****     {
 1736              		.loc 1 1367 0 is_stmt 1
 1737 0034 039B     		ldr	r3, [sp, #12]
 1738 0036 13F0400F 		tst	r3, #64
 1739 003a ECD0     		beq	.L160
1367:Libraries/STM32F1xx_HAL_Driver/Src/stm32f1xx_hal_i2s.c ****     {
 1740              		.loc 1 1367 0 is_stmt 0 discriminator 1
 1741 003c 2368     		ldr	r3, [r4]
 1742 003e 5A68     		ldr	r2, [r3, #4]
 1743 0040 12F0200F 		tst	r2, #32
 1744 0044 E7D0     		beq	.L160
1370:Libraries/STM32F1xx_HAL_Driver/Src/stm32f1xx_hal_i2s.c **** 
 1745              		.loc 1 1370 0 is_stmt 1
 1746 0046 5A68     		ldr	r2, [r3, #4]
 1747 0048 22F06002 		bic	r2, r2, #96
 1748 004c 5A60     		str	r2, [r3, #4]
 1749              	.LBB3:
1373:Libraries/STM32F1xx_HAL_Driver/Src/stm32f1xx_hal_i2s.c **** 
 1750              		.loc 1 1373 0
 1751 004e 0023     		movs	r3, #0
 1752 0050 0193     		str	r3, [sp, #4]
 1753 0052 2368     		ldr	r3, [r4]
 1754 0054 DA68     		ldr	r2, [r3, #12]
 1755 0056 0192     		str	r2, [sp, #4]
 1756 0058 9B68     		ldr	r3, [r3, #8]
ARM GAS  /tmp/cc1Hj1lD.s 			page 61


 1757 005a 0193     		str	r3, [sp, #4]
 1758 005c 019B     		ldr	r3, [sp, #4]
 1759              	.LBE3:
1376:Libraries/STM32F1xx_HAL_Driver/Src/stm32f1xx_hal_i2s.c **** 
 1760              		.loc 1 1376 0
 1761 005e 0123     		movs	r3, #1
 1762 0060 84F83930 		strb	r3, [r4, #57]
1380:Libraries/STM32F1xx_HAL_Driver/Src/stm32f1xx_hal_i2s.c ****       HAL_I2S_ErrorCallback(hi2s);
 1763              		.loc 1 1380 0
 1764 0064 E36B     		ldr	r3, [r4, #60]
 1765 0066 43F00203 		orr	r3, r3, #2
 1766 006a E363     		str	r3, [r4, #60]
1381:Libraries/STM32F1xx_HAL_Driver/Src/stm32f1xx_hal_i2s.c ****       }
 1767              		.loc 1 1381 0
 1768 006c 2046     		mov	r0, r4
 1769 006e FFF7FEFF 		bl	HAL_I2S_ErrorCallback
 1770              	.LVL168:
 1771 0072 D0E7     		b	.L160
 1772              	.LVL169:
 1773              	.L167:
1363:Libraries/STM32F1xx_HAL_Driver/Src/stm32f1xx_hal_i2s.c ****     }
 1774              		.loc 1 1363 0
 1775 0074 FFF7FEFF 		bl	I2S_Receive_IT
 1776              	.LVL170:
 1777 0078 DCE7     		b	.L161
 1778              	.L166:
1388:Libraries/STM32F1xx_HAL_Driver/Src/stm32f1xx_hal_i2s.c ****       {
 1779              		.loc 1 1388 0
 1780 007a 039B     		ldr	r3, [sp, #12]
 1781 007c 13F0020F 		tst	r3, #2
 1782 0080 04D0     		beq	.L163
1388:Libraries/STM32F1xx_HAL_Driver/Src/stm32f1xx_hal_i2s.c ****       {
 1783              		.loc 1 1388 0 is_stmt 0 discriminator 1
 1784 0082 2368     		ldr	r3, [r4]
 1785 0084 5B68     		ldr	r3, [r3, #4]
 1786 0086 13F0800F 		tst	r3, #128
 1787 008a 1DD1     		bne	.L168
 1788              	.L163:
1394:Libraries/STM32F1xx_HAL_Driver/Src/stm32f1xx_hal_i2s.c ****       {
 1789              		.loc 1 1394 0 is_stmt 1
 1790 008c 039B     		ldr	r3, [sp, #12]
 1791 008e 13F0080F 		tst	r3, #8
 1792 0092 C5D0     		beq	.L159
1394:Libraries/STM32F1xx_HAL_Driver/Src/stm32f1xx_hal_i2s.c ****       {
 1793              		.loc 1 1394 0 is_stmt 0 discriminator 1
 1794 0094 2368     		ldr	r3, [r4]
 1795 0096 5A68     		ldr	r2, [r3, #4]
 1796 0098 12F0200F 		tst	r2, #32
 1797 009c C0D0     		beq	.L159
1397:Libraries/STM32F1xx_HAL_Driver/Src/stm32f1xx_hal_i2s.c **** 
 1798              		.loc 1 1397 0 is_stmt 1
 1799 009e 5A68     		ldr	r2, [r3, #4]
 1800 00a0 22F0A002 		bic	r2, r2, #160
 1801 00a4 5A60     		str	r2, [r3, #4]
 1802              	.LBB4:
1400:Libraries/STM32F1xx_HAL_Driver/Src/stm32f1xx_hal_i2s.c **** 
 1803              		.loc 1 1400 0
ARM GAS  /tmp/cc1Hj1lD.s 			page 62


 1804 00a6 0023     		movs	r3, #0
 1805 00a8 0293     		str	r3, [sp, #8]
 1806 00aa 2368     		ldr	r3, [r4]
 1807 00ac 9B68     		ldr	r3, [r3, #8]
 1808 00ae 0293     		str	r3, [sp, #8]
 1809 00b0 029B     		ldr	r3, [sp, #8]
 1810              	.LBE4:
1403:Libraries/STM32F1xx_HAL_Driver/Src/stm32f1xx_hal_i2s.c **** 
 1811              		.loc 1 1403 0
 1812 00b2 0123     		movs	r3, #1
 1813 00b4 84F83930 		strb	r3, [r4, #57]
1406:Libraries/STM32F1xx_HAL_Driver/Src/stm32f1xx_hal_i2s.c ****       HAL_I2S_ErrorCallback(hi2s);
 1814              		.loc 1 1406 0
 1815 00b8 E36B     		ldr	r3, [r4, #60]
 1816 00ba 43F00403 		orr	r3, r3, #4
 1817 00be E363     		str	r3, [r4, #60]
1407:Libraries/STM32F1xx_HAL_Driver/Src/stm32f1xx_hal_i2s.c ****     }
 1818              		.loc 1 1407 0
 1819 00c0 2046     		mov	r0, r4
 1820 00c2 FFF7FEFF 		bl	HAL_I2S_ErrorCallback
 1821              	.LVL171:
1410:Libraries/STM32F1xx_HAL_Driver/Src/stm32f1xx_hal_i2s.c **** 
 1822              		.loc 1 1410 0
 1823 00c6 ABE7     		b	.L159
 1824              	.L168:
1390:Libraries/STM32F1xx_HAL_Driver/Src/stm32f1xx_hal_i2s.c ****       }
 1825              		.loc 1 1390 0
 1826 00c8 2046     		mov	r0, r4
 1827 00ca FFF7FEFF 		bl	I2S_Transmit_IT
 1828              	.LVL172:
 1829 00ce DDE7     		b	.L163
 1830              		.cfi_endproc
 1831              	.LFE92:
 1833              		.section	.text.HAL_I2S_Transmit,"ax",%progbits
 1834              		.align	1
 1835              		.global	HAL_I2S_Transmit
 1836              		.syntax unified
 1837              		.thumb
 1838              		.thumb_func
 1839              		.fpu softvfp
 1841              	HAL_I2S_Transmit:
 1842              	.LFB68:
 483:Libraries/STM32F1xx_HAL_Driver/Src/stm32f1xx_hal_i2s.c ****   uint32_t tmp1 = 0U;
 1843              		.loc 1 483 0
 1844              		.cfi_startproc
 1845              		@ args = 0, pretend = 0, frame = 8
 1846              		@ frame_needed = 0, uses_anonymous_args = 0
 1847              	.LVL173:
 486:Libraries/STM32F1xx_HAL_Driver/Src/stm32f1xx_hal_i2s.c ****   {
 1848              		.loc 1 486 0
 1849 0000 0029     		cmp	r1, #0
 1850 0002 71D0     		beq	.L178
 483:Libraries/STM32F1xx_HAL_Driver/Src/stm32f1xx_hal_i2s.c ****   uint32_t tmp1 = 0U;
 1851              		.loc 1 483 0 discriminator 1
 1852 0004 70B5     		push	{r4, r5, r6, lr}
 1853              	.LCFI27:
 1854              		.cfi_def_cfa_offset 16
ARM GAS  /tmp/cc1Hj1lD.s 			page 63


 1855              		.cfi_offset 4, -16
 1856              		.cfi_offset 5, -12
 1857              		.cfi_offset 6, -8
 1858              		.cfi_offset 14, -4
 1859 0006 82B0     		sub	sp, sp, #8
 1860              	.LCFI28:
 1861              		.cfi_def_cfa_offset 24
 1862 0008 0446     		mov	r4, r0
 1863 000a 1D46     		mov	r5, r3
 1864 000c 0B46     		mov	r3, r1
 1865              	.LVL174:
 486:Libraries/STM32F1xx_HAL_Driver/Src/stm32f1xx_hal_i2s.c ****   {
 1866              		.loc 1 486 0 discriminator 1
 1867 000e 002A     		cmp	r2, #0
 1868 0010 6CD0     		beq	.L179
 491:Libraries/STM32F1xx_HAL_Driver/Src/stm32f1xx_hal_i2s.c ****   {
 1869              		.loc 1 491 0
 1870 0012 90F83910 		ldrb	r1, [r0, #57]	@ zero_extendqisi2
 1871              	.LVL175:
 1872 0016 C9B2     		uxtb	r1, r1
 1873 0018 0129     		cmp	r1, #1
 1874 001a 02D0     		beq	.L187
 560:Libraries/STM32F1xx_HAL_Driver/Src/stm32f1xx_hal_i2s.c ****   }
 1875              		.loc 1 560 0
 1876 001c 0220     		movs	r0, #2
 1877              	.LVL176:
 1878              	.L170:
 562:Libraries/STM32F1xx_HAL_Driver/Src/stm32f1xx_hal_i2s.c **** 
 1879              		.loc 1 562 0
 1880 001e 02B0     		add	sp, sp, #8
 1881              	.LCFI29:
 1882              		.cfi_remember_state
 1883              		.cfi_def_cfa_offset 16
 1884              		@ sp needed
 1885 0020 70BD     		pop	{r4, r5, r6, pc}
 1886              	.LVL177:
 1887              	.L187:
 1888              	.LCFI30:
 1889              		.cfi_restore_state
 493:Libraries/STM32F1xx_HAL_Driver/Src/stm32f1xx_hal_i2s.c **** 
 1890              		.loc 1 493 0
 1891 0022 0168     		ldr	r1, [r0]
 1892 0024 C969     		ldr	r1, [r1, #28]
 1893 0026 01F00701 		and	r1, r1, #7
 1894              	.LVL178:
 495:Libraries/STM32F1xx_HAL_Driver/Src/stm32f1xx_hal_i2s.c ****     {
 1895              		.loc 1 495 0
 1896 002a 0329     		cmp	r1, #3
 1897 002c 34D0     		beq	.L171
 495:Libraries/STM32F1xx_HAL_Driver/Src/stm32f1xx_hal_i2s.c ****     {
 1898              		.loc 1 495 0 is_stmt 0 discriminator 1
 1899 002e 0529     		cmp	r1, #5
 1900 0030 32D0     		beq	.L171
 502:Libraries/STM32F1xx_HAL_Driver/Src/stm32f1xx_hal_i2s.c ****       hi2s->TxXferCount = Size;
 1901              		.loc 1 502 0 is_stmt 1
 1902 0032 0284     		strh	r2, [r0, #32]	@ movhi
 503:Libraries/STM32F1xx_HAL_Driver/Src/stm32f1xx_hal_i2s.c ****     }
ARM GAS  /tmp/cc1Hj1lD.s 			page 64


 1903              		.loc 1 503 0
 1904 0034 4284     		strh	r2, [r0, #34]	@ movhi
 1905              	.LVL179:
 1906              	.L173:
 507:Libraries/STM32F1xx_HAL_Driver/Src/stm32f1xx_hal_i2s.c **** 
 1907              		.loc 1 507 0
 1908 0036 94F83820 		ldrb	r2, [r4, #56]	@ zero_extendqisi2
 1909 003a D2B2     		uxtb	r2, r2
 1910 003c 012A     		cmp	r2, #1
 1911 003e 57D0     		beq	.L181
 507:Libraries/STM32F1xx_HAL_Driver/Src/stm32f1xx_hal_i2s.c **** 
 1912              		.loc 1 507 0 is_stmt 0 discriminator 2
 1913 0040 0122     		movs	r2, #1
 1914 0042 84F83820 		strb	r2, [r4, #56]
 509:Libraries/STM32F1xx_HAL_Driver/Src/stm32f1xx_hal_i2s.c ****     hi2s->State     = HAL_I2S_STATE_BUSY_TX;
 1915              		.loc 1 509 0 is_stmt 1 discriminator 2
 1916 0046 0022     		movs	r2, #0
 1917 0048 E263     		str	r2, [r4, #60]
 510:Libraries/STM32F1xx_HAL_Driver/Src/stm32f1xx_hal_i2s.c **** 
 1918              		.loc 1 510 0 discriminator 2
 1919 004a 0322     		movs	r2, #3
 1920 004c 84F83920 		strb	r2, [r4, #57]
 513:Libraries/STM32F1xx_HAL_Driver/Src/stm32f1xx_hal_i2s.c ****     {
 1921              		.loc 1 513 0 discriminator 2
 1922 0050 2268     		ldr	r2, [r4]
 1923 0052 D169     		ldr	r1, [r2, #28]
 1924              	.LVL180:
 1925 0054 11F4806F 		tst	r1, #1024
 1926 0058 03D1     		bne	.L176
 516:Libraries/STM32F1xx_HAL_Driver/Src/stm32f1xx_hal_i2s.c ****     }
 1927              		.loc 1 516 0
 1928 005a D169     		ldr	r1, [r2, #28]
 1929 005c 41F48061 		orr	r1, r1, #1024
 1930 0060 D161     		str	r1, [r2, #28]
 1931              	.LVL181:
 1932              	.L176:
 519:Libraries/STM32F1xx_HAL_Driver/Src/stm32f1xx_hal_i2s.c ****     {
 1933              		.loc 1 519 0
 1934 0062 628C     		ldrh	r2, [r4, #34]
 1935 0064 92B2     		uxth	r2, r2
 1936 0066 002A     		cmp	r2, #0
 1937 0068 37D0     		beq	.L188
 521:Libraries/STM32F1xx_HAL_Driver/Src/stm32f1xx_hal_i2s.c ****       hi2s->TxXferCount--;
 1938              		.loc 1 521 0
 1939 006a 2268     		ldr	r2, [r4]
 1940 006c 9E1C     		adds	r6, r3, #2
 1941              	.LVL182:
 1942 006e 1B88     		ldrh	r3, [r3]
 1943 0070 D360     		str	r3, [r2, #12]
 522:Libraries/STM32F1xx_HAL_Driver/Src/stm32f1xx_hal_i2s.c **** 
 1944              		.loc 1 522 0
 1945 0072 638C     		ldrh	r3, [r4, #34]
 1946 0074 9BB2     		uxth	r3, r3
 1947 0076 013B     		subs	r3, r3, #1
 1948 0078 9BB2     		uxth	r3, r3
 1949 007a 6384     		strh	r3, [r4, #34]	@ movhi
 525:Libraries/STM32F1xx_HAL_Driver/Src/stm32f1xx_hal_i2s.c ****       {
ARM GAS  /tmp/cc1Hj1lD.s 			page 65


 1950              		.loc 1 525 0
 1951 007c 2B46     		mov	r3, r5
 1952 007e 0122     		movs	r2, #1
 1953 0080 0221     		movs	r1, #2
 1954 0082 2046     		mov	r0, r4
 1955 0084 FFF7FEFF 		bl	I2S_WaitFlagStateUntilTimeout
 1956              	.LVL183:
 1957 0088 58B9     		cbnz	r0, .L189
 534:Libraries/STM32F1xx_HAL_Driver/Src/stm32f1xx_hal_i2s.c ****       {
 1958              		.loc 1 534 0
 1959 008a 2368     		ldr	r3, [r4]
 1960 008c 9A68     		ldr	r2, [r3, #8]
 1961 008e 12F0080F 		tst	r2, #8
 1962 0092 0FD1     		bne	.L190
 521:Libraries/STM32F1xx_HAL_Driver/Src/stm32f1xx_hal_i2s.c ****       hi2s->TxXferCount--;
 1963              		.loc 1 521 0
 1964 0094 3346     		mov	r3, r6
 1965 0096 E4E7     		b	.L176
 1966              	.LVL184:
 1967              	.L171:
 497:Libraries/STM32F1xx_HAL_Driver/Src/stm32f1xx_hal_i2s.c ****       hi2s->TxXferCount = (Size << 1U);
 1968              		.loc 1 497 0
 1969 0098 5200     		lsls	r2, r2, #1
 1970              	.LVL185:
 1971 009a 92B2     		uxth	r2, r2
 1972 009c 2284     		strh	r2, [r4, #32]	@ movhi
 498:Libraries/STM32F1xx_HAL_Driver/Src/stm32f1xx_hal_i2s.c ****     }
 1973              		.loc 1 498 0
 1974 009e 6284     		strh	r2, [r4, #34]	@ movhi
 1975 00a0 C9E7     		b	.L173
 1976              	.LVL186:
 1977              	.L189:
 528:Libraries/STM32F1xx_HAL_Driver/Src/stm32f1xx_hal_i2s.c ****         HAL_I2S_ErrorCallback(hi2s);
 1978              		.loc 1 528 0
 1979 00a2 E36B     		ldr	r3, [r4, #60]
 1980 00a4 43F00103 		orr	r3, r3, #1
 1981 00a8 E363     		str	r3, [r4, #60]
 529:Libraries/STM32F1xx_HAL_Driver/Src/stm32f1xx_hal_i2s.c ****         return HAL_TIMEOUT;
 1982              		.loc 1 529 0
 1983 00aa 2046     		mov	r0, r4
 1984 00ac FFF7FEFF 		bl	HAL_I2S_ErrorCallback
 1985              	.LVL187:
 530:Libraries/STM32F1xx_HAL_Driver/Src/stm32f1xx_hal_i2s.c ****       }
 1986              		.loc 1 530 0
 1987 00b0 0320     		movs	r0, #3
 1988 00b2 B4E7     		b	.L170
 1989              	.L190:
 1990              	.LBB5:
 537:Libraries/STM32F1xx_HAL_Driver/Src/stm32f1xx_hal_i2s.c ****         /* Set the I2S State ready */
 1991              		.loc 1 537 0
 1992 00b4 0022     		movs	r2, #0
 1993 00b6 0192     		str	r2, [sp, #4]
 1994 00b8 9B68     		ldr	r3, [r3, #8]
 1995 00ba 0193     		str	r3, [sp, #4]
 1996 00bc 019B     		ldr	r3, [sp, #4]
 1997              	.LBE5:
 539:Libraries/STM32F1xx_HAL_Driver/Src/stm32f1xx_hal_i2s.c **** 
ARM GAS  /tmp/cc1Hj1lD.s 			page 66


 1998              		.loc 1 539 0
 1999 00be 0125     		movs	r5, #1
 2000              	.LVL188:
 2001 00c0 84F83950 		strb	r5, [r4, #57]
 542:Libraries/STM32F1xx_HAL_Driver/Src/stm32f1xx_hal_i2s.c **** 
 2002              		.loc 1 542 0
 2003 00c4 84F83820 		strb	r2, [r4, #56]
 545:Libraries/STM32F1xx_HAL_Driver/Src/stm32f1xx_hal_i2s.c ****         HAL_I2S_ErrorCallback(hi2s);
 2004              		.loc 1 545 0
 2005 00c8 E36B     		ldr	r3, [r4, #60]
 2006 00ca 43F00403 		orr	r3, r3, #4
 2007 00ce E363     		str	r3, [r4, #60]
 546:Libraries/STM32F1xx_HAL_Driver/Src/stm32f1xx_hal_i2s.c **** 
 2008              		.loc 1 546 0
 2009 00d0 2046     		mov	r0, r4
 2010 00d2 FFF7FEFF 		bl	HAL_I2S_ErrorCallback
 2011              	.LVL189:
 548:Libraries/STM32F1xx_HAL_Driver/Src/stm32f1xx_hal_i2s.c ****       }
 2012              		.loc 1 548 0
 2013 00d6 2846     		mov	r0, r5
 2014 00d8 A1E7     		b	.L170
 2015              	.LVL190:
 2016              	.L188:
 551:Libraries/STM32F1xx_HAL_Driver/Src/stm32f1xx_hal_i2s.c **** 
 2017              		.loc 1 551 0
 2018 00da 0123     		movs	r3, #1
 2019              	.LVL191:
 2020 00dc 84F83930 		strb	r3, [r4, #57]
 554:Libraries/STM32F1xx_HAL_Driver/Src/stm32f1xx_hal_i2s.c **** 
 2021              		.loc 1 554 0
 2022 00e0 0020     		movs	r0, #0
 2023 00e2 84F83800 		strb	r0, [r4, #56]
 556:Libraries/STM32F1xx_HAL_Driver/Src/stm32f1xx_hal_i2s.c ****   }
 2024              		.loc 1 556 0
 2025 00e6 9AE7     		b	.L170
 2026              	.LVL192:
 2027              	.L178:
 2028              	.LCFI31:
 2029              		.cfi_def_cfa_offset 0
 2030              		.cfi_restore 4
 2031              		.cfi_restore 5
 2032              		.cfi_restore 6
 2033              		.cfi_restore 14
 488:Libraries/STM32F1xx_HAL_Driver/Src/stm32f1xx_hal_i2s.c ****   }
 2034              		.loc 1 488 0
 2035 00e8 0120     		movs	r0, #1
 2036              	.LVL193:
 2037 00ea 7047     		bx	lr
 2038              	.LVL194:
 2039              	.L179:
 2040              	.LCFI32:
 2041              		.cfi_def_cfa_offset 24
 2042              		.cfi_offset 4, -16
 2043              		.cfi_offset 5, -12
 2044              		.cfi_offset 6, -8
 2045              		.cfi_offset 14, -4
 2046 00ec 0120     		movs	r0, #1
ARM GAS  /tmp/cc1Hj1lD.s 			page 67


 2047              	.LVL195:
 2048 00ee 96E7     		b	.L170
 2049              	.LVL196:
 2050              	.L181:
 507:Libraries/STM32F1xx_HAL_Driver/Src/stm32f1xx_hal_i2s.c **** 
 2051              		.loc 1 507 0
 2052 00f0 0220     		movs	r0, #2
 2053              	.LVL197:
 2054 00f2 94E7     		b	.L170
 2055              		.cfi_endproc
 2056              	.LFE68:
 2058              		.section	.text.HAL_I2S_Receive,"ax",%progbits
 2059              		.align	1
 2060              		.global	HAL_I2S_Receive
 2061              		.syntax unified
 2062              		.thumb
 2063              		.thumb_func
 2064              		.fpu softvfp
 2066              	HAL_I2S_Receive:
 2067              	.LFB69:
 582:Libraries/STM32F1xx_HAL_Driver/Src/stm32f1xx_hal_i2s.c ****   uint32_t tmp1 = 0U;
 2068              		.loc 1 582 0
 2069              		.cfi_startproc
 2070              		@ args = 0, pretend = 0, frame = 8
 2071              		@ frame_needed = 0, uses_anonymous_args = 0
 2072              	.LVL198:
 585:Libraries/STM32F1xx_HAL_Driver/Src/stm32f1xx_hal_i2s.c ****   {
 2073              		.loc 1 585 0
 2074 0000 0029     		cmp	r1, #0
 2075 0002 00F08180 		beq	.L202
 582:Libraries/STM32F1xx_HAL_Driver/Src/stm32f1xx_hal_i2s.c ****   uint32_t tmp1 = 0U;
 2076              		.loc 1 582 0 discriminator 1
 2077 0006 70B5     		push	{r4, r5, r6, lr}
 2078              	.LCFI33:
 2079              		.cfi_def_cfa_offset 16
 2080              		.cfi_offset 4, -16
 2081              		.cfi_offset 5, -12
 2082              		.cfi_offset 6, -8
 2083              		.cfi_offset 14, -4
 2084 0008 82B0     		sub	sp, sp, #8
 2085              	.LCFI34:
 2086              		.cfi_def_cfa_offset 24
 2087 000a 0446     		mov	r4, r0
 2088 000c 1E46     		mov	r6, r3
 2089 000e 0D46     		mov	r5, r1
 585:Libraries/STM32F1xx_HAL_Driver/Src/stm32f1xx_hal_i2s.c ****   {
 2090              		.loc 1 585 0 discriminator 1
 2091 0010 002A     		cmp	r2, #0
 2092 0012 7BD0     		beq	.L203
 590:Libraries/STM32F1xx_HAL_Driver/Src/stm32f1xx_hal_i2s.c ****   {
 2093              		.loc 1 590 0
 2094 0014 90F83930 		ldrb	r3, [r0, #57]	@ zero_extendqisi2
 2095              	.LVL199:
 2096 0018 DBB2     		uxtb	r3, r3
 2097 001a 012B     		cmp	r3, #1
 2098 001c 02D0     		beq	.L210
 668:Libraries/STM32F1xx_HAL_Driver/Src/stm32f1xx_hal_i2s.c ****   }
ARM GAS  /tmp/cc1Hj1lD.s 			page 68


 2099              		.loc 1 668 0
 2100 001e 0220     		movs	r0, #2
 2101              	.LVL200:
 2102              	.L192:
 670:Libraries/STM32F1xx_HAL_Driver/Src/stm32f1xx_hal_i2s.c **** 
 2103              		.loc 1 670 0
 2104 0020 02B0     		add	sp, sp, #8
 2105              	.LCFI35:
 2106              		.cfi_remember_state
 2107              		.cfi_def_cfa_offset 16
 2108              		@ sp needed
 2109 0022 70BD     		pop	{r4, r5, r6, pc}
 2110              	.LVL201:
 2111              	.L210:
 2112              	.LCFI36:
 2113              		.cfi_restore_state
 592:Libraries/STM32F1xx_HAL_Driver/Src/stm32f1xx_hal_i2s.c ****     if((tmp1 == I2S_DATAFORMAT_24B) || (tmp1 == I2S_DATAFORMAT_32B))
 2114              		.loc 1 592 0
 2115 0024 0368     		ldr	r3, [r0]
 2116 0026 DB69     		ldr	r3, [r3, #28]
 2117 0028 03F00703 		and	r3, r3, #7
 2118              	.LVL202:
 593:Libraries/STM32F1xx_HAL_Driver/Src/stm32f1xx_hal_i2s.c ****     {
 2119              		.loc 1 593 0
 2120 002c 032B     		cmp	r3, #3
 2121 002e 39D0     		beq	.L193
 593:Libraries/STM32F1xx_HAL_Driver/Src/stm32f1xx_hal_i2s.c ****     {
 2122              		.loc 1 593 0 is_stmt 0 discriminator 1
 2123 0030 052B     		cmp	r3, #5
 2124 0032 37D0     		beq	.L193
 600:Libraries/STM32F1xx_HAL_Driver/Src/stm32f1xx_hal_i2s.c ****       hi2s->RxXferCount = Size;
 2125              		.loc 1 600 0 is_stmt 1
 2126 0034 0285     		strh	r2, [r0, #40]	@ movhi
 601:Libraries/STM32F1xx_HAL_Driver/Src/stm32f1xx_hal_i2s.c ****     }
 2127              		.loc 1 601 0
 2128 0036 4285     		strh	r2, [r0, #42]	@ movhi
 2129              	.LVL203:
 2130              	.L195:
 604:Libraries/STM32F1xx_HAL_Driver/Src/stm32f1xx_hal_i2s.c **** 
 2131              		.loc 1 604 0
 2132 0038 94F83830 		ldrb	r3, [r4, #56]	@ zero_extendqisi2
 2133              	.LVL204:
 2134 003c DBB2     		uxtb	r3, r3
 2135 003e 012B     		cmp	r3, #1
 2136 0040 66D0     		beq	.L205
 604:Libraries/STM32F1xx_HAL_Driver/Src/stm32f1xx_hal_i2s.c **** 
 2137              		.loc 1 604 0 is_stmt 0 discriminator 2
 2138 0042 0123     		movs	r3, #1
 2139 0044 84F83830 		strb	r3, [r4, #56]
 606:Libraries/STM32F1xx_HAL_Driver/Src/stm32f1xx_hal_i2s.c ****     hi2s->State     = HAL_I2S_STATE_BUSY_RX;
 2140              		.loc 1 606 0 is_stmt 1 discriminator 2
 2141 0048 0023     		movs	r3, #0
 2142 004a E363     		str	r3, [r4, #60]
 607:Libraries/STM32F1xx_HAL_Driver/Src/stm32f1xx_hal_i2s.c **** 
 2143              		.loc 1 607 0 discriminator 2
 2144 004c 0423     		movs	r3, #4
 2145 004e 84F83930 		strb	r3, [r4, #57]
ARM GAS  /tmp/cc1Hj1lD.s 			page 69


 610:Libraries/STM32F1xx_HAL_Driver/Src/stm32f1xx_hal_i2s.c ****     {
 2146              		.loc 1 610 0 discriminator 2
 2147 0052 2368     		ldr	r3, [r4]
 2148 0054 DA69     		ldr	r2, [r3, #28]
 2149 0056 12F4806F 		tst	r2, #1024
 2150 005a 03D1     		bne	.L196
 613:Libraries/STM32F1xx_HAL_Driver/Src/stm32f1xx_hal_i2s.c ****     }
 2151              		.loc 1 613 0
 2152 005c DA69     		ldr	r2, [r3, #28]
 2153 005e 42F48062 		orr	r2, r2, #1024
 2154 0062 DA61     		str	r2, [r3, #28]
 2155              	.L196:
 617:Libraries/STM32F1xx_HAL_Driver/Src/stm32f1xx_hal_i2s.c ****     {
 2156              		.loc 1 617 0
 2157 0064 2268     		ldr	r2, [r4]
 2158 0066 D369     		ldr	r3, [r2, #28]
 2159 0068 03F44073 		and	r3, r3, #768
 2160 006c B3F5407F 		cmp	r3, #768
 2161 0070 1DD0     		beq	.L211
 2162              	.LVL205:
 2163              	.L198:
 625:Libraries/STM32F1xx_HAL_Driver/Src/stm32f1xx_hal_i2s.c ****     {
 2164              		.loc 1 625 0
 2165 0072 638D     		ldrh	r3, [r4, #42]
 2166 0074 9BB2     		uxth	r3, r3
 2167 0076 002B     		cmp	r3, #0
 2168 0078 3FD0     		beq	.L212
 628:Libraries/STM32F1xx_HAL_Driver/Src/stm32f1xx_hal_i2s.c ****       {
 2169              		.loc 1 628 0
 2170 007a 3346     		mov	r3, r6
 2171 007c 0122     		movs	r2, #1
 2172 007e 1146     		mov	r1, r2
 2173 0080 2046     		mov	r0, r4
 2174 0082 FFF7FEFF 		bl	I2S_WaitFlagStateUntilTimeout
 2175              	.LVL206:
 2176 0086 D0B9     		cbnz	r0, .L213
 637:Libraries/STM32F1xx_HAL_Driver/Src/stm32f1xx_hal_i2s.c ****       {
 2177              		.loc 1 637 0
 2178 0088 2368     		ldr	r3, [r4]
 2179 008a 9A68     		ldr	r2, [r3, #8]
 2180 008c 12F0400F 		tst	r2, #64
 2181 0090 1ED1     		bne	.L214
 2182              	.LVL207:
 655:Libraries/STM32F1xx_HAL_Driver/Src/stm32f1xx_hal_i2s.c ****       hi2s->RxXferCount--;
 2183              		.loc 1 655 0
 2184 0092 DB68     		ldr	r3, [r3, #12]
 2185 0094 2B80     		strh	r3, [r5]	@ movhi
 656:Libraries/STM32F1xx_HAL_Driver/Src/stm32f1xx_hal_i2s.c ****     }
 2186              		.loc 1 656 0
 2187 0096 638D     		ldrh	r3, [r4, #42]
 2188 0098 9BB2     		uxth	r3, r3
 2189 009a 013B     		subs	r3, r3, #1
 2190 009c 9BB2     		uxth	r3, r3
 2191 009e 6385     		strh	r3, [r4, #42]	@ movhi
 655:Libraries/STM32F1xx_HAL_Driver/Src/stm32f1xx_hal_i2s.c ****       hi2s->RxXferCount--;
 2192              		.loc 1 655 0
 2193 00a0 0235     		adds	r5, r5, #2
ARM GAS  /tmp/cc1Hj1lD.s 			page 70


 2194              	.LVL208:
 2195 00a2 E6E7     		b	.L198
 2196              	.LVL209:
 2197              	.L193:
 595:Libraries/STM32F1xx_HAL_Driver/Src/stm32f1xx_hal_i2s.c ****       hi2s->RxXferCount = (Size << 1U);
 2198              		.loc 1 595 0
 2199 00a4 5200     		lsls	r2, r2, #1
 2200              	.LVL210:
 2201 00a6 92B2     		uxth	r2, r2
 2202 00a8 2285     		strh	r2, [r4, #40]	@ movhi
 596:Libraries/STM32F1xx_HAL_Driver/Src/stm32f1xx_hal_i2s.c ****     }
 2203              		.loc 1 596 0
 2204 00aa 6285     		strh	r2, [r4, #42]	@ movhi
 2205 00ac C4E7     		b	.L195
 2206              	.LVL211:
 2207              	.L211:
 2208              	.LBB6:
 621:Libraries/STM32F1xx_HAL_Driver/Src/stm32f1xx_hal_i2s.c ****     }
 2209              		.loc 1 621 0
 2210 00ae 0023     		movs	r3, #0
 2211 00b0 0093     		str	r3, [sp]
 2212 00b2 D368     		ldr	r3, [r2, #12]
 2213 00b4 0093     		str	r3, [sp]
 2214 00b6 9368     		ldr	r3, [r2, #8]
 2215 00b8 0093     		str	r3, [sp]
 2216 00ba 009B     		ldr	r3, [sp]
 2217 00bc D9E7     		b	.L198
 2218              	.LVL212:
 2219              	.L213:
 2220              	.LBE6:
 631:Libraries/STM32F1xx_HAL_Driver/Src/stm32f1xx_hal_i2s.c ****         HAL_I2S_ErrorCallback(hi2s);
 2221              		.loc 1 631 0
 2222 00be E36B     		ldr	r3, [r4, #60]
 2223 00c0 43F00103 		orr	r3, r3, #1
 2224 00c4 E363     		str	r3, [r4, #60]
 632:Libraries/STM32F1xx_HAL_Driver/Src/stm32f1xx_hal_i2s.c ****         return HAL_TIMEOUT;
 2225              		.loc 1 632 0
 2226 00c6 2046     		mov	r0, r4
 2227 00c8 FFF7FEFF 		bl	HAL_I2S_ErrorCallback
 2228              	.LVL213:
 633:Libraries/STM32F1xx_HAL_Driver/Src/stm32f1xx_hal_i2s.c ****       }
 2229              		.loc 1 633 0
 2230 00cc 0320     		movs	r0, #3
 2231 00ce A7E7     		b	.L192
 2232              	.L214:
 2233              	.LBB7:
 640:Libraries/STM32F1xx_HAL_Driver/Src/stm32f1xx_hal_i2s.c **** 
 2234              		.loc 1 640 0
 2235 00d0 0022     		movs	r2, #0
 2236 00d2 0192     		str	r2, [sp, #4]
 2237 00d4 D968     		ldr	r1, [r3, #12]
 2238 00d6 0191     		str	r1, [sp, #4]
 2239 00d8 9B68     		ldr	r3, [r3, #8]
 2240 00da 0193     		str	r3, [sp, #4]
 2241 00dc 019B     		ldr	r3, [sp, #4]
 2242              	.LBE7:
 643:Libraries/STM32F1xx_HAL_Driver/Src/stm32f1xx_hal_i2s.c **** 
ARM GAS  /tmp/cc1Hj1lD.s 			page 71


 2243              		.loc 1 643 0
 2244 00de 0125     		movs	r5, #1
 2245              	.LVL214:
 2246 00e0 84F83950 		strb	r5, [r4, #57]
 646:Libraries/STM32F1xx_HAL_Driver/Src/stm32f1xx_hal_i2s.c **** 
 2247              		.loc 1 646 0
 2248 00e4 84F83820 		strb	r2, [r4, #56]
 649:Libraries/STM32F1xx_HAL_Driver/Src/stm32f1xx_hal_i2s.c ****         HAL_I2S_ErrorCallback(hi2s);
 2249              		.loc 1 649 0
 2250 00e8 E36B     		ldr	r3, [r4, #60]
 2251 00ea 43F00203 		orr	r3, r3, #2
 2252 00ee E363     		str	r3, [r4, #60]
 650:Libraries/STM32F1xx_HAL_Driver/Src/stm32f1xx_hal_i2s.c **** 
 2253              		.loc 1 650 0
 2254 00f0 2046     		mov	r0, r4
 2255 00f2 FFF7FEFF 		bl	HAL_I2S_ErrorCallback
 2256              	.LVL215:
 652:Libraries/STM32F1xx_HAL_Driver/Src/stm32f1xx_hal_i2s.c ****       }
 2257              		.loc 1 652 0
 2258 00f6 2846     		mov	r0, r5
 2259 00f8 92E7     		b	.L192
 2260              	.LVL216:
 2261              	.L212:
 659:Libraries/STM32F1xx_HAL_Driver/Src/stm32f1xx_hal_i2s.c **** 
 2262              		.loc 1 659 0
 2263 00fa 0123     		movs	r3, #1
 2264 00fc 84F83930 		strb	r3, [r4, #57]
 662:Libraries/STM32F1xx_HAL_Driver/Src/stm32f1xx_hal_i2s.c **** 
 2265              		.loc 1 662 0
 2266 0100 0020     		movs	r0, #0
 2267 0102 84F83800 		strb	r0, [r4, #56]
 664:Libraries/STM32F1xx_HAL_Driver/Src/stm32f1xx_hal_i2s.c ****   }
 2268              		.loc 1 664 0
 2269 0106 8BE7     		b	.L192
 2270              	.LVL217:
 2271              	.L202:
 2272              	.LCFI37:
 2273              		.cfi_def_cfa_offset 0
 2274              		.cfi_restore 4
 2275              		.cfi_restore 5
 2276              		.cfi_restore 6
 2277              		.cfi_restore 14
 587:Libraries/STM32F1xx_HAL_Driver/Src/stm32f1xx_hal_i2s.c ****   }
 2278              		.loc 1 587 0
 2279 0108 0120     		movs	r0, #1
 2280              	.LVL218:
 2281 010a 7047     		bx	lr
 2282              	.LVL219:
 2283              	.L203:
 2284              	.LCFI38:
 2285              		.cfi_def_cfa_offset 24
 2286              		.cfi_offset 4, -16
 2287              		.cfi_offset 5, -12
 2288              		.cfi_offset 6, -8
 2289              		.cfi_offset 14, -4
 2290 010c 0120     		movs	r0, #1
 2291              	.LVL220:
ARM GAS  /tmp/cc1Hj1lD.s 			page 72


 2292 010e 87E7     		b	.L192
 2293              	.LVL221:
 2294              	.L205:
 604:Libraries/STM32F1xx_HAL_Driver/Src/stm32f1xx_hal_i2s.c **** 
 2295              		.loc 1 604 0
 2296 0110 0220     		movs	r0, #2
 2297              	.LVL222:
 2298 0112 85E7     		b	.L192
 2299              		.cfi_endproc
 2300              	.LFE69:
 2302              		.section	.text.I2S_DMAError,"ax",%progbits
 2303              		.align	1
 2304              		.syntax unified
 2305              		.thumb
 2306              		.thumb_func
 2307              		.fpu softvfp
 2309              	I2S_DMAError:
 2310              	.LFB89:
1290:Libraries/STM32F1xx_HAL_Driver/Src/stm32f1xx_hal_i2s.c ****   I2S_HandleTypeDef* hi2s = (I2S_HandleTypeDef*)((DMA_HandleTypeDef*)hdma)->Parent;
 2311              		.loc 1 1290 0
 2312              		.cfi_startproc
 2313              		@ args = 0, pretend = 0, frame = 0
 2314              		@ frame_needed = 0, uses_anonymous_args = 0
 2315              	.LVL223:
 2316 0000 08B5     		push	{r3, lr}
 2317              	.LCFI39:
 2318              		.cfi_def_cfa_offset 8
 2319              		.cfi_offset 3, -8
 2320              		.cfi_offset 14, -4
1291:Libraries/STM32F1xx_HAL_Driver/Src/stm32f1xx_hal_i2s.c **** 
 2321              		.loc 1 1291 0
 2322 0002 406A     		ldr	r0, [r0, #36]
 2323              	.LVL224:
1294:Libraries/STM32F1xx_HAL_Driver/Src/stm32f1xx_hal_i2s.c ****   hi2s->TxXferCount = 0U;
 2324              		.loc 1 1294 0
 2325 0004 0268     		ldr	r2, [r0]
 2326 0006 5368     		ldr	r3, [r2, #4]
 2327 0008 23F00303 		bic	r3, r3, #3
 2328 000c 5360     		str	r3, [r2, #4]
1295:Libraries/STM32F1xx_HAL_Driver/Src/stm32f1xx_hal_i2s.c ****   hi2s->RxXferCount = 0U;
 2329              		.loc 1 1295 0
 2330 000e 0023     		movs	r3, #0
 2331 0010 4384     		strh	r3, [r0, #34]	@ movhi
1296:Libraries/STM32F1xx_HAL_Driver/Src/stm32f1xx_hal_i2s.c **** 
 2332              		.loc 1 1296 0
 2333 0012 4385     		strh	r3, [r0, #42]	@ movhi
1298:Libraries/STM32F1xx_HAL_Driver/Src/stm32f1xx_hal_i2s.c **** 
 2334              		.loc 1 1298 0
 2335 0014 0123     		movs	r3, #1
 2336 0016 80F83930 		strb	r3, [r0, #57]
1300:Libraries/STM32F1xx_HAL_Driver/Src/stm32f1xx_hal_i2s.c ****   HAL_I2S_ErrorCallback(hi2s);
 2337              		.loc 1 1300 0
 2338 001a C36B     		ldr	r3, [r0, #60]
 2339 001c 43F00803 		orr	r3, r3, #8
 2340 0020 C363     		str	r3, [r0, #60]
1301:Libraries/STM32F1xx_HAL_Driver/Src/stm32f1xx_hal_i2s.c **** }
 2341              		.loc 1 1301 0
ARM GAS  /tmp/cc1Hj1lD.s 			page 73


 2342 0022 FFF7FEFF 		bl	HAL_I2S_ErrorCallback
 2343              	.LVL225:
 2344 0026 08BD     		pop	{r3, pc}
 2345              		.cfi_endproc
 2346              	.LFE89:
 2348              		.section	.text.HAL_I2S_GetState,"ax",%progbits
 2349              		.align	1
 2350              		.global	HAL_I2S_GetState
 2351              		.syntax unified
 2352              		.thumb
 2353              		.thumb_func
 2354              		.fpu softvfp
 2356              	HAL_I2S_GetState:
 2357              	.LFB83:
1191:Libraries/STM32F1xx_HAL_Driver/Src/stm32f1xx_hal_i2s.c ****   return hi2s->State;
 2358              		.loc 1 1191 0
 2359              		.cfi_startproc
 2360              		@ args = 0, pretend = 0, frame = 0
 2361              		@ frame_needed = 0, uses_anonymous_args = 0
 2362              		@ link register save eliminated.
 2363              	.LVL226:
1192:Libraries/STM32F1xx_HAL_Driver/Src/stm32f1xx_hal_i2s.c **** }
 2364              		.loc 1 1192 0
 2365 0000 90F83900 		ldrb	r0, [r0, #57]	@ zero_extendqisi2
 2366              	.LVL227:
1193:Libraries/STM32F1xx_HAL_Driver/Src/stm32f1xx_hal_i2s.c **** 
 2367              		.loc 1 1193 0
 2368 0004 7047     		bx	lr
 2369              		.cfi_endproc
 2370              	.LFE83:
 2372              		.section	.text.HAL_I2S_GetError,"ax",%progbits
 2373              		.align	1
 2374              		.global	HAL_I2S_GetError
 2375              		.syntax unified
 2376              		.thumb
 2377              		.thumb_func
 2378              		.fpu softvfp
 2380              	HAL_I2S_GetError:
 2381              	.LFB84:
1202:Libraries/STM32F1xx_HAL_Driver/Src/stm32f1xx_hal_i2s.c ****   return hi2s->ErrorCode;
 2382              		.loc 1 1202 0
 2383              		.cfi_startproc
 2384              		@ args = 0, pretend = 0, frame = 0
 2385              		@ frame_needed = 0, uses_anonymous_args = 0
 2386              		@ link register save eliminated.
 2387              	.LVL228:
1203:Libraries/STM32F1xx_HAL_Driver/Src/stm32f1xx_hal_i2s.c **** }
 2388              		.loc 1 1203 0
 2389 0000 C06B     		ldr	r0, [r0, #60]
 2390              	.LVL229:
1204:Libraries/STM32F1xx_HAL_Driver/Src/stm32f1xx_hal_i2s.c **** /**
 2391              		.loc 1 1204 0
 2392 0002 7047     		bx	lr
 2393              		.cfi_endproc
 2394              	.LFE84:
 2396              		.text
 2397              	.Letext0:
ARM GAS  /tmp/cc1Hj1lD.s 			page 74


 2398              		.file 2 "/usr/include/newlib/machine/_default_types.h"
 2399              		.file 3 "/usr/include/newlib/sys/_stdint.h"
 2400              		.file 4 "Libraries/CMSIS/Include/core_cm3.h"
 2401              		.file 5 "Libraries/CMSIS/Device/ST/STM32F1xx/Include/system_stm32f1xx.h"
 2402              		.file 6 "Libraries/CMSIS/Device/ST/STM32F1xx/Include/stm32f103xe.h"
 2403              		.file 7 "/usr/include/newlib/sys/lock.h"
 2404              		.file 8 "/usr/include/newlib/sys/_types.h"
 2405              		.file 9 "/usr/lib/gcc/arm-none-eabi/6.3.1/include/stddef.h"
 2406              		.file 10 "/usr/include/newlib/sys/reent.h"
 2407              		.file 11 "Libraries/CMSIS/Device/ST/STM32F1xx/Include/stm32f1xx.h"
 2408              		.file 12 "Libraries/STM32F1xx_HAL_Driver/Inc/stm32f1xx_hal_def.h"
 2409              		.file 13 "Libraries/STM32F1xx_HAL_Driver/Inc/stm32f1xx_hal_dma.h"
 2410              		.file 14 "Libraries/STM32F1xx_HAL_Driver/Inc/stm32f1xx_hal_i2s.h"
 2411              		.file 15 "Libraries/STM32F1xx_HAL_Driver/Inc/stm32f1xx_hal.h"
 2412              		.file 16 "Libraries/STM32F1xx_HAL_Driver/Inc/stm32f1xx_hal_rcc.h"
 2413              		.file 17 "Libraries/STM32F1xx_HAL_Driver/Inc/stm32f1xx_hal_rcc_ex.h"
ARM GAS  /tmp/cc1Hj1lD.s 			page 75


DEFINED SYMBOLS
                            *ABS*:0000000000000000 stm32f1xx_hal_i2s.c
     /tmp/cc1Hj1lD.s:16     .text.I2S_WaitFlagStateUntilTimeout:0000000000000000 $t
     /tmp/cc1Hj1lD.s:22     .text.I2S_WaitFlagStateUntilTimeout:0000000000000000 I2S_WaitFlagStateUntilTimeout
     /tmp/cc1Hj1lD.s:98     .text.HAL_I2S_MspInit:0000000000000000 $t
     /tmp/cc1Hj1lD.s:105    .text.HAL_I2S_MspInit:0000000000000000 HAL_I2S_MspInit
     /tmp/cc1Hj1lD.s:118    .text.HAL_I2S_MspDeInit:0000000000000000 $t
     /tmp/cc1Hj1lD.s:125    .text.HAL_I2S_MspDeInit:0000000000000000 HAL_I2S_MspDeInit
     /tmp/cc1Hj1lD.s:138    .text.HAL_I2S_DeInit:0000000000000000 $t
     /tmp/cc1Hj1lD.s:145    .text.HAL_I2S_DeInit:0000000000000000 HAL_I2S_DeInit
     /tmp/cc1Hj1lD.s:190    .text.HAL_I2S_Transmit_IT:0000000000000000 $t
     /tmp/cc1Hj1lD.s:197    .text.HAL_I2S_Transmit_IT:0000000000000000 HAL_I2S_Transmit_IT
     /tmp/cc1Hj1lD.s:310    .text.HAL_I2S_Receive_IT:0000000000000000 $t
     /tmp/cc1Hj1lD.s:317    .text.HAL_I2S_Receive_IT:0000000000000000 HAL_I2S_Receive_IT
     /tmp/cc1Hj1lD.s:430    .text.HAL_I2S_Transmit_DMA:0000000000000000 $t
     /tmp/cc1Hj1lD.s:437    .text.HAL_I2S_Transmit_DMA:0000000000000000 HAL_I2S_Transmit_DMA
     /tmp/cc1Hj1lD.s:592    .text.HAL_I2S_Transmit_DMA:00000000000000b0 $d
     /tmp/cc1Hj1lD.s:1087   .text.I2S_DMATxHalfCplt:0000000000000000 I2S_DMATxHalfCplt
     /tmp/cc1Hj1lD.s:1195   .text.I2S_DMATxCplt:0000000000000000 I2S_DMATxCplt
     /tmp/cc1Hj1lD.s:2309   .text.I2S_DMAError:0000000000000000 I2S_DMAError
     /tmp/cc1Hj1lD.s:599    .text.HAL_I2S_Receive_DMA:0000000000000000 $t
     /tmp/cc1Hj1lD.s:606    .text.HAL_I2S_Receive_DMA:0000000000000000 HAL_I2S_Receive_DMA
     /tmp/cc1Hj1lD.s:790    .text.HAL_I2S_Receive_DMA:00000000000000d0 $d
     /tmp/cc1Hj1lD.s:1263   .text.I2S_DMARxHalfCplt:0000000000000000 I2S_DMARxHalfCplt
     /tmp/cc1Hj1lD.s:1371   .text.I2S_DMARxCplt:0000000000000000 I2S_DMARxCplt
     /tmp/cc1Hj1lD.s:797    .text.HAL_I2S_DMAPause:0000000000000000 $t
     /tmp/cc1Hj1lD.s:804    .text.HAL_I2S_DMAPause:0000000000000000 HAL_I2S_DMAPause
     /tmp/cc1Hj1lD.s:863    .text.HAL_I2S_DMAResume:0000000000000000 $t
     /tmp/cc1Hj1lD.s:870    .text.HAL_I2S_DMAResume:0000000000000000 HAL_I2S_DMAResume
     /tmp/cc1Hj1lD.s:939    .text.HAL_I2S_DMAStop:0000000000000000 $t
     /tmp/cc1Hj1lD.s:946    .text.HAL_I2S_DMAStop:0000000000000000 HAL_I2S_DMAStop
     /tmp/cc1Hj1lD.s:1033   .text.HAL_I2S_IRQHandler:0000000000000000 $t
     /tmp/cc1Hj1lD.s:1040   .text.HAL_I2S_IRQHandler:0000000000000000 HAL_I2S_IRQHandler
     /tmp/cc1Hj1lD.s:1061   .text.HAL_I2S_TxHalfCpltCallback:0000000000000000 $t
     /tmp/cc1Hj1lD.s:1068   .text.HAL_I2S_TxHalfCpltCallback:0000000000000000 HAL_I2S_TxHalfCpltCallback
     /tmp/cc1Hj1lD.s:1081   .text.I2S_DMATxHalfCplt:0000000000000000 $t
     /tmp/cc1Hj1lD.s:1111   .text.HAL_I2S_TxCpltCallback:0000000000000000 $t
     /tmp/cc1Hj1lD.s:1118   .text.HAL_I2S_TxCpltCallback:0000000000000000 HAL_I2S_TxCpltCallback
     /tmp/cc1Hj1lD.s:1131   .text.I2S_Transmit_IT:0000000000000000 $t
     /tmp/cc1Hj1lD.s:1137   .text.I2S_Transmit_IT:0000000000000000 I2S_Transmit_IT
     /tmp/cc1Hj1lD.s:1189   .text.I2S_DMATxCplt:0000000000000000 $t
     /tmp/cc1Hj1lD.s:1237   .text.HAL_I2S_RxHalfCpltCallback:0000000000000000 $t
     /tmp/cc1Hj1lD.s:1244   .text.HAL_I2S_RxHalfCpltCallback:0000000000000000 HAL_I2S_RxHalfCpltCallback
     /tmp/cc1Hj1lD.s:1257   .text.I2S_DMARxHalfCplt:0000000000000000 $t
     /tmp/cc1Hj1lD.s:1287   .text.HAL_I2S_RxCpltCallback:0000000000000000 $t
     /tmp/cc1Hj1lD.s:1294   .text.HAL_I2S_RxCpltCallback:0000000000000000 HAL_I2S_RxCpltCallback
     /tmp/cc1Hj1lD.s:1307   .text.I2S_Receive_IT:0000000000000000 $t
     /tmp/cc1Hj1lD.s:1313   .text.I2S_Receive_IT:0000000000000000 I2S_Receive_IT
     /tmp/cc1Hj1lD.s:1365   .text.I2S_DMARxCplt:0000000000000000 $t
     /tmp/cc1Hj1lD.s:1413   .text.HAL_I2S_ErrorCallback:0000000000000000 $t
     /tmp/cc1Hj1lD.s:1420   .text.HAL_I2S_ErrorCallback:0000000000000000 HAL_I2S_ErrorCallback
     /tmp/cc1Hj1lD.s:1433   .text.HAL_I2S_Init:0000000000000000 $t
     /tmp/cc1Hj1lD.s:1440   .text.HAL_I2S_Init:0000000000000000 HAL_I2S_Init
     /tmp/cc1Hj1lD.s:1668   .text.HAL_I2S_Init:000000000000011c $d
     /tmp/cc1Hj1lD.s:1682   .text.I2S_IRQHandler:0000000000000000 I2S_IRQHandler
     /tmp/cc1Hj1lD.s:1676   .text.I2S_IRQHandler:0000000000000000 $t
     /tmp/cc1Hj1lD.s:1834   .text.HAL_I2S_Transmit:0000000000000000 $t
ARM GAS  /tmp/cc1Hj1lD.s 			page 76


     /tmp/cc1Hj1lD.s:1841   .text.HAL_I2S_Transmit:0000000000000000 HAL_I2S_Transmit
     /tmp/cc1Hj1lD.s:2059   .text.HAL_I2S_Receive:0000000000000000 $t
     /tmp/cc1Hj1lD.s:2066   .text.HAL_I2S_Receive:0000000000000000 HAL_I2S_Receive
     /tmp/cc1Hj1lD.s:2303   .text.I2S_DMAError:0000000000000000 $t
     /tmp/cc1Hj1lD.s:2349   .text.HAL_I2S_GetState:0000000000000000 $t
     /tmp/cc1Hj1lD.s:2356   .text.HAL_I2S_GetState:0000000000000000 HAL_I2S_GetState
     /tmp/cc1Hj1lD.s:2373   .text.HAL_I2S_GetError:0000000000000000 $t
     /tmp/cc1Hj1lD.s:2380   .text.HAL_I2S_GetError:0000000000000000 HAL_I2S_GetError
                     .debug_frame:0000000000000010 $d

UNDEFINED SYMBOLS
HAL_GetTick
HAL_DMA_Start_IT
HAL_DMA_Abort
HAL_RCC_GetSysClockFreq
HAL_RCCEx_GetPeriphCLKFreq
