ARM GAS  /tmp/cckmEZIO.s 			page 1


   1              		.cpu cortex-m3
   2              		.eabi_attribute 20, 1
   3              		.eabi_attribute 21, 1
   4              		.eabi_attribute 23, 3
   5              		.eabi_attribute 24, 1
   6              		.eabi_attribute 25, 1
   7              		.eabi_attribute 26, 1
   8              		.eabi_attribute 30, 1
   9              		.eabi_attribute 34, 1
  10              		.eabi_attribute 18, 4
  11              		.file	"stm32f1xx_hal_rtc_ex.c"
  12              		.text
  13              	.Ltext0:
  14              		.cfi_sections	.debug_frame
  15              		.section	.text.HAL_RTCEx_SetTamper,"ax",%progbits
  16              		.align	1
  17              		.global	HAL_RTCEx_SetTamper
  18              		.syntax unified
  19              		.thumb
  20              		.thumb_func
  21              		.fpu softvfp
  23              	HAL_RTCEx_SetTamper:
  24              	.LFB64:
  25              		.file 1 "Libraries/STM32F1xx_HAL_Driver/Src/stm32f1xx_hal_rtc_ex.c"
   1:Libraries/STM32F1xx_HAL_Driver/Src/stm32f1xx_hal_rtc_ex.c **** /**
   2:Libraries/STM32F1xx_HAL_Driver/Src/stm32f1xx_hal_rtc_ex.c ****   ******************************************************************************
   3:Libraries/STM32F1xx_HAL_Driver/Src/stm32f1xx_hal_rtc_ex.c ****   * @file    stm32f1xx_hal_rtc_ex.c
   4:Libraries/STM32F1xx_HAL_Driver/Src/stm32f1xx_hal_rtc_ex.c ****   * @author  MCD Application Team
   5:Libraries/STM32F1xx_HAL_Driver/Src/stm32f1xx_hal_rtc_ex.c ****   * @version V1.1.1
   6:Libraries/STM32F1xx_HAL_Driver/Src/stm32f1xx_hal_rtc_ex.c ****   * @date    12-May-2017
   7:Libraries/STM32F1xx_HAL_Driver/Src/stm32f1xx_hal_rtc_ex.c ****   * @brief   Extended RTC HAL module driver.
   8:Libraries/STM32F1xx_HAL_Driver/Src/stm32f1xx_hal_rtc_ex.c ****   *          This file provides firmware functions to manage the following 
   9:Libraries/STM32F1xx_HAL_Driver/Src/stm32f1xx_hal_rtc_ex.c ****   *          functionalities of the Real Time Clock (RTC) Extension peripheral:
  10:Libraries/STM32F1xx_HAL_Driver/Src/stm32f1xx_hal_rtc_ex.c ****   *           + RTC Tamper functions 
  11:Libraries/STM32F1xx_HAL_Driver/Src/stm32f1xx_hal_rtc_ex.c ****   *           + Extension Control functions
  12:Libraries/STM32F1xx_HAL_Driver/Src/stm32f1xx_hal_rtc_ex.c ****   *           + Extension RTC features functions    
  13:Libraries/STM32F1xx_HAL_Driver/Src/stm32f1xx_hal_rtc_ex.c ****   *         
  14:Libraries/STM32F1xx_HAL_Driver/Src/stm32f1xx_hal_rtc_ex.c ****   ******************************************************************************
  15:Libraries/STM32F1xx_HAL_Driver/Src/stm32f1xx_hal_rtc_ex.c ****   * @attention
  16:Libraries/STM32F1xx_HAL_Driver/Src/stm32f1xx_hal_rtc_ex.c ****   *
  17:Libraries/STM32F1xx_HAL_Driver/Src/stm32f1xx_hal_rtc_ex.c ****   * <h2><center>&copy; COPYRIGHT(c) 2016 STMicroelectronics</center></h2>
  18:Libraries/STM32F1xx_HAL_Driver/Src/stm32f1xx_hal_rtc_ex.c ****   *
  19:Libraries/STM32F1xx_HAL_Driver/Src/stm32f1xx_hal_rtc_ex.c ****   * Redistribution and use in source and binary forms, with or without modification,
  20:Libraries/STM32F1xx_HAL_Driver/Src/stm32f1xx_hal_rtc_ex.c ****   * are permitted provided that the following conditions are met:
  21:Libraries/STM32F1xx_HAL_Driver/Src/stm32f1xx_hal_rtc_ex.c ****   *   1. Redistributions of source code must retain the above copyright notice,
  22:Libraries/STM32F1xx_HAL_Driver/Src/stm32f1xx_hal_rtc_ex.c ****   *      this list of conditions and the following disclaimer.
  23:Libraries/STM32F1xx_HAL_Driver/Src/stm32f1xx_hal_rtc_ex.c ****   *   2. Redistributions in binary form must reproduce the above copyright notice,
  24:Libraries/STM32F1xx_HAL_Driver/Src/stm32f1xx_hal_rtc_ex.c ****   *      this list of conditions and the following disclaimer in the documentation
  25:Libraries/STM32F1xx_HAL_Driver/Src/stm32f1xx_hal_rtc_ex.c ****   *      and/or other materials provided with the distribution.
  26:Libraries/STM32F1xx_HAL_Driver/Src/stm32f1xx_hal_rtc_ex.c ****   *   3. Neither the name of STMicroelectronics nor the names of its contributors
  27:Libraries/STM32F1xx_HAL_Driver/Src/stm32f1xx_hal_rtc_ex.c ****   *      may be used to endorse or promote products derived from this software
  28:Libraries/STM32F1xx_HAL_Driver/Src/stm32f1xx_hal_rtc_ex.c ****   *      without specific prior written permission.
  29:Libraries/STM32F1xx_HAL_Driver/Src/stm32f1xx_hal_rtc_ex.c ****   *
  30:Libraries/STM32F1xx_HAL_Driver/Src/stm32f1xx_hal_rtc_ex.c ****   * THIS SOFTWARE IS PROVIDED BY THE COPYRIGHT HOLDERS AND CONTRIBUTORS "AS IS"
  31:Libraries/STM32F1xx_HAL_Driver/Src/stm32f1xx_hal_rtc_ex.c ****   * AND ANY EXPRESS OR IMPLIED WARRANTIES, INCLUDING, BUT NOT LIMITED TO, THE
  32:Libraries/STM32F1xx_HAL_Driver/Src/stm32f1xx_hal_rtc_ex.c ****   * IMPLIED WARRANTIES OF MERCHANTABILITY AND FITNESS FOR A PARTICULAR PURPOSE ARE
  33:Libraries/STM32F1xx_HAL_Driver/Src/stm32f1xx_hal_rtc_ex.c ****   * DISCLAIMED. IN NO EVENT SHALL THE COPYRIGHT HOLDER OR CONTRIBUTORS BE LIABLE
ARM GAS  /tmp/cckmEZIO.s 			page 2


  34:Libraries/STM32F1xx_HAL_Driver/Src/stm32f1xx_hal_rtc_ex.c ****   * FOR ANY DIRECT, INDIRECT, INCIDENTAL, SPECIAL, EXEMPLARY, OR CONSEQUENTIAL
  35:Libraries/STM32F1xx_HAL_Driver/Src/stm32f1xx_hal_rtc_ex.c ****   * DAMAGES (INCLUDING, BUT NOT LIMITED TO, PROCUREMENT OF SUBSTITUTE GOODS OR
  36:Libraries/STM32F1xx_HAL_Driver/Src/stm32f1xx_hal_rtc_ex.c ****   * SERVICES; LOSS OF USE, DATA, OR PROFITS; OR BUSINESS INTERRUPTION) HOWEVER
  37:Libraries/STM32F1xx_HAL_Driver/Src/stm32f1xx_hal_rtc_ex.c ****   * CAUSED AND ON ANY THEORY OF LIABILITY, WHETHER IN CONTRACT, STRICT LIABILITY,
  38:Libraries/STM32F1xx_HAL_Driver/Src/stm32f1xx_hal_rtc_ex.c ****   * OR TORT (INCLUDING NEGLIGENCE OR OTHERWISE) ARISING IN ANY WAY OUT OF THE USE
  39:Libraries/STM32F1xx_HAL_Driver/Src/stm32f1xx_hal_rtc_ex.c ****   * OF THIS SOFTWARE, EVEN IF ADVISED OF THE POSSIBILITY OF SUCH DAMAGE.
  40:Libraries/STM32F1xx_HAL_Driver/Src/stm32f1xx_hal_rtc_ex.c ****   *
  41:Libraries/STM32F1xx_HAL_Driver/Src/stm32f1xx_hal_rtc_ex.c ****   ******************************************************************************  
  42:Libraries/STM32F1xx_HAL_Driver/Src/stm32f1xx_hal_rtc_ex.c ****   */ 
  43:Libraries/STM32F1xx_HAL_Driver/Src/stm32f1xx_hal_rtc_ex.c **** 
  44:Libraries/STM32F1xx_HAL_Driver/Src/stm32f1xx_hal_rtc_ex.c **** /* Includes ------------------------------------------------------------------*/
  45:Libraries/STM32F1xx_HAL_Driver/Src/stm32f1xx_hal_rtc_ex.c **** #include "stm32f1xx_hal.h"
  46:Libraries/STM32F1xx_HAL_Driver/Src/stm32f1xx_hal_rtc_ex.c **** 
  47:Libraries/STM32F1xx_HAL_Driver/Src/stm32f1xx_hal_rtc_ex.c **** /** @addtogroup STM32F1xx_HAL_Driver
  48:Libraries/STM32F1xx_HAL_Driver/Src/stm32f1xx_hal_rtc_ex.c ****   * @{
  49:Libraries/STM32F1xx_HAL_Driver/Src/stm32f1xx_hal_rtc_ex.c ****   */
  50:Libraries/STM32F1xx_HAL_Driver/Src/stm32f1xx_hal_rtc_ex.c ****   
  51:Libraries/STM32F1xx_HAL_Driver/Src/stm32f1xx_hal_rtc_ex.c **** #ifdef HAL_RTC_MODULE_ENABLED
  52:Libraries/STM32F1xx_HAL_Driver/Src/stm32f1xx_hal_rtc_ex.c **** 
  53:Libraries/STM32F1xx_HAL_Driver/Src/stm32f1xx_hal_rtc_ex.c **** /** @defgroup RTCEx RTCEx
  54:Libraries/STM32F1xx_HAL_Driver/Src/stm32f1xx_hal_rtc_ex.c ****   * @brief RTC Extended HAL module driver
  55:Libraries/STM32F1xx_HAL_Driver/Src/stm32f1xx_hal_rtc_ex.c ****   * @{
  56:Libraries/STM32F1xx_HAL_Driver/Src/stm32f1xx_hal_rtc_ex.c ****   */
  57:Libraries/STM32F1xx_HAL_Driver/Src/stm32f1xx_hal_rtc_ex.c ****   
  58:Libraries/STM32F1xx_HAL_Driver/Src/stm32f1xx_hal_rtc_ex.c **** /* Private typedef -----------------------------------------------------------*/
  59:Libraries/STM32F1xx_HAL_Driver/Src/stm32f1xx_hal_rtc_ex.c **** /* Private define ------------------------------------------------------------*/
  60:Libraries/STM32F1xx_HAL_Driver/Src/stm32f1xx_hal_rtc_ex.c **** /* Private macro -------------------------------------------------------------*/
  61:Libraries/STM32F1xx_HAL_Driver/Src/stm32f1xx_hal_rtc_ex.c **** /** @defgroup RTCEx_Private_Macros RTCEx Private Macros
  62:Libraries/STM32F1xx_HAL_Driver/Src/stm32f1xx_hal_rtc_ex.c ****   * @{
  63:Libraries/STM32F1xx_HAL_Driver/Src/stm32f1xx_hal_rtc_ex.c ****   */
  64:Libraries/STM32F1xx_HAL_Driver/Src/stm32f1xx_hal_rtc_ex.c **** /**
  65:Libraries/STM32F1xx_HAL_Driver/Src/stm32f1xx_hal_rtc_ex.c ****   * @}
  66:Libraries/STM32F1xx_HAL_Driver/Src/stm32f1xx_hal_rtc_ex.c ****   */
  67:Libraries/STM32F1xx_HAL_Driver/Src/stm32f1xx_hal_rtc_ex.c ****   
  68:Libraries/STM32F1xx_HAL_Driver/Src/stm32f1xx_hal_rtc_ex.c **** /* Private variables ---------------------------------------------------------*/
  69:Libraries/STM32F1xx_HAL_Driver/Src/stm32f1xx_hal_rtc_ex.c **** /* Private function prototypes -----------------------------------------------*/
  70:Libraries/STM32F1xx_HAL_Driver/Src/stm32f1xx_hal_rtc_ex.c **** /* Private functions ---------------------------------------------------------*/
  71:Libraries/STM32F1xx_HAL_Driver/Src/stm32f1xx_hal_rtc_ex.c **** 
  72:Libraries/STM32F1xx_HAL_Driver/Src/stm32f1xx_hal_rtc_ex.c **** /** @defgroup RTCEx_Exported_Functions RTCEx Exported Functions
  73:Libraries/STM32F1xx_HAL_Driver/Src/stm32f1xx_hal_rtc_ex.c ****   * @{
  74:Libraries/STM32F1xx_HAL_Driver/Src/stm32f1xx_hal_rtc_ex.c ****   */
  75:Libraries/STM32F1xx_HAL_Driver/Src/stm32f1xx_hal_rtc_ex.c ****   
  76:Libraries/STM32F1xx_HAL_Driver/Src/stm32f1xx_hal_rtc_ex.c **** /** @defgroup RTCEx_Exported_Functions_Group1 RTC Tamper functions
  77:Libraries/STM32F1xx_HAL_Driver/Src/stm32f1xx_hal_rtc_ex.c ****   * @brief    RTC Tamper functions
  78:Libraries/STM32F1xx_HAL_Driver/Src/stm32f1xx_hal_rtc_ex.c ****   *
  79:Libraries/STM32F1xx_HAL_Driver/Src/stm32f1xx_hal_rtc_ex.c **** @verbatim   
  80:Libraries/STM32F1xx_HAL_Driver/Src/stm32f1xx_hal_rtc_ex.c ****  ===============================================================================
  81:Libraries/STM32F1xx_HAL_Driver/Src/stm32f1xx_hal_rtc_ex.c ****                  ##### RTC Tamper functions #####
  82:Libraries/STM32F1xx_HAL_Driver/Src/stm32f1xx_hal_rtc_ex.c ****  ===============================================================================  
  83:Libraries/STM32F1xx_HAL_Driver/Src/stm32f1xx_hal_rtc_ex.c ****  
  84:Libraries/STM32F1xx_HAL_Driver/Src/stm32f1xx_hal_rtc_ex.c ****  [..] This section provides functions allowing to configure Tamper feature
  85:Libraries/STM32F1xx_HAL_Driver/Src/stm32f1xx_hal_rtc_ex.c **** 
  86:Libraries/STM32F1xx_HAL_Driver/Src/stm32f1xx_hal_rtc_ex.c **** @endverbatim
  87:Libraries/STM32F1xx_HAL_Driver/Src/stm32f1xx_hal_rtc_ex.c ****   * @{
  88:Libraries/STM32F1xx_HAL_Driver/Src/stm32f1xx_hal_rtc_ex.c ****   */
  89:Libraries/STM32F1xx_HAL_Driver/Src/stm32f1xx_hal_rtc_ex.c **** 
  90:Libraries/STM32F1xx_HAL_Driver/Src/stm32f1xx_hal_rtc_ex.c **** /**
ARM GAS  /tmp/cckmEZIO.s 			page 3


  91:Libraries/STM32F1xx_HAL_Driver/Src/stm32f1xx_hal_rtc_ex.c ****   * @brief  Sets Tamper
  92:Libraries/STM32F1xx_HAL_Driver/Src/stm32f1xx_hal_rtc_ex.c ****   * @note   By calling this API we disable the tamper interrupt for all tampers. 
  93:Libraries/STM32F1xx_HAL_Driver/Src/stm32f1xx_hal_rtc_ex.c ****   * @param  hrtc: pointer to a RTC_HandleTypeDef structure that contains
  94:Libraries/STM32F1xx_HAL_Driver/Src/stm32f1xx_hal_rtc_ex.c ****   *                the configuration information for RTC.
  95:Libraries/STM32F1xx_HAL_Driver/Src/stm32f1xx_hal_rtc_ex.c ****   * @param  sTamper: Pointer to Tamper Structure.
  96:Libraries/STM32F1xx_HAL_Driver/Src/stm32f1xx_hal_rtc_ex.c ****   * @note   Tamper can be enabled only if ASOE and CCO bit are reset
  97:Libraries/STM32F1xx_HAL_Driver/Src/stm32f1xx_hal_rtc_ex.c ****   * @retval HAL status
  98:Libraries/STM32F1xx_HAL_Driver/Src/stm32f1xx_hal_rtc_ex.c ****   */
  99:Libraries/STM32F1xx_HAL_Driver/Src/stm32f1xx_hal_rtc_ex.c **** HAL_StatusTypeDef HAL_RTCEx_SetTamper(RTC_HandleTypeDef *hrtc, RTC_TamperTypeDef* sTamper)
 100:Libraries/STM32F1xx_HAL_Driver/Src/stm32f1xx_hal_rtc_ex.c **** {
  26              		.loc 1 100 0
  27              		.cfi_startproc
  28              		@ args = 0, pretend = 0, frame = 0
  29              		@ frame_needed = 0, uses_anonymous_args = 0
  30              		@ link register save eliminated.
  31              	.LVL0:
 101:Libraries/STM32F1xx_HAL_Driver/Src/stm32f1xx_hal_rtc_ex.c ****   /* Check input parameters */
 102:Libraries/STM32F1xx_HAL_Driver/Src/stm32f1xx_hal_rtc_ex.c ****   if((hrtc == NULL) || (sTamper == NULL))
  32              		.loc 1 102 0
  33 0000 18B3     		cbz	r0, .L4
  34 0002 0346     		mov	r3, r0
  35              		.loc 1 102 0 is_stmt 0 discriminator 1
  36 0004 19B3     		cbz	r1, .L5
 103:Libraries/STM32F1xx_HAL_Driver/Src/stm32f1xx_hal_rtc_ex.c ****   {
 104:Libraries/STM32F1xx_HAL_Driver/Src/stm32f1xx_hal_rtc_ex.c ****      return HAL_ERROR;
 105:Libraries/STM32F1xx_HAL_Driver/Src/stm32f1xx_hal_rtc_ex.c ****   }
 106:Libraries/STM32F1xx_HAL_Driver/Src/stm32f1xx_hal_rtc_ex.c ****   
 107:Libraries/STM32F1xx_HAL_Driver/Src/stm32f1xx_hal_rtc_ex.c ****   /* Check the parameters */
 108:Libraries/STM32F1xx_HAL_Driver/Src/stm32f1xx_hal_rtc_ex.c ****   assert_param(IS_RTC_TAMPER(sTamper->Tamper));
 109:Libraries/STM32F1xx_HAL_Driver/Src/stm32f1xx_hal_rtc_ex.c ****   assert_param(IS_RTC_TAMPER_TRIGGER(sTamper->Trigger));
 110:Libraries/STM32F1xx_HAL_Driver/Src/stm32f1xx_hal_rtc_ex.c **** 
 111:Libraries/STM32F1xx_HAL_Driver/Src/stm32f1xx_hal_rtc_ex.c ****   /* Process Locked */
 112:Libraries/STM32F1xx_HAL_Driver/Src/stm32f1xx_hal_rtc_ex.c ****   __HAL_LOCK(hrtc);
  37              		.loc 1 112 0 is_stmt 1
  38 0006 027C     		ldrb	r2, [r0, #16]	@ zero_extendqisi2
  39 0008 012A     		cmp	r2, #1
  40 000a 22D0     		beq	.L6
  41              		.loc 1 112 0 is_stmt 0 discriminator 2
  42 000c 0122     		movs	r2, #1
  43 000e 0274     		strb	r2, [r0, #16]
 113:Libraries/STM32F1xx_HAL_Driver/Src/stm32f1xx_hal_rtc_ex.c **** 
 114:Libraries/STM32F1xx_HAL_Driver/Src/stm32f1xx_hal_rtc_ex.c ****   hrtc->State = HAL_RTC_STATE_BUSY;
  44              		.loc 1 114 0 is_stmt 1 discriminator 2
  45 0010 0222     		movs	r2, #2
  46 0012 4274     		strb	r2, [r0, #17]
 115:Libraries/STM32F1xx_HAL_Driver/Src/stm32f1xx_hal_rtc_ex.c ****   
 116:Libraries/STM32F1xx_HAL_Driver/Src/stm32f1xx_hal_rtc_ex.c ****   if (HAL_IS_BIT_SET(BKP->RTCCR,(BKP_RTCCR_CCO | BKP_RTCCR_ASOE)))
  47              		.loc 1 116 0 discriminator 2
  48 0014 104A     		ldr	r2, .L11
  49 0016 D26A     		ldr	r2, [r2, #44]
  50 0018 12F4C07F 		tst	r2, #384
  51 001c 0FD1     		bne	.L10
 100:Libraries/STM32F1xx_HAL_Driver/Src/stm32f1xx_hal_rtc_ex.c ****   /* Check input parameters */
  52              		.loc 1 100 0
  53 001e 10B4     		push	{r4}
  54              	.LCFI0:
  55              		.cfi_def_cfa_offset 4
ARM GAS  /tmp/cckmEZIO.s 			page 4


  56              		.cfi_offset 4, -4
 117:Libraries/STM32F1xx_HAL_Driver/Src/stm32f1xx_hal_rtc_ex.c ****   {
 118:Libraries/STM32F1xx_HAL_Driver/Src/stm32f1xx_hal_rtc_ex.c ****     hrtc->State = HAL_RTC_STATE_ERROR;
 119:Libraries/STM32F1xx_HAL_Driver/Src/stm32f1xx_hal_rtc_ex.c ****     
 120:Libraries/STM32F1xx_HAL_Driver/Src/stm32f1xx_hal_rtc_ex.c ****     /* Process Unlocked */
 121:Libraries/STM32F1xx_HAL_Driver/Src/stm32f1xx_hal_rtc_ex.c ****     __HAL_UNLOCK(hrtc);
 122:Libraries/STM32F1xx_HAL_Driver/Src/stm32f1xx_hal_rtc_ex.c ****     
 123:Libraries/STM32F1xx_HAL_Driver/Src/stm32f1xx_hal_rtc_ex.c ****     return HAL_ERROR;
 124:Libraries/STM32F1xx_HAL_Driver/Src/stm32f1xx_hal_rtc_ex.c ****   }
 125:Libraries/STM32F1xx_HAL_Driver/Src/stm32f1xx_hal_rtc_ex.c **** 
 126:Libraries/STM32F1xx_HAL_Driver/Src/stm32f1xx_hal_rtc_ex.c ****   MODIFY_REG(BKP->CR, (BKP_CR_TPE | BKP_CR_TPAL), (sTamper->Tamper | (sTamper->Trigger)));
  57              		.loc 1 126 0
  58 0020 0D4C     		ldr	r4, .L11
  59 0022 226B     		ldr	r2, [r4, #48]
  60 0024 22F00302 		bic	r2, r2, #3
  61 0028 0868     		ldr	r0, [r1]
  62              	.LVL1:
  63 002a 4968     		ldr	r1, [r1, #4]
  64              	.LVL2:
  65 002c 0143     		orrs	r1, r1, r0
  66 002e 0A43     		orrs	r2, r2, r1
  67 0030 2263     		str	r2, [r4, #48]
 127:Libraries/STM32F1xx_HAL_Driver/Src/stm32f1xx_hal_rtc_ex.c **** 
 128:Libraries/STM32F1xx_HAL_Driver/Src/stm32f1xx_hal_rtc_ex.c ****   hrtc->State = HAL_RTC_STATE_READY; 
  68              		.loc 1 128 0
  69 0032 0122     		movs	r2, #1
  70 0034 5A74     		strb	r2, [r3, #17]
 129:Libraries/STM32F1xx_HAL_Driver/Src/stm32f1xx_hal_rtc_ex.c **** 
 130:Libraries/STM32F1xx_HAL_Driver/Src/stm32f1xx_hal_rtc_ex.c ****   /* Process Unlocked */
 131:Libraries/STM32F1xx_HAL_Driver/Src/stm32f1xx_hal_rtc_ex.c ****   __HAL_UNLOCK(hrtc);
  71              		.loc 1 131 0
  72 0036 0020     		movs	r0, #0
  73 0038 1874     		strb	r0, [r3, #16]
 132:Libraries/STM32F1xx_HAL_Driver/Src/stm32f1xx_hal_rtc_ex.c **** 
 133:Libraries/STM32F1xx_HAL_Driver/Src/stm32f1xx_hal_rtc_ex.c ****   return HAL_OK;
 134:Libraries/STM32F1xx_HAL_Driver/Src/stm32f1xx_hal_rtc_ex.c **** }
  74              		.loc 1 134 0
  75 003a 10BC     		pop	{r4}
  76              	.LCFI1:
  77              		.cfi_restore 4
  78              		.cfi_def_cfa_offset 0
  79 003c 7047     		bx	lr
  80              	.LVL3:
  81              	.L10:
 118:Libraries/STM32F1xx_HAL_Driver/Src/stm32f1xx_hal_rtc_ex.c ****     
  82              		.loc 1 118 0
  83 003e 0422     		movs	r2, #4
  84 0040 4274     		strb	r2, [r0, #17]
 121:Libraries/STM32F1xx_HAL_Driver/Src/stm32f1xx_hal_rtc_ex.c ****     
  85              		.loc 1 121 0
  86 0042 0022     		movs	r2, #0
  87 0044 0274     		strb	r2, [r0, #16]
 123:Libraries/STM32F1xx_HAL_Driver/Src/stm32f1xx_hal_rtc_ex.c ****   }
  88              		.loc 1 123 0
  89 0046 0120     		movs	r0, #1
  90              	.LVL4:
  91 0048 7047     		bx	lr
ARM GAS  /tmp/cckmEZIO.s 			page 5


  92              	.LVL5:
  93              	.L4:
 104:Libraries/STM32F1xx_HAL_Driver/Src/stm32f1xx_hal_rtc_ex.c ****   }
  94              		.loc 1 104 0
  95 004a 0120     		movs	r0, #1
  96              	.LVL6:
  97 004c 7047     		bx	lr
  98              	.LVL7:
  99              	.L5:
 100 004e 0120     		movs	r0, #1
 101              	.LVL8:
 102 0050 7047     		bx	lr
 103              	.LVL9:
 104              	.L6:
 112:Libraries/STM32F1xx_HAL_Driver/Src/stm32f1xx_hal_rtc_ex.c **** 
 105              		.loc 1 112 0
 106 0052 0220     		movs	r0, #2
 107              	.LVL10:
 108 0054 7047     		bx	lr
 109              	.L12:
 110 0056 00BF     		.align	2
 111              	.L11:
 112 0058 006C0040 		.word	1073769472
 113              		.cfi_endproc
 114              	.LFE64:
 116              		.section	.text.HAL_RTCEx_SetTamper_IT,"ax",%progbits
 117              		.align	1
 118              		.global	HAL_RTCEx_SetTamper_IT
 119              		.syntax unified
 120              		.thumb
 121              		.thumb_func
 122              		.fpu softvfp
 124              	HAL_RTCEx_SetTamper_IT:
 125              	.LFB65:
 135:Libraries/STM32F1xx_HAL_Driver/Src/stm32f1xx_hal_rtc_ex.c **** 
 136:Libraries/STM32F1xx_HAL_Driver/Src/stm32f1xx_hal_rtc_ex.c **** /**
 137:Libraries/STM32F1xx_HAL_Driver/Src/stm32f1xx_hal_rtc_ex.c ****   * @brief  Sets Tamper with interrupt.
 138:Libraries/STM32F1xx_HAL_Driver/Src/stm32f1xx_hal_rtc_ex.c ****   * @note   By calling this API we force the tamper interrupt for all tampers.
 139:Libraries/STM32F1xx_HAL_Driver/Src/stm32f1xx_hal_rtc_ex.c ****   * @param  hrtc: pointer to a RTC_HandleTypeDef structure that contains
 140:Libraries/STM32F1xx_HAL_Driver/Src/stm32f1xx_hal_rtc_ex.c ****   *                the configuration information for RTC.
 141:Libraries/STM32F1xx_HAL_Driver/Src/stm32f1xx_hal_rtc_ex.c ****   * @param  sTamper: Pointer to RTC Tamper.
 142:Libraries/STM32F1xx_HAL_Driver/Src/stm32f1xx_hal_rtc_ex.c ****   * @note   Tamper can be enabled only if ASOE and CCO bit are reset
 143:Libraries/STM32F1xx_HAL_Driver/Src/stm32f1xx_hal_rtc_ex.c ****   * @retval HAL status
 144:Libraries/STM32F1xx_HAL_Driver/Src/stm32f1xx_hal_rtc_ex.c ****   */
 145:Libraries/STM32F1xx_HAL_Driver/Src/stm32f1xx_hal_rtc_ex.c **** HAL_StatusTypeDef HAL_RTCEx_SetTamper_IT(RTC_HandleTypeDef *hrtc, RTC_TamperTypeDef* sTamper)
 146:Libraries/STM32F1xx_HAL_Driver/Src/stm32f1xx_hal_rtc_ex.c **** {
 126              		.loc 1 146 0
 127              		.cfi_startproc
 128              		@ args = 0, pretend = 0, frame = 0
 129              		@ frame_needed = 0, uses_anonymous_args = 0
 130              		@ link register save eliminated.
 131              	.LVL11:
 147:Libraries/STM32F1xx_HAL_Driver/Src/stm32f1xx_hal_rtc_ex.c ****   /* Check input parameters */
 148:Libraries/STM32F1xx_HAL_Driver/Src/stm32f1xx_hal_rtc_ex.c ****   if((hrtc == NULL) || (sTamper == NULL))
 132              		.loc 1 148 0
 133 0000 38B3     		cbz	r0, .L16
 134 0002 0346     		mov	r3, r0
ARM GAS  /tmp/cckmEZIO.s 			page 6


 135              		.loc 1 148 0 is_stmt 0 discriminator 1
 136 0004 39B3     		cbz	r1, .L17
 149:Libraries/STM32F1xx_HAL_Driver/Src/stm32f1xx_hal_rtc_ex.c ****   {
 150:Libraries/STM32F1xx_HAL_Driver/Src/stm32f1xx_hal_rtc_ex.c ****      return HAL_ERROR;
 151:Libraries/STM32F1xx_HAL_Driver/Src/stm32f1xx_hal_rtc_ex.c ****   }
 152:Libraries/STM32F1xx_HAL_Driver/Src/stm32f1xx_hal_rtc_ex.c ****   
 153:Libraries/STM32F1xx_HAL_Driver/Src/stm32f1xx_hal_rtc_ex.c ****   /* Check the parameters */
 154:Libraries/STM32F1xx_HAL_Driver/Src/stm32f1xx_hal_rtc_ex.c ****   assert_param(IS_RTC_TAMPER(sTamper->Tamper)); 
 155:Libraries/STM32F1xx_HAL_Driver/Src/stm32f1xx_hal_rtc_ex.c ****   assert_param(IS_RTC_TAMPER_TRIGGER(sTamper->Trigger));
 156:Libraries/STM32F1xx_HAL_Driver/Src/stm32f1xx_hal_rtc_ex.c **** 
 157:Libraries/STM32F1xx_HAL_Driver/Src/stm32f1xx_hal_rtc_ex.c ****   /* Process Locked */
 158:Libraries/STM32F1xx_HAL_Driver/Src/stm32f1xx_hal_rtc_ex.c ****   __HAL_LOCK(hrtc);
 137              		.loc 1 158 0 is_stmt 1
 138 0006 027C     		ldrb	r2, [r0, #16]	@ zero_extendqisi2
 139 0008 012A     		cmp	r2, #1
 140 000a 26D0     		beq	.L18
 141              		.loc 1 158 0 is_stmt 0 discriminator 2
 142 000c 0122     		movs	r2, #1
 143 000e 0274     		strb	r2, [r0, #16]
 159:Libraries/STM32F1xx_HAL_Driver/Src/stm32f1xx_hal_rtc_ex.c **** 
 160:Libraries/STM32F1xx_HAL_Driver/Src/stm32f1xx_hal_rtc_ex.c ****   hrtc->State = HAL_RTC_STATE_BUSY;
 144              		.loc 1 160 0 is_stmt 1 discriminator 2
 145 0010 0222     		movs	r2, #2
 146 0012 4274     		strb	r2, [r0, #17]
 161:Libraries/STM32F1xx_HAL_Driver/Src/stm32f1xx_hal_rtc_ex.c **** 
 162:Libraries/STM32F1xx_HAL_Driver/Src/stm32f1xx_hal_rtc_ex.c ****   if (HAL_IS_BIT_SET(BKP->RTCCR,(BKP_RTCCR_CCO | BKP_RTCCR_ASOE)))
 147              		.loc 1 162 0 discriminator 2
 148 0014 124A     		ldr	r2, .L23
 149 0016 D26A     		ldr	r2, [r2, #44]
 150 0018 12F4C07F 		tst	r2, #384
 151 001c 13D1     		bne	.L22
 146:Libraries/STM32F1xx_HAL_Driver/Src/stm32f1xx_hal_rtc_ex.c ****   /* Check input parameters */
 152              		.loc 1 146 0
 153 001e 10B4     		push	{r4}
 154              	.LCFI2:
 155              		.cfi_def_cfa_offset 4
 156              		.cfi_offset 4, -4
 163:Libraries/STM32F1xx_HAL_Driver/Src/stm32f1xx_hal_rtc_ex.c ****   {
 164:Libraries/STM32F1xx_HAL_Driver/Src/stm32f1xx_hal_rtc_ex.c ****     hrtc->State = HAL_RTC_STATE_ERROR;
 165:Libraries/STM32F1xx_HAL_Driver/Src/stm32f1xx_hal_rtc_ex.c ****     
 166:Libraries/STM32F1xx_HAL_Driver/Src/stm32f1xx_hal_rtc_ex.c ****     /* Process Unlocked */
 167:Libraries/STM32F1xx_HAL_Driver/Src/stm32f1xx_hal_rtc_ex.c ****     __HAL_UNLOCK(hrtc);
 168:Libraries/STM32F1xx_HAL_Driver/Src/stm32f1xx_hal_rtc_ex.c ****     
 169:Libraries/STM32F1xx_HAL_Driver/Src/stm32f1xx_hal_rtc_ex.c ****     return HAL_ERROR;
 170:Libraries/STM32F1xx_HAL_Driver/Src/stm32f1xx_hal_rtc_ex.c ****   }
 171:Libraries/STM32F1xx_HAL_Driver/Src/stm32f1xx_hal_rtc_ex.c **** 
 172:Libraries/STM32F1xx_HAL_Driver/Src/stm32f1xx_hal_rtc_ex.c ****   MODIFY_REG(BKP->CR, (BKP_CR_TPE | BKP_CR_TPAL), (sTamper->Tamper | (sTamper->Trigger)));
 157              		.loc 1 172 0
 158 0020 0F48     		ldr	r0, .L23
 159              	.LVL12:
 160 0022 026B     		ldr	r2, [r0, #48]
 161 0024 22F00302 		bic	r2, r2, #3
 162 0028 0C68     		ldr	r4, [r1]
 163 002a 4968     		ldr	r1, [r1, #4]
 164              	.LVL13:
 165 002c 2143     		orrs	r1, r1, r4
 166 002e 0A43     		orrs	r2, r2, r1
ARM GAS  /tmp/cckmEZIO.s 			page 7


 167 0030 0263     		str	r2, [r0, #48]
 173:Libraries/STM32F1xx_HAL_Driver/Src/stm32f1xx_hal_rtc_ex.c **** 
 174:Libraries/STM32F1xx_HAL_Driver/Src/stm32f1xx_hal_rtc_ex.c ****   /* Configure the Tamper Interrupt in the BKP->CSR */
 175:Libraries/STM32F1xx_HAL_Driver/Src/stm32f1xx_hal_rtc_ex.c ****   __HAL_RTC_TAMPER_ENABLE_IT(hrtc, RTC_IT_TAMP1);
 168              		.loc 1 175 0
 169 0032 426B     		ldr	r2, [r0, #52]
 170 0034 42F00402 		orr	r2, r2, #4
 171 0038 4263     		str	r2, [r0, #52]
 176:Libraries/STM32F1xx_HAL_Driver/Src/stm32f1xx_hal_rtc_ex.c **** 
 177:Libraries/STM32F1xx_HAL_Driver/Src/stm32f1xx_hal_rtc_ex.c ****   hrtc->State = HAL_RTC_STATE_READY;
 172              		.loc 1 177 0
 173 003a 0122     		movs	r2, #1
 174 003c 5A74     		strb	r2, [r3, #17]
 178:Libraries/STM32F1xx_HAL_Driver/Src/stm32f1xx_hal_rtc_ex.c **** 
 179:Libraries/STM32F1xx_HAL_Driver/Src/stm32f1xx_hal_rtc_ex.c ****   /* Process Unlocked */
 180:Libraries/STM32F1xx_HAL_Driver/Src/stm32f1xx_hal_rtc_ex.c ****   __HAL_UNLOCK(hrtc);
 175              		.loc 1 180 0
 176 003e 0020     		movs	r0, #0
 177 0040 1874     		strb	r0, [r3, #16]
 181:Libraries/STM32F1xx_HAL_Driver/Src/stm32f1xx_hal_rtc_ex.c **** 
 182:Libraries/STM32F1xx_HAL_Driver/Src/stm32f1xx_hal_rtc_ex.c ****   return HAL_OK;
 183:Libraries/STM32F1xx_HAL_Driver/Src/stm32f1xx_hal_rtc_ex.c **** }
 178              		.loc 1 183 0
 179 0042 10BC     		pop	{r4}
 180              	.LCFI3:
 181              		.cfi_restore 4
 182              		.cfi_def_cfa_offset 0
 183 0044 7047     		bx	lr
 184              	.LVL14:
 185              	.L22:
 164:Libraries/STM32F1xx_HAL_Driver/Src/stm32f1xx_hal_rtc_ex.c ****     
 186              		.loc 1 164 0
 187 0046 0422     		movs	r2, #4
 188 0048 4274     		strb	r2, [r0, #17]
 167:Libraries/STM32F1xx_HAL_Driver/Src/stm32f1xx_hal_rtc_ex.c ****     
 189              		.loc 1 167 0
 190 004a 0022     		movs	r2, #0
 191 004c 0274     		strb	r2, [r0, #16]
 169:Libraries/STM32F1xx_HAL_Driver/Src/stm32f1xx_hal_rtc_ex.c ****   }
 192              		.loc 1 169 0
 193 004e 0120     		movs	r0, #1
 194              	.LVL15:
 195 0050 7047     		bx	lr
 196              	.LVL16:
 197              	.L16:
 150:Libraries/STM32F1xx_HAL_Driver/Src/stm32f1xx_hal_rtc_ex.c ****   }
 198              		.loc 1 150 0
 199 0052 0120     		movs	r0, #1
 200              	.LVL17:
 201 0054 7047     		bx	lr
 202              	.LVL18:
 203              	.L17:
 204 0056 0120     		movs	r0, #1
 205              	.LVL19:
 206 0058 7047     		bx	lr
 207              	.LVL20:
 208              	.L18:
ARM GAS  /tmp/cckmEZIO.s 			page 8


 158:Libraries/STM32F1xx_HAL_Driver/Src/stm32f1xx_hal_rtc_ex.c **** 
 209              		.loc 1 158 0
 210 005a 0220     		movs	r0, #2
 211              	.LVL21:
 212 005c 7047     		bx	lr
 213              	.L24:
 214 005e 00BF     		.align	2
 215              	.L23:
 216 0060 006C0040 		.word	1073769472
 217              		.cfi_endproc
 218              	.LFE65:
 220              		.section	.text.HAL_RTCEx_DeactivateTamper,"ax",%progbits
 221              		.align	1
 222              		.global	HAL_RTCEx_DeactivateTamper
 223              		.syntax unified
 224              		.thumb
 225              		.thumb_func
 226              		.fpu softvfp
 228              	HAL_RTCEx_DeactivateTamper:
 229              	.LFB66:
 184:Libraries/STM32F1xx_HAL_Driver/Src/stm32f1xx_hal_rtc_ex.c **** 
 185:Libraries/STM32F1xx_HAL_Driver/Src/stm32f1xx_hal_rtc_ex.c **** /**
 186:Libraries/STM32F1xx_HAL_Driver/Src/stm32f1xx_hal_rtc_ex.c ****   * @brief  Deactivates Tamper.
 187:Libraries/STM32F1xx_HAL_Driver/Src/stm32f1xx_hal_rtc_ex.c ****   * @param  hrtc: pointer to a RTC_HandleTypeDef structure that contains
 188:Libraries/STM32F1xx_HAL_Driver/Src/stm32f1xx_hal_rtc_ex.c ****   *                the configuration information for RTC.
 189:Libraries/STM32F1xx_HAL_Driver/Src/stm32f1xx_hal_rtc_ex.c ****   * @param  Tamper: Selected tamper pin.
 190:Libraries/STM32F1xx_HAL_Driver/Src/stm32f1xx_hal_rtc_ex.c ****   *          This parameter can be a value of @ref RTCEx_Tamper_Pins_Definitions
 191:Libraries/STM32F1xx_HAL_Driver/Src/stm32f1xx_hal_rtc_ex.c ****   * @retval HAL status
 192:Libraries/STM32F1xx_HAL_Driver/Src/stm32f1xx_hal_rtc_ex.c ****   */
 193:Libraries/STM32F1xx_HAL_Driver/Src/stm32f1xx_hal_rtc_ex.c **** HAL_StatusTypeDef HAL_RTCEx_DeactivateTamper(RTC_HandleTypeDef *hrtc, uint32_t Tamper)
 194:Libraries/STM32F1xx_HAL_Driver/Src/stm32f1xx_hal_rtc_ex.c **** {
 230              		.loc 1 194 0
 231              		.cfi_startproc
 232              		@ args = 0, pretend = 0, frame = 0
 233              		@ frame_needed = 0, uses_anonymous_args = 0
 234              		@ link register save eliminated.
 235              	.LVL22:
 195:Libraries/STM32F1xx_HAL_Driver/Src/stm32f1xx_hal_rtc_ex.c ****   /* Check input parameters */
 196:Libraries/STM32F1xx_HAL_Driver/Src/stm32f1xx_hal_rtc_ex.c ****   if(hrtc == NULL)
 236              		.loc 1 196 0
 237 0000 0246     		mov	r2, r0
 238 0002 D0B1     		cbz	r0, .L27
 197:Libraries/STM32F1xx_HAL_Driver/Src/stm32f1xx_hal_rtc_ex.c ****   {
 198:Libraries/STM32F1xx_HAL_Driver/Src/stm32f1xx_hal_rtc_ex.c ****      return HAL_ERROR;
 199:Libraries/STM32F1xx_HAL_Driver/Src/stm32f1xx_hal_rtc_ex.c ****   }
 200:Libraries/STM32F1xx_HAL_Driver/Src/stm32f1xx_hal_rtc_ex.c ****   /* Prevent unused argument(s) compilation warning */
 201:Libraries/STM32F1xx_HAL_Driver/Src/stm32f1xx_hal_rtc_ex.c ****   UNUSED(Tamper);
 202:Libraries/STM32F1xx_HAL_Driver/Src/stm32f1xx_hal_rtc_ex.c **** 
 203:Libraries/STM32F1xx_HAL_Driver/Src/stm32f1xx_hal_rtc_ex.c ****   assert_param(IS_RTC_TAMPER(Tamper));
 204:Libraries/STM32F1xx_HAL_Driver/Src/stm32f1xx_hal_rtc_ex.c **** 
 205:Libraries/STM32F1xx_HAL_Driver/Src/stm32f1xx_hal_rtc_ex.c ****   /* Process Locked */
 206:Libraries/STM32F1xx_HAL_Driver/Src/stm32f1xx_hal_rtc_ex.c ****   __HAL_LOCK(hrtc);
 239              		.loc 1 206 0
 240 0004 037C     		ldrb	r3, [r0, #16]	@ zero_extendqisi2
 241 0006 012B     		cmp	r3, #1
 242 0008 19D0     		beq	.L28
 243              		.loc 1 206 0 is_stmt 0 discriminator 2
ARM GAS  /tmp/cckmEZIO.s 			page 9


 244 000a 0120     		movs	r0, #1
 245              	.LVL23:
 246 000c 1074     		strb	r0, [r2, #16]
 207:Libraries/STM32F1xx_HAL_Driver/Src/stm32f1xx_hal_rtc_ex.c **** 
 208:Libraries/STM32F1xx_HAL_Driver/Src/stm32f1xx_hal_rtc_ex.c ****   hrtc->State = HAL_RTC_STATE_BUSY;
 247              		.loc 1 208 0 is_stmt 1 discriminator 2
 248 000e 0223     		movs	r3, #2
 249 0010 5374     		strb	r3, [r2, #17]
 209:Libraries/STM32F1xx_HAL_Driver/Src/stm32f1xx_hal_rtc_ex.c **** 
 210:Libraries/STM32F1xx_HAL_Driver/Src/stm32f1xx_hal_rtc_ex.c ****   /* Disable the selected Tamper pin */
 211:Libraries/STM32F1xx_HAL_Driver/Src/stm32f1xx_hal_rtc_ex.c ****   CLEAR_BIT(BKP->CR, BKP_CR_TPE);
 250              		.loc 1 211 0 discriminator 2
 251 0012 0C4B     		ldr	r3, .L29
 252 0014 196B     		ldr	r1, [r3, #48]
 253              	.LVL24:
 254 0016 21F00101 		bic	r1, r1, #1
 255 001a 1963     		str	r1, [r3, #48]
 212:Libraries/STM32F1xx_HAL_Driver/Src/stm32f1xx_hal_rtc_ex.c ****   
 213:Libraries/STM32F1xx_HAL_Driver/Src/stm32f1xx_hal_rtc_ex.c ****   /* Disable the Tamper Interrupt in the BKP->CSR */
 214:Libraries/STM32F1xx_HAL_Driver/Src/stm32f1xx_hal_rtc_ex.c ****   /* Configure the Tamper Interrupt in the BKP->CSR */
 215:Libraries/STM32F1xx_HAL_Driver/Src/stm32f1xx_hal_rtc_ex.c ****   __HAL_RTC_TAMPER_DISABLE_IT(hrtc, RTC_IT_TAMP1);
 256              		.loc 1 215 0 discriminator 2
 257 001c 596B     		ldr	r1, [r3, #52]
 258 001e 21F00401 		bic	r1, r1, #4
 259 0022 5963     		str	r1, [r3, #52]
 216:Libraries/STM32F1xx_HAL_Driver/Src/stm32f1xx_hal_rtc_ex.c ****   
 217:Libraries/STM32F1xx_HAL_Driver/Src/stm32f1xx_hal_rtc_ex.c ****   /* Clear the Tamper interrupt pending bit */
 218:Libraries/STM32F1xx_HAL_Driver/Src/stm32f1xx_hal_rtc_ex.c ****   __HAL_RTC_TAMPER_CLEAR_FLAG(hrtc, RTC_FLAG_TAMP1F);
 260              		.loc 1 218 0 discriminator 2
 261 0024 596B     		ldr	r1, [r3, #52]
 262 0026 41F00301 		orr	r1, r1, #3
 263 002a 5963     		str	r1, [r3, #52]
 219:Libraries/STM32F1xx_HAL_Driver/Src/stm32f1xx_hal_rtc_ex.c ****   SET_BIT(BKP->CSR, BKP_CSR_CTE);
 264              		.loc 1 219 0 discriminator 2
 265 002c 596B     		ldr	r1, [r3, #52]
 266 002e 0143     		orrs	r1, r1, r0
 267 0030 5963     		str	r1, [r3, #52]
 220:Libraries/STM32F1xx_HAL_Driver/Src/stm32f1xx_hal_rtc_ex.c ****   
 221:Libraries/STM32F1xx_HAL_Driver/Src/stm32f1xx_hal_rtc_ex.c ****   hrtc->State = HAL_RTC_STATE_READY;
 268              		.loc 1 221 0 discriminator 2
 269 0032 5074     		strb	r0, [r2, #17]
 222:Libraries/STM32F1xx_HAL_Driver/Src/stm32f1xx_hal_rtc_ex.c **** 
 223:Libraries/STM32F1xx_HAL_Driver/Src/stm32f1xx_hal_rtc_ex.c ****   /* Process Unlocked */
 224:Libraries/STM32F1xx_HAL_Driver/Src/stm32f1xx_hal_rtc_ex.c ****   __HAL_UNLOCK(hrtc);
 270              		.loc 1 224 0 discriminator 2
 271 0034 0020     		movs	r0, #0
 272 0036 1074     		strb	r0, [r2, #16]
 225:Libraries/STM32F1xx_HAL_Driver/Src/stm32f1xx_hal_rtc_ex.c **** 
 226:Libraries/STM32F1xx_HAL_Driver/Src/stm32f1xx_hal_rtc_ex.c ****   return HAL_OK;
 273              		.loc 1 226 0 discriminator 2
 274 0038 7047     		bx	lr
 275              	.LVL25:
 276              	.L27:
 198:Libraries/STM32F1xx_HAL_Driver/Src/stm32f1xx_hal_rtc_ex.c ****   }
 277              		.loc 1 198 0
 278 003a 0120     		movs	r0, #1
 279              	.LVL26:
ARM GAS  /tmp/cckmEZIO.s 			page 10


 280 003c 7047     		bx	lr
 281              	.LVL27:
 282              	.L28:
 206:Libraries/STM32F1xx_HAL_Driver/Src/stm32f1xx_hal_rtc_ex.c **** 
 283              		.loc 1 206 0
 284 003e 0220     		movs	r0, #2
 285              	.LVL28:
 227:Libraries/STM32F1xx_HAL_Driver/Src/stm32f1xx_hal_rtc_ex.c **** }
 286              		.loc 1 227 0
 287 0040 7047     		bx	lr
 288              	.L30:
 289 0042 00BF     		.align	2
 290              	.L29:
 291 0044 006C0040 		.word	1073769472
 292              		.cfi_endproc
 293              	.LFE66:
 295              		.section	.text.HAL_RTCEx_Tamper1EventCallback,"ax",%progbits
 296              		.align	1
 297              		.weak	HAL_RTCEx_Tamper1EventCallback
 298              		.syntax unified
 299              		.thumb
 300              		.thumb_func
 301              		.fpu softvfp
 303              	HAL_RTCEx_Tamper1EventCallback:
 304              	.LFB68:
 228:Libraries/STM32F1xx_HAL_Driver/Src/stm32f1xx_hal_rtc_ex.c **** 
 229:Libraries/STM32F1xx_HAL_Driver/Src/stm32f1xx_hal_rtc_ex.c **** /**
 230:Libraries/STM32F1xx_HAL_Driver/Src/stm32f1xx_hal_rtc_ex.c ****   * @brief  This function handles Tamper interrupt request.
 231:Libraries/STM32F1xx_HAL_Driver/Src/stm32f1xx_hal_rtc_ex.c ****   * @param  hrtc: pointer to a RTC_HandleTypeDef structure that contains
 232:Libraries/STM32F1xx_HAL_Driver/Src/stm32f1xx_hal_rtc_ex.c ****   *                the configuration information for RTC.
 233:Libraries/STM32F1xx_HAL_Driver/Src/stm32f1xx_hal_rtc_ex.c ****   * @retval None
 234:Libraries/STM32F1xx_HAL_Driver/Src/stm32f1xx_hal_rtc_ex.c ****   */
 235:Libraries/STM32F1xx_HAL_Driver/Src/stm32f1xx_hal_rtc_ex.c **** void HAL_RTCEx_TamperIRQHandler(RTC_HandleTypeDef *hrtc)
 236:Libraries/STM32F1xx_HAL_Driver/Src/stm32f1xx_hal_rtc_ex.c **** {  
 237:Libraries/STM32F1xx_HAL_Driver/Src/stm32f1xx_hal_rtc_ex.c ****   /* Get the status of the Interrupt */
 238:Libraries/STM32F1xx_HAL_Driver/Src/stm32f1xx_hal_rtc_ex.c ****   if(__HAL_RTC_TAMPER_GET_IT_SOURCE(hrtc, RTC_IT_TAMP1))
 239:Libraries/STM32F1xx_HAL_Driver/Src/stm32f1xx_hal_rtc_ex.c ****   {
 240:Libraries/STM32F1xx_HAL_Driver/Src/stm32f1xx_hal_rtc_ex.c ****     /* Get the TAMPER Interrupt enable bit and pending bit */
 241:Libraries/STM32F1xx_HAL_Driver/Src/stm32f1xx_hal_rtc_ex.c ****     if(__HAL_RTC_TAMPER_GET_FLAG(hrtc, RTC_FLAG_TAMP1F) != (uint32_t)RESET)
 242:Libraries/STM32F1xx_HAL_Driver/Src/stm32f1xx_hal_rtc_ex.c ****     {
 243:Libraries/STM32F1xx_HAL_Driver/Src/stm32f1xx_hal_rtc_ex.c ****       /* Tamper callback */ 
 244:Libraries/STM32F1xx_HAL_Driver/Src/stm32f1xx_hal_rtc_ex.c ****       HAL_RTCEx_Tamper1EventCallback(hrtc);
 245:Libraries/STM32F1xx_HAL_Driver/Src/stm32f1xx_hal_rtc_ex.c ****   
 246:Libraries/STM32F1xx_HAL_Driver/Src/stm32f1xx_hal_rtc_ex.c ****       /* Clear the Tamper interrupt pending bit */
 247:Libraries/STM32F1xx_HAL_Driver/Src/stm32f1xx_hal_rtc_ex.c ****       __HAL_RTC_TAMPER_CLEAR_FLAG(hrtc,RTC_FLAG_TAMP1F);
 248:Libraries/STM32F1xx_HAL_Driver/Src/stm32f1xx_hal_rtc_ex.c ****     }
 249:Libraries/STM32F1xx_HAL_Driver/Src/stm32f1xx_hal_rtc_ex.c ****   }
 250:Libraries/STM32F1xx_HAL_Driver/Src/stm32f1xx_hal_rtc_ex.c **** 
 251:Libraries/STM32F1xx_HAL_Driver/Src/stm32f1xx_hal_rtc_ex.c ****   /* Change RTC state */
 252:Libraries/STM32F1xx_HAL_Driver/Src/stm32f1xx_hal_rtc_ex.c ****   hrtc->State = HAL_RTC_STATE_READY;
 253:Libraries/STM32F1xx_HAL_Driver/Src/stm32f1xx_hal_rtc_ex.c **** }
 254:Libraries/STM32F1xx_HAL_Driver/Src/stm32f1xx_hal_rtc_ex.c **** 
 255:Libraries/STM32F1xx_HAL_Driver/Src/stm32f1xx_hal_rtc_ex.c **** /**
 256:Libraries/STM32F1xx_HAL_Driver/Src/stm32f1xx_hal_rtc_ex.c ****   * @brief  Tamper 1 callback. 
 257:Libraries/STM32F1xx_HAL_Driver/Src/stm32f1xx_hal_rtc_ex.c ****   * @param  hrtc: pointer to a RTC_HandleTypeDef structure that contains
 258:Libraries/STM32F1xx_HAL_Driver/Src/stm32f1xx_hal_rtc_ex.c ****   *                the configuration information for RTC.
 259:Libraries/STM32F1xx_HAL_Driver/Src/stm32f1xx_hal_rtc_ex.c ****   * @retval None
ARM GAS  /tmp/cckmEZIO.s 			page 11


 260:Libraries/STM32F1xx_HAL_Driver/Src/stm32f1xx_hal_rtc_ex.c ****   */
 261:Libraries/STM32F1xx_HAL_Driver/Src/stm32f1xx_hal_rtc_ex.c **** __weak void HAL_RTCEx_Tamper1EventCallback(RTC_HandleTypeDef *hrtc)
 262:Libraries/STM32F1xx_HAL_Driver/Src/stm32f1xx_hal_rtc_ex.c **** {
 305              		.loc 1 262 0
 306              		.cfi_startproc
 307              		@ args = 0, pretend = 0, frame = 0
 308              		@ frame_needed = 0, uses_anonymous_args = 0
 309              		@ link register save eliminated.
 310              	.LVL29:
 311 0000 7047     		bx	lr
 312              		.cfi_endproc
 313              	.LFE68:
 315              		.section	.text.HAL_RTCEx_TamperIRQHandler,"ax",%progbits
 316              		.align	1
 317              		.global	HAL_RTCEx_TamperIRQHandler
 318              		.syntax unified
 319              		.thumb
 320              		.thumb_func
 321              		.fpu softvfp
 323              	HAL_RTCEx_TamperIRQHandler:
 324              	.LFB67:
 236:Libraries/STM32F1xx_HAL_Driver/Src/stm32f1xx_hal_rtc_ex.c ****   /* Get the status of the Interrupt */
 325              		.loc 1 236 0
 326              		.cfi_startproc
 327              		@ args = 0, pretend = 0, frame = 0
 328              		@ frame_needed = 0, uses_anonymous_args = 0
 329              	.LVL30:
 236:Libraries/STM32F1xx_HAL_Driver/Src/stm32f1xx_hal_rtc_ex.c ****   /* Get the status of the Interrupt */
 330              		.loc 1 236 0
 331 0000 10B5     		push	{r4, lr}
 332              	.LCFI4:
 333              		.cfi_def_cfa_offset 8
 334              		.cfi_offset 4, -8
 335              		.cfi_offset 14, -4
 336 0002 0446     		mov	r4, r0
 238:Libraries/STM32F1xx_HAL_Driver/Src/stm32f1xx_hal_rtc_ex.c ****   {
 337              		.loc 1 238 0
 338 0004 0A4B     		ldr	r3, .L36
 339 0006 5B6B     		ldr	r3, [r3, #52]
 340 0008 13F0040F 		tst	r3, #4
 341 000c 04D0     		beq	.L33
 241:Libraries/STM32F1xx_HAL_Driver/Src/stm32f1xx_hal_rtc_ex.c ****     {
 342              		.loc 1 241 0
 343 000e 084B     		ldr	r3, .L36
 344 0010 5B6B     		ldr	r3, [r3, #52]
 345 0012 13F4807F 		tst	r3, #256
 346 0016 02D1     		bne	.L35
 347              	.LVL31:
 348              	.L33:
 252:Libraries/STM32F1xx_HAL_Driver/Src/stm32f1xx_hal_rtc_ex.c **** }
 349              		.loc 1 252 0
 350 0018 0123     		movs	r3, #1
 351 001a 6374     		strb	r3, [r4, #17]
 352 001c 10BD     		pop	{r4, pc}
 353              	.LVL32:
 354              	.L35:
 244:Libraries/STM32F1xx_HAL_Driver/Src/stm32f1xx_hal_rtc_ex.c ****   
ARM GAS  /tmp/cckmEZIO.s 			page 12


 355              		.loc 1 244 0
 356 001e FFF7FEFF 		bl	HAL_RTCEx_Tamper1EventCallback
 357              	.LVL33:
 247:Libraries/STM32F1xx_HAL_Driver/Src/stm32f1xx_hal_rtc_ex.c ****     }
 358              		.loc 1 247 0
 359 0022 034A     		ldr	r2, .L36
 360 0024 536B     		ldr	r3, [r2, #52]
 361 0026 43F00303 		orr	r3, r3, #3
 362 002a 5363     		str	r3, [r2, #52]
 363 002c F4E7     		b	.L33
 364              	.L37:
 365 002e 00BF     		.align	2
 366              	.L36:
 367 0030 006C0040 		.word	1073769472
 368              		.cfi_endproc
 369              	.LFE67:
 371              		.section	.text.HAL_RTCEx_PollForTamper1Event,"ax",%progbits
 372              		.align	1
 373              		.global	HAL_RTCEx_PollForTamper1Event
 374              		.syntax unified
 375              		.thumb
 376              		.thumb_func
 377              		.fpu softvfp
 379              	HAL_RTCEx_PollForTamper1Event:
 380              	.LFB69:
 263:Libraries/STM32F1xx_HAL_Driver/Src/stm32f1xx_hal_rtc_ex.c ****   /* Prevent unused argument(s) compilation warning */
 264:Libraries/STM32F1xx_HAL_Driver/Src/stm32f1xx_hal_rtc_ex.c ****   UNUSED(hrtc);
 265:Libraries/STM32F1xx_HAL_Driver/Src/stm32f1xx_hal_rtc_ex.c ****   /* NOTE : This function Should not be modified, when the callback is needed,
 266:Libraries/STM32F1xx_HAL_Driver/Src/stm32f1xx_hal_rtc_ex.c ****             the HAL_RTCEx_Tamper1EventCallback could be implemented in the user file
 267:Libraries/STM32F1xx_HAL_Driver/Src/stm32f1xx_hal_rtc_ex.c ****    */
 268:Libraries/STM32F1xx_HAL_Driver/Src/stm32f1xx_hal_rtc_ex.c **** }
 269:Libraries/STM32F1xx_HAL_Driver/Src/stm32f1xx_hal_rtc_ex.c **** 
 270:Libraries/STM32F1xx_HAL_Driver/Src/stm32f1xx_hal_rtc_ex.c **** /**
 271:Libraries/STM32F1xx_HAL_Driver/Src/stm32f1xx_hal_rtc_ex.c ****   * @brief  This function handles Tamper1 Polling.
 272:Libraries/STM32F1xx_HAL_Driver/Src/stm32f1xx_hal_rtc_ex.c ****   * @param  hrtc: pointer to a RTC_HandleTypeDef structure that contains
 273:Libraries/STM32F1xx_HAL_Driver/Src/stm32f1xx_hal_rtc_ex.c ****   *                the configuration information for RTC.
 274:Libraries/STM32F1xx_HAL_Driver/Src/stm32f1xx_hal_rtc_ex.c ****   * @param  Timeout: Timeout duration
 275:Libraries/STM32F1xx_HAL_Driver/Src/stm32f1xx_hal_rtc_ex.c ****   * @retval HAL status
 276:Libraries/STM32F1xx_HAL_Driver/Src/stm32f1xx_hal_rtc_ex.c ****   */
 277:Libraries/STM32F1xx_HAL_Driver/Src/stm32f1xx_hal_rtc_ex.c **** HAL_StatusTypeDef HAL_RTCEx_PollForTamper1Event(RTC_HandleTypeDef *hrtc, uint32_t Timeout)
 278:Libraries/STM32F1xx_HAL_Driver/Src/stm32f1xx_hal_rtc_ex.c **** {  
 381              		.loc 1 278 0
 382              		.cfi_startproc
 383              		@ args = 0, pretend = 0, frame = 0
 384              		@ frame_needed = 0, uses_anonymous_args = 0
 385              	.LVL34:
 386 0000 70B5     		push	{r4, r5, r6, lr}
 387              	.LCFI5:
 388              		.cfi_def_cfa_offset 16
 389              		.cfi_offset 4, -16
 390              		.cfi_offset 5, -12
 391              		.cfi_offset 6, -8
 392              		.cfi_offset 14, -4
 393 0002 0546     		mov	r5, r0
 394 0004 0C46     		mov	r4, r1
 279:Libraries/STM32F1xx_HAL_Driver/Src/stm32f1xx_hal_rtc_ex.c ****   uint32_t tickstart = HAL_GetTick();
 395              		.loc 1 279 0
ARM GAS  /tmp/cckmEZIO.s 			page 13


 396 0006 FFF7FEFF 		bl	HAL_GetTick
 397              	.LVL35:
 398 000a 0646     		mov	r6, r0
 399              	.LVL36:
 280:Libraries/STM32F1xx_HAL_Driver/Src/stm32f1xx_hal_rtc_ex.c **** 
 281:Libraries/STM32F1xx_HAL_Driver/Src/stm32f1xx_hal_rtc_ex.c ****   /* Check input parameters */
 282:Libraries/STM32F1xx_HAL_Driver/Src/stm32f1xx_hal_rtc_ex.c ****   if(hrtc == NULL)
 400              		.loc 1 282 0
 401 000c CDB1     		cbz	r5, .L46
 402              	.LVL37:
 403              	.L41:
 283:Libraries/STM32F1xx_HAL_Driver/Src/stm32f1xx_hal_rtc_ex.c ****   {
 284:Libraries/STM32F1xx_HAL_Driver/Src/stm32f1xx_hal_rtc_ex.c ****      return HAL_ERROR;
 285:Libraries/STM32F1xx_HAL_Driver/Src/stm32f1xx_hal_rtc_ex.c ****   }
 286:Libraries/STM32F1xx_HAL_Driver/Src/stm32f1xx_hal_rtc_ex.c ****   
 287:Libraries/STM32F1xx_HAL_Driver/Src/stm32f1xx_hal_rtc_ex.c ****   /* Get the status of the Interrupt */
 288:Libraries/STM32F1xx_HAL_Driver/Src/stm32f1xx_hal_rtc_ex.c ****   while(__HAL_RTC_TAMPER_GET_FLAG(hrtc,RTC_FLAG_TAMP1F)== RESET)
 404              		.loc 1 288 0
 405 000e 0E4B     		ldr	r3, .L48
 406 0010 5B6B     		ldr	r3, [r3, #52]
 407 0012 13F4807F 		tst	r3, #256
 408 0016 0BD1     		bne	.L47
 289:Libraries/STM32F1xx_HAL_Driver/Src/stm32f1xx_hal_rtc_ex.c ****   {
 290:Libraries/STM32F1xx_HAL_Driver/Src/stm32f1xx_hal_rtc_ex.c ****     if(Timeout != HAL_MAX_DELAY)
 409              		.loc 1 290 0
 410 0018 B4F1FF3F 		cmp	r4, #-1
 411 001c F7D0     		beq	.L41
 291:Libraries/STM32F1xx_HAL_Driver/Src/stm32f1xx_hal_rtc_ex.c ****     {
 292:Libraries/STM32F1xx_HAL_Driver/Src/stm32f1xx_hal_rtc_ex.c ****       if((Timeout == 0U)||((HAL_GetTick() - tickstart ) > Timeout))
 412              		.loc 1 292 0
 413 001e 24B1     		cbz	r4, .L42
 414              		.loc 1 292 0 is_stmt 0 discriminator 1
 415 0020 FFF7FEFF 		bl	HAL_GetTick
 416              	.LVL38:
 417 0024 801B     		subs	r0, r0, r6
 418 0026 8442     		cmp	r4, r0
 419 0028 F1D2     		bcs	.L41
 420              	.L42:
 293:Libraries/STM32F1xx_HAL_Driver/Src/stm32f1xx_hal_rtc_ex.c ****       {
 294:Libraries/STM32F1xx_HAL_Driver/Src/stm32f1xx_hal_rtc_ex.c ****         hrtc->State = HAL_RTC_STATE_TIMEOUT;
 421              		.loc 1 294 0 is_stmt 1
 422 002a 0320     		movs	r0, #3
 423 002c 6874     		strb	r0, [r5, #17]
 295:Libraries/STM32F1xx_HAL_Driver/Src/stm32f1xx_hal_rtc_ex.c ****         return HAL_TIMEOUT;
 424              		.loc 1 295 0
 425 002e 70BD     		pop	{r4, r5, r6, pc}
 426              	.LVL39:
 427              	.L47:
 296:Libraries/STM32F1xx_HAL_Driver/Src/stm32f1xx_hal_rtc_ex.c ****       }
 297:Libraries/STM32F1xx_HAL_Driver/Src/stm32f1xx_hal_rtc_ex.c ****     }
 298:Libraries/STM32F1xx_HAL_Driver/Src/stm32f1xx_hal_rtc_ex.c ****   }
 299:Libraries/STM32F1xx_HAL_Driver/Src/stm32f1xx_hal_rtc_ex.c **** 
 300:Libraries/STM32F1xx_HAL_Driver/Src/stm32f1xx_hal_rtc_ex.c ****   /* Clear the Tamper Flag */
 301:Libraries/STM32F1xx_HAL_Driver/Src/stm32f1xx_hal_rtc_ex.c ****   __HAL_RTC_TAMPER_CLEAR_FLAG(hrtc,RTC_FLAG_TAMP1F);
 428              		.loc 1 301 0
 429 0030 054A     		ldr	r2, .L48
 430 0032 536B     		ldr	r3, [r2, #52]
ARM GAS  /tmp/cckmEZIO.s 			page 14


 431 0034 43F00303 		orr	r3, r3, #3
 432 0038 5363     		str	r3, [r2, #52]
 302:Libraries/STM32F1xx_HAL_Driver/Src/stm32f1xx_hal_rtc_ex.c **** 
 303:Libraries/STM32F1xx_HAL_Driver/Src/stm32f1xx_hal_rtc_ex.c ****   /* Change RTC state */
 304:Libraries/STM32F1xx_HAL_Driver/Src/stm32f1xx_hal_rtc_ex.c ****   hrtc->State = HAL_RTC_STATE_READY;
 433              		.loc 1 304 0
 434 003a 0123     		movs	r3, #1
 435 003c 6B74     		strb	r3, [r5, #17]
 305:Libraries/STM32F1xx_HAL_Driver/Src/stm32f1xx_hal_rtc_ex.c **** 
 306:Libraries/STM32F1xx_HAL_Driver/Src/stm32f1xx_hal_rtc_ex.c ****   return HAL_OK;
 436              		.loc 1 306 0
 437 003e 0020     		movs	r0, #0
 438 0040 70BD     		pop	{r4, r5, r6, pc}
 439              	.LVL40:
 440              	.L46:
 284:Libraries/STM32F1xx_HAL_Driver/Src/stm32f1xx_hal_rtc_ex.c ****   }
 441              		.loc 1 284 0
 442 0042 0120     		movs	r0, #1
 443              	.LVL41:
 307:Libraries/STM32F1xx_HAL_Driver/Src/stm32f1xx_hal_rtc_ex.c **** }
 444              		.loc 1 307 0
 445 0044 70BD     		pop	{r4, r5, r6, pc}
 446              	.LVL42:
 447              	.L49:
 448 0046 00BF     		.align	2
 449              	.L48:
 450 0048 006C0040 		.word	1073769472
 451              		.cfi_endproc
 452              	.LFE69:
 454              		.section	.text.HAL_RTCEx_SetSecond_IT,"ax",%progbits
 455              		.align	1
 456              		.global	HAL_RTCEx_SetSecond_IT
 457              		.syntax unified
 458              		.thumb
 459              		.thumb_func
 460              		.fpu softvfp
 462              	HAL_RTCEx_SetSecond_IT:
 463              	.LFB70:
 308:Libraries/STM32F1xx_HAL_Driver/Src/stm32f1xx_hal_rtc_ex.c **** 
 309:Libraries/STM32F1xx_HAL_Driver/Src/stm32f1xx_hal_rtc_ex.c **** /**
 310:Libraries/STM32F1xx_HAL_Driver/Src/stm32f1xx_hal_rtc_ex.c ****   * @}
 311:Libraries/STM32F1xx_HAL_Driver/Src/stm32f1xx_hal_rtc_ex.c ****   */
 312:Libraries/STM32F1xx_HAL_Driver/Src/stm32f1xx_hal_rtc_ex.c ****   
 313:Libraries/STM32F1xx_HAL_Driver/Src/stm32f1xx_hal_rtc_ex.c **** /** @defgroup RTCEx_Exported_Functions_Group2 RTC Second functions
 314:Libraries/STM32F1xx_HAL_Driver/Src/stm32f1xx_hal_rtc_ex.c ****   * @brief    RTC Second functions
 315:Libraries/STM32F1xx_HAL_Driver/Src/stm32f1xx_hal_rtc_ex.c ****   *
 316:Libraries/STM32F1xx_HAL_Driver/Src/stm32f1xx_hal_rtc_ex.c **** @verbatim   
 317:Libraries/STM32F1xx_HAL_Driver/Src/stm32f1xx_hal_rtc_ex.c ****  ===============================================================================
 318:Libraries/STM32F1xx_HAL_Driver/Src/stm32f1xx_hal_rtc_ex.c ****                  ##### RTC Second functions #####
 319:Libraries/STM32F1xx_HAL_Driver/Src/stm32f1xx_hal_rtc_ex.c ****  ===============================================================================  
 320:Libraries/STM32F1xx_HAL_Driver/Src/stm32f1xx_hal_rtc_ex.c ****  
 321:Libraries/STM32F1xx_HAL_Driver/Src/stm32f1xx_hal_rtc_ex.c ****  [..] This section provides functions implementing second interupt handlers
 322:Libraries/STM32F1xx_HAL_Driver/Src/stm32f1xx_hal_rtc_ex.c **** 
 323:Libraries/STM32F1xx_HAL_Driver/Src/stm32f1xx_hal_rtc_ex.c **** @endverbatim
 324:Libraries/STM32F1xx_HAL_Driver/Src/stm32f1xx_hal_rtc_ex.c ****   * @{
 325:Libraries/STM32F1xx_HAL_Driver/Src/stm32f1xx_hal_rtc_ex.c ****   */
 326:Libraries/STM32F1xx_HAL_Driver/Src/stm32f1xx_hal_rtc_ex.c **** 
ARM GAS  /tmp/cckmEZIO.s 			page 15


 327:Libraries/STM32F1xx_HAL_Driver/Src/stm32f1xx_hal_rtc_ex.c **** /**
 328:Libraries/STM32F1xx_HAL_Driver/Src/stm32f1xx_hal_rtc_ex.c ****   * @brief  Sets Interrupt for second
 329:Libraries/STM32F1xx_HAL_Driver/Src/stm32f1xx_hal_rtc_ex.c ****   * @param  hrtc: pointer to a RTC_HandleTypeDef structure that contains
 330:Libraries/STM32F1xx_HAL_Driver/Src/stm32f1xx_hal_rtc_ex.c ****   *                the configuration information for RTC.
 331:Libraries/STM32F1xx_HAL_Driver/Src/stm32f1xx_hal_rtc_ex.c ****   * @retval HAL status
 332:Libraries/STM32F1xx_HAL_Driver/Src/stm32f1xx_hal_rtc_ex.c ****   */
 333:Libraries/STM32F1xx_HAL_Driver/Src/stm32f1xx_hal_rtc_ex.c **** HAL_StatusTypeDef HAL_RTCEx_SetSecond_IT(RTC_HandleTypeDef *hrtc)
 334:Libraries/STM32F1xx_HAL_Driver/Src/stm32f1xx_hal_rtc_ex.c **** {
 464              		.loc 1 334 0
 465              		.cfi_startproc
 466              		@ args = 0, pretend = 0, frame = 0
 467              		@ frame_needed = 0, uses_anonymous_args = 0
 468              		@ link register save eliminated.
 469              	.LVL43:
 335:Libraries/STM32F1xx_HAL_Driver/Src/stm32f1xx_hal_rtc_ex.c ****   /* Check input parameters */
 336:Libraries/STM32F1xx_HAL_Driver/Src/stm32f1xx_hal_rtc_ex.c ****   if(hrtc == NULL)
 470              		.loc 1 336 0
 471 0000 0346     		mov	r3, r0
 472 0002 70B1     		cbz	r0, .L52
 337:Libraries/STM32F1xx_HAL_Driver/Src/stm32f1xx_hal_rtc_ex.c ****   {
 338:Libraries/STM32F1xx_HAL_Driver/Src/stm32f1xx_hal_rtc_ex.c ****      return HAL_ERROR;
 339:Libraries/STM32F1xx_HAL_Driver/Src/stm32f1xx_hal_rtc_ex.c ****   }
 340:Libraries/STM32F1xx_HAL_Driver/Src/stm32f1xx_hal_rtc_ex.c ****   
 341:Libraries/STM32F1xx_HAL_Driver/Src/stm32f1xx_hal_rtc_ex.c ****   /* Process Locked */
 342:Libraries/STM32F1xx_HAL_Driver/Src/stm32f1xx_hal_rtc_ex.c ****   __HAL_LOCK(hrtc);
 473              		.loc 1 342 0
 474 0004 027C     		ldrb	r2, [r0, #16]	@ zero_extendqisi2
 475 0006 012A     		cmp	r2, #1
 476 0008 0DD0     		beq	.L53
 477              		.loc 1 342 0 is_stmt 0 discriminator 2
 478 000a 0121     		movs	r1, #1
 479 000c 0174     		strb	r1, [r0, #16]
 343:Libraries/STM32F1xx_HAL_Driver/Src/stm32f1xx_hal_rtc_ex.c **** 
 344:Libraries/STM32F1xx_HAL_Driver/Src/stm32f1xx_hal_rtc_ex.c ****   hrtc->State = HAL_RTC_STATE_BUSY;
 480              		.loc 1 344 0 is_stmt 1 discriminator 2
 481 000e 0222     		movs	r2, #2
 482 0010 4274     		strb	r2, [r0, #17]
 345:Libraries/STM32F1xx_HAL_Driver/Src/stm32f1xx_hal_rtc_ex.c **** 
 346:Libraries/STM32F1xx_HAL_Driver/Src/stm32f1xx_hal_rtc_ex.c ****   /* Enable Second interuption */
 347:Libraries/STM32F1xx_HAL_Driver/Src/stm32f1xx_hal_rtc_ex.c ****   __HAL_RTC_SECOND_ENABLE_IT(hrtc, RTC_IT_SEC);
 483              		.loc 1 347 0 discriminator 2
 484 0012 0068     		ldr	r0, [r0]
 485              	.LVL44:
 486 0014 0268     		ldr	r2, [r0]
 487 0016 0A43     		orrs	r2, r2, r1
 488 0018 0260     		str	r2, [r0]
 348:Libraries/STM32F1xx_HAL_Driver/Src/stm32f1xx_hal_rtc_ex.c ****   
 349:Libraries/STM32F1xx_HAL_Driver/Src/stm32f1xx_hal_rtc_ex.c ****   hrtc->State = HAL_RTC_STATE_READY;
 489              		.loc 1 349 0 discriminator 2
 490 001a 5974     		strb	r1, [r3, #17]
 350:Libraries/STM32F1xx_HAL_Driver/Src/stm32f1xx_hal_rtc_ex.c **** 
 351:Libraries/STM32F1xx_HAL_Driver/Src/stm32f1xx_hal_rtc_ex.c ****   /* Process Unlocked */
 352:Libraries/STM32F1xx_HAL_Driver/Src/stm32f1xx_hal_rtc_ex.c ****   __HAL_UNLOCK(hrtc);
 491              		.loc 1 352 0 discriminator 2
 492 001c 0020     		movs	r0, #0
 493 001e 1874     		strb	r0, [r3, #16]
 353:Libraries/STM32F1xx_HAL_Driver/Src/stm32f1xx_hal_rtc_ex.c **** 
ARM GAS  /tmp/cckmEZIO.s 			page 16


 354:Libraries/STM32F1xx_HAL_Driver/Src/stm32f1xx_hal_rtc_ex.c ****   return HAL_OK;
 494              		.loc 1 354 0 discriminator 2
 495 0020 7047     		bx	lr
 496              	.LVL45:
 497              	.L52:
 338:Libraries/STM32F1xx_HAL_Driver/Src/stm32f1xx_hal_rtc_ex.c ****   }
 498              		.loc 1 338 0
 499 0022 0120     		movs	r0, #1
 500              	.LVL46:
 501 0024 7047     		bx	lr
 502              	.LVL47:
 503              	.L53:
 342:Libraries/STM32F1xx_HAL_Driver/Src/stm32f1xx_hal_rtc_ex.c **** 
 504              		.loc 1 342 0
 505 0026 0220     		movs	r0, #2
 506              	.LVL48:
 355:Libraries/STM32F1xx_HAL_Driver/Src/stm32f1xx_hal_rtc_ex.c **** }
 507              		.loc 1 355 0
 508 0028 7047     		bx	lr
 509              		.cfi_endproc
 510              	.LFE70:
 512              		.section	.text.HAL_RTCEx_DeactivateSecond,"ax",%progbits
 513              		.align	1
 514              		.global	HAL_RTCEx_DeactivateSecond
 515              		.syntax unified
 516              		.thumb
 517              		.thumb_func
 518              		.fpu softvfp
 520              	HAL_RTCEx_DeactivateSecond:
 521              	.LFB71:
 356:Libraries/STM32F1xx_HAL_Driver/Src/stm32f1xx_hal_rtc_ex.c **** 
 357:Libraries/STM32F1xx_HAL_Driver/Src/stm32f1xx_hal_rtc_ex.c **** /**
 358:Libraries/STM32F1xx_HAL_Driver/Src/stm32f1xx_hal_rtc_ex.c ****   * @brief  Deactivates Second.
 359:Libraries/STM32F1xx_HAL_Driver/Src/stm32f1xx_hal_rtc_ex.c ****   * @param  hrtc: pointer to a RTC_HandleTypeDef structure that contains
 360:Libraries/STM32F1xx_HAL_Driver/Src/stm32f1xx_hal_rtc_ex.c ****   *                the configuration information for RTC.
 361:Libraries/STM32F1xx_HAL_Driver/Src/stm32f1xx_hal_rtc_ex.c ****   * @retval HAL status
 362:Libraries/STM32F1xx_HAL_Driver/Src/stm32f1xx_hal_rtc_ex.c ****   */
 363:Libraries/STM32F1xx_HAL_Driver/Src/stm32f1xx_hal_rtc_ex.c **** HAL_StatusTypeDef HAL_RTCEx_DeactivateSecond(RTC_HandleTypeDef *hrtc)
 364:Libraries/STM32F1xx_HAL_Driver/Src/stm32f1xx_hal_rtc_ex.c **** {
 522              		.loc 1 364 0
 523              		.cfi_startproc
 524              		@ args = 0, pretend = 0, frame = 0
 525              		@ frame_needed = 0, uses_anonymous_args = 0
 526              		@ link register save eliminated.
 527              	.LVL49:
 365:Libraries/STM32F1xx_HAL_Driver/Src/stm32f1xx_hal_rtc_ex.c ****   /* Check input parameters */
 366:Libraries/STM32F1xx_HAL_Driver/Src/stm32f1xx_hal_rtc_ex.c ****   if(hrtc == NULL)
 528              		.loc 1 366 0
 529 0000 0346     		mov	r3, r0
 530 0002 78B1     		cbz	r0, .L56
 367:Libraries/STM32F1xx_HAL_Driver/Src/stm32f1xx_hal_rtc_ex.c ****   {
 368:Libraries/STM32F1xx_HAL_Driver/Src/stm32f1xx_hal_rtc_ex.c ****      return HAL_ERROR;
 369:Libraries/STM32F1xx_HAL_Driver/Src/stm32f1xx_hal_rtc_ex.c ****   }
 370:Libraries/STM32F1xx_HAL_Driver/Src/stm32f1xx_hal_rtc_ex.c ****   
 371:Libraries/STM32F1xx_HAL_Driver/Src/stm32f1xx_hal_rtc_ex.c ****   /* Process Locked */
 372:Libraries/STM32F1xx_HAL_Driver/Src/stm32f1xx_hal_rtc_ex.c ****   __HAL_LOCK(hrtc);
 531              		.loc 1 372 0
ARM GAS  /tmp/cckmEZIO.s 			page 17


 532 0004 027C     		ldrb	r2, [r0, #16]	@ zero_extendqisi2
 533 0006 012A     		cmp	r2, #1
 534 0008 0ED0     		beq	.L57
 535              		.loc 1 372 0 is_stmt 0 discriminator 2
 536 000a 0121     		movs	r1, #1
 537 000c 0174     		strb	r1, [r0, #16]
 373:Libraries/STM32F1xx_HAL_Driver/Src/stm32f1xx_hal_rtc_ex.c **** 
 374:Libraries/STM32F1xx_HAL_Driver/Src/stm32f1xx_hal_rtc_ex.c ****   hrtc->State = HAL_RTC_STATE_BUSY;
 538              		.loc 1 374 0 is_stmt 1 discriminator 2
 539 000e 0222     		movs	r2, #2
 540 0010 4274     		strb	r2, [r0, #17]
 375:Libraries/STM32F1xx_HAL_Driver/Src/stm32f1xx_hal_rtc_ex.c **** 
 376:Libraries/STM32F1xx_HAL_Driver/Src/stm32f1xx_hal_rtc_ex.c ****   /* Deactivate Second interuption*/ 
 377:Libraries/STM32F1xx_HAL_Driver/Src/stm32f1xx_hal_rtc_ex.c ****   __HAL_RTC_SECOND_DISABLE_IT(hrtc, RTC_IT_SEC);
 541              		.loc 1 377 0 discriminator 2
 542 0012 0068     		ldr	r0, [r0]
 543              	.LVL50:
 544 0014 0268     		ldr	r2, [r0]
 545 0016 22F00102 		bic	r2, r2, #1
 546 001a 0260     		str	r2, [r0]
 378:Libraries/STM32F1xx_HAL_Driver/Src/stm32f1xx_hal_rtc_ex.c ****   
 379:Libraries/STM32F1xx_HAL_Driver/Src/stm32f1xx_hal_rtc_ex.c ****   hrtc->State = HAL_RTC_STATE_READY;
 547              		.loc 1 379 0 discriminator 2
 548 001c 5974     		strb	r1, [r3, #17]
 380:Libraries/STM32F1xx_HAL_Driver/Src/stm32f1xx_hal_rtc_ex.c **** 
 381:Libraries/STM32F1xx_HAL_Driver/Src/stm32f1xx_hal_rtc_ex.c ****   /* Process Unlocked */
 382:Libraries/STM32F1xx_HAL_Driver/Src/stm32f1xx_hal_rtc_ex.c ****   __HAL_UNLOCK(hrtc);
 549              		.loc 1 382 0 discriminator 2
 550 001e 0020     		movs	r0, #0
 551 0020 1874     		strb	r0, [r3, #16]
 383:Libraries/STM32F1xx_HAL_Driver/Src/stm32f1xx_hal_rtc_ex.c **** 
 384:Libraries/STM32F1xx_HAL_Driver/Src/stm32f1xx_hal_rtc_ex.c ****   return HAL_OK;
 552              		.loc 1 384 0 discriminator 2
 553 0022 7047     		bx	lr
 554              	.LVL51:
 555              	.L56:
 368:Libraries/STM32F1xx_HAL_Driver/Src/stm32f1xx_hal_rtc_ex.c ****   }
 556              		.loc 1 368 0
 557 0024 0120     		movs	r0, #1
 558              	.LVL52:
 559 0026 7047     		bx	lr
 560              	.LVL53:
 561              	.L57:
 372:Libraries/STM32F1xx_HAL_Driver/Src/stm32f1xx_hal_rtc_ex.c **** 
 562              		.loc 1 372 0
 563 0028 0220     		movs	r0, #2
 564              	.LVL54:
 385:Libraries/STM32F1xx_HAL_Driver/Src/stm32f1xx_hal_rtc_ex.c **** }
 565              		.loc 1 385 0
 566 002a 7047     		bx	lr
 567              		.cfi_endproc
 568              	.LFE71:
 570              		.section	.text.HAL_RTCEx_RTCEventCallback,"ax",%progbits
 571              		.align	1
 572              		.weak	HAL_RTCEx_RTCEventCallback
 573              		.syntax unified
 574              		.thumb
ARM GAS  /tmp/cckmEZIO.s 			page 18


 575              		.thumb_func
 576              		.fpu softvfp
 578              	HAL_RTCEx_RTCEventCallback:
 579              	.LFB73:
 386:Libraries/STM32F1xx_HAL_Driver/Src/stm32f1xx_hal_rtc_ex.c **** 
 387:Libraries/STM32F1xx_HAL_Driver/Src/stm32f1xx_hal_rtc_ex.c **** /**
 388:Libraries/STM32F1xx_HAL_Driver/Src/stm32f1xx_hal_rtc_ex.c ****   * @brief  This function handles second interrupt request.
 389:Libraries/STM32F1xx_HAL_Driver/Src/stm32f1xx_hal_rtc_ex.c ****   * @param  hrtc: pointer to a RTC_HandleTypeDef structure that contains
 390:Libraries/STM32F1xx_HAL_Driver/Src/stm32f1xx_hal_rtc_ex.c ****   *                the configuration information for RTC.
 391:Libraries/STM32F1xx_HAL_Driver/Src/stm32f1xx_hal_rtc_ex.c ****   * @retval None
 392:Libraries/STM32F1xx_HAL_Driver/Src/stm32f1xx_hal_rtc_ex.c ****   */
 393:Libraries/STM32F1xx_HAL_Driver/Src/stm32f1xx_hal_rtc_ex.c **** void HAL_RTCEx_RTCIRQHandler(RTC_HandleTypeDef* hrtc)
 394:Libraries/STM32F1xx_HAL_Driver/Src/stm32f1xx_hal_rtc_ex.c **** {
 395:Libraries/STM32F1xx_HAL_Driver/Src/stm32f1xx_hal_rtc_ex.c ****   if(__HAL_RTC_SECOND_GET_IT_SOURCE(hrtc, RTC_IT_SEC))
 396:Libraries/STM32F1xx_HAL_Driver/Src/stm32f1xx_hal_rtc_ex.c ****   {
 397:Libraries/STM32F1xx_HAL_Driver/Src/stm32f1xx_hal_rtc_ex.c ****     /* Get the status of the Interrupt */
 398:Libraries/STM32F1xx_HAL_Driver/Src/stm32f1xx_hal_rtc_ex.c ****     if(__HAL_RTC_SECOND_GET_FLAG(hrtc, RTC_FLAG_SEC))
 399:Libraries/STM32F1xx_HAL_Driver/Src/stm32f1xx_hal_rtc_ex.c ****     {
 400:Libraries/STM32F1xx_HAL_Driver/Src/stm32f1xx_hal_rtc_ex.c ****       /* Check if Overrun occurred */
 401:Libraries/STM32F1xx_HAL_Driver/Src/stm32f1xx_hal_rtc_ex.c ****       if (__HAL_RTC_SECOND_GET_FLAG(hrtc, RTC_FLAG_OW))
 402:Libraries/STM32F1xx_HAL_Driver/Src/stm32f1xx_hal_rtc_ex.c ****       {
 403:Libraries/STM32F1xx_HAL_Driver/Src/stm32f1xx_hal_rtc_ex.c ****         /* Second error callback */ 
 404:Libraries/STM32F1xx_HAL_Driver/Src/stm32f1xx_hal_rtc_ex.c ****         HAL_RTCEx_RTCEventErrorCallback(hrtc);
 405:Libraries/STM32F1xx_HAL_Driver/Src/stm32f1xx_hal_rtc_ex.c ****         
 406:Libraries/STM32F1xx_HAL_Driver/Src/stm32f1xx_hal_rtc_ex.c ****         /* Clear flag Second */
 407:Libraries/STM32F1xx_HAL_Driver/Src/stm32f1xx_hal_rtc_ex.c ****         __HAL_RTC_OVERFLOW_CLEAR_FLAG(hrtc, RTC_FLAG_OW);
 408:Libraries/STM32F1xx_HAL_Driver/Src/stm32f1xx_hal_rtc_ex.c ****         
 409:Libraries/STM32F1xx_HAL_Driver/Src/stm32f1xx_hal_rtc_ex.c ****         /* Change RTC state */
 410:Libraries/STM32F1xx_HAL_Driver/Src/stm32f1xx_hal_rtc_ex.c ****         hrtc->State = HAL_RTC_STATE_ERROR; 
 411:Libraries/STM32F1xx_HAL_Driver/Src/stm32f1xx_hal_rtc_ex.c ****       }
 412:Libraries/STM32F1xx_HAL_Driver/Src/stm32f1xx_hal_rtc_ex.c ****       else 
 413:Libraries/STM32F1xx_HAL_Driver/Src/stm32f1xx_hal_rtc_ex.c ****       {
 414:Libraries/STM32F1xx_HAL_Driver/Src/stm32f1xx_hal_rtc_ex.c ****         /* Second callback */ 
 415:Libraries/STM32F1xx_HAL_Driver/Src/stm32f1xx_hal_rtc_ex.c ****         HAL_RTCEx_RTCEventCallback(hrtc);
 416:Libraries/STM32F1xx_HAL_Driver/Src/stm32f1xx_hal_rtc_ex.c ****         
 417:Libraries/STM32F1xx_HAL_Driver/Src/stm32f1xx_hal_rtc_ex.c ****         /* Change RTC state */
 418:Libraries/STM32F1xx_HAL_Driver/Src/stm32f1xx_hal_rtc_ex.c ****         hrtc->State = HAL_RTC_STATE_READY; 
 419:Libraries/STM32F1xx_HAL_Driver/Src/stm32f1xx_hal_rtc_ex.c ****       }
 420:Libraries/STM32F1xx_HAL_Driver/Src/stm32f1xx_hal_rtc_ex.c ****       
 421:Libraries/STM32F1xx_HAL_Driver/Src/stm32f1xx_hal_rtc_ex.c ****       /* Clear flag Second */
 422:Libraries/STM32F1xx_HAL_Driver/Src/stm32f1xx_hal_rtc_ex.c ****       __HAL_RTC_SECOND_CLEAR_FLAG(hrtc, RTC_FLAG_SEC);
 423:Libraries/STM32F1xx_HAL_Driver/Src/stm32f1xx_hal_rtc_ex.c ****     }
 424:Libraries/STM32F1xx_HAL_Driver/Src/stm32f1xx_hal_rtc_ex.c ****   }
 425:Libraries/STM32F1xx_HAL_Driver/Src/stm32f1xx_hal_rtc_ex.c **** }
 426:Libraries/STM32F1xx_HAL_Driver/Src/stm32f1xx_hal_rtc_ex.c **** 
 427:Libraries/STM32F1xx_HAL_Driver/Src/stm32f1xx_hal_rtc_ex.c **** /**
 428:Libraries/STM32F1xx_HAL_Driver/Src/stm32f1xx_hal_rtc_ex.c ****   * @brief  Second event callback.
 429:Libraries/STM32F1xx_HAL_Driver/Src/stm32f1xx_hal_rtc_ex.c ****   * @param  hrtc: pointer to a RTC_HandleTypeDef structure that contains
 430:Libraries/STM32F1xx_HAL_Driver/Src/stm32f1xx_hal_rtc_ex.c ****   *                the configuration information for RTC.
 431:Libraries/STM32F1xx_HAL_Driver/Src/stm32f1xx_hal_rtc_ex.c ****   * @retval None
 432:Libraries/STM32F1xx_HAL_Driver/Src/stm32f1xx_hal_rtc_ex.c ****   */
 433:Libraries/STM32F1xx_HAL_Driver/Src/stm32f1xx_hal_rtc_ex.c **** __weak void HAL_RTCEx_RTCEventCallback(RTC_HandleTypeDef *hrtc)
 434:Libraries/STM32F1xx_HAL_Driver/Src/stm32f1xx_hal_rtc_ex.c **** {
 580              		.loc 1 434 0
 581              		.cfi_startproc
 582              		@ args = 0, pretend = 0, frame = 0
 583              		@ frame_needed = 0, uses_anonymous_args = 0
ARM GAS  /tmp/cckmEZIO.s 			page 19


 584              		@ link register save eliminated.
 585              	.LVL55:
 586 0000 7047     		bx	lr
 587              		.cfi_endproc
 588              	.LFE73:
 590              		.section	.text.HAL_RTCEx_RTCEventErrorCallback,"ax",%progbits
 591              		.align	1
 592              		.weak	HAL_RTCEx_RTCEventErrorCallback
 593              		.syntax unified
 594              		.thumb
 595              		.thumb_func
 596              		.fpu softvfp
 598              	HAL_RTCEx_RTCEventErrorCallback:
 599              	.LFB74:
 435:Libraries/STM32F1xx_HAL_Driver/Src/stm32f1xx_hal_rtc_ex.c ****   /* Prevent unused argument(s) compilation warning */
 436:Libraries/STM32F1xx_HAL_Driver/Src/stm32f1xx_hal_rtc_ex.c ****   UNUSED(hrtc);
 437:Libraries/STM32F1xx_HAL_Driver/Src/stm32f1xx_hal_rtc_ex.c ****   /* NOTE : This function Should not be modified, when the callback is needed,
 438:Libraries/STM32F1xx_HAL_Driver/Src/stm32f1xx_hal_rtc_ex.c ****             the HAL_RTCEx_RTCEventCallback could be implemented in the user file
 439:Libraries/STM32F1xx_HAL_Driver/Src/stm32f1xx_hal_rtc_ex.c ****    */
 440:Libraries/STM32F1xx_HAL_Driver/Src/stm32f1xx_hal_rtc_ex.c **** }
 441:Libraries/STM32F1xx_HAL_Driver/Src/stm32f1xx_hal_rtc_ex.c **** 
 442:Libraries/STM32F1xx_HAL_Driver/Src/stm32f1xx_hal_rtc_ex.c **** /**
 443:Libraries/STM32F1xx_HAL_Driver/Src/stm32f1xx_hal_rtc_ex.c ****   * @brief  Second event error callback.
 444:Libraries/STM32F1xx_HAL_Driver/Src/stm32f1xx_hal_rtc_ex.c ****   * @param  hrtc: pointer to a RTC_HandleTypeDef structure that contains
 445:Libraries/STM32F1xx_HAL_Driver/Src/stm32f1xx_hal_rtc_ex.c ****   *                the configuration information for RTC.
 446:Libraries/STM32F1xx_HAL_Driver/Src/stm32f1xx_hal_rtc_ex.c ****   * @retval None
 447:Libraries/STM32F1xx_HAL_Driver/Src/stm32f1xx_hal_rtc_ex.c ****   */
 448:Libraries/STM32F1xx_HAL_Driver/Src/stm32f1xx_hal_rtc_ex.c **** __weak void HAL_RTCEx_RTCEventErrorCallback(RTC_HandleTypeDef *hrtc)
 449:Libraries/STM32F1xx_HAL_Driver/Src/stm32f1xx_hal_rtc_ex.c **** {
 600              		.loc 1 449 0
 601              		.cfi_startproc
 602              		@ args = 0, pretend = 0, frame = 0
 603              		@ frame_needed = 0, uses_anonymous_args = 0
 604              		@ link register save eliminated.
 605              	.LVL56:
 606 0000 7047     		bx	lr
 607              		.cfi_endproc
 608              	.LFE74:
 610              		.section	.text.HAL_RTCEx_RTCIRQHandler,"ax",%progbits
 611              		.align	1
 612              		.global	HAL_RTCEx_RTCIRQHandler
 613              		.syntax unified
 614              		.thumb
 615              		.thumb_func
 616              		.fpu softvfp
 618              	HAL_RTCEx_RTCIRQHandler:
 619              	.LFB72:
 394:Libraries/STM32F1xx_HAL_Driver/Src/stm32f1xx_hal_rtc_ex.c ****   if(__HAL_RTC_SECOND_GET_IT_SOURCE(hrtc, RTC_IT_SEC))
 620              		.loc 1 394 0
 621              		.cfi_startproc
 622              		@ args = 0, pretend = 0, frame = 0
 623              		@ frame_needed = 0, uses_anonymous_args = 0
 624              	.LVL57:
 395:Libraries/STM32F1xx_HAL_Driver/Src/stm32f1xx_hal_rtc_ex.c ****   {
 625              		.loc 1 395 0
 626 0000 0368     		ldr	r3, [r0]
 627 0002 1A68     		ldr	r2, [r3]
ARM GAS  /tmp/cckmEZIO.s 			page 20


 628 0004 12F0010F 		tst	r2, #1
 629 0008 1BD0     		beq	.L65
 398:Libraries/STM32F1xx_HAL_Driver/Src/stm32f1xx_hal_rtc_ex.c ****     {
 630              		.loc 1 398 0
 631 000a 5A68     		ldr	r2, [r3, #4]
 632 000c 12F0010F 		tst	r2, #1
 633 0010 17D0     		beq	.L65
 394:Libraries/STM32F1xx_HAL_Driver/Src/stm32f1xx_hal_rtc_ex.c ****   if(__HAL_RTC_SECOND_GET_IT_SOURCE(hrtc, RTC_IT_SEC))
 634              		.loc 1 394 0
 635 0012 10B5     		push	{r4, lr}
 636              	.LCFI6:
 637              		.cfi_def_cfa_offset 8
 638              		.cfi_offset 4, -8
 639              		.cfi_offset 14, -4
 640 0014 0446     		mov	r4, r0
 401:Libraries/STM32F1xx_HAL_Driver/Src/stm32f1xx_hal_rtc_ex.c ****       {
 641              		.loc 1 401 0
 642 0016 5B68     		ldr	r3, [r3, #4]
 643 0018 13F0040F 		tst	r3, #4
 644 001c 0CD0     		beq	.L62
 404:Libraries/STM32F1xx_HAL_Driver/Src/stm32f1xx_hal_rtc_ex.c ****         
 645              		.loc 1 404 0
 646 001e FFF7FEFF 		bl	HAL_RTCEx_RTCEventErrorCallback
 647              	.LVL58:
 407:Libraries/STM32F1xx_HAL_Driver/Src/stm32f1xx_hal_rtc_ex.c ****         
 648              		.loc 1 407 0
 649 0022 2368     		ldr	r3, [r4]
 650 0024 6FF00402 		mvn	r2, #4
 651 0028 5A60     		str	r2, [r3, #4]
 410:Libraries/STM32F1xx_HAL_Driver/Src/stm32f1xx_hal_rtc_ex.c ****       }
 652              		.loc 1 410 0
 653 002a 0423     		movs	r3, #4
 654 002c 6374     		strb	r3, [r4, #17]
 655              	.L63:
 422:Libraries/STM32F1xx_HAL_Driver/Src/stm32f1xx_hal_rtc_ex.c ****     }
 656              		.loc 1 422 0
 657 002e 2368     		ldr	r3, [r4]
 658 0030 6FF00102 		mvn	r2, #1
 659 0034 5A60     		str	r2, [r3, #4]
 660 0036 10BD     		pop	{r4, pc}
 661              	.LVL59:
 662              	.L62:
 415:Libraries/STM32F1xx_HAL_Driver/Src/stm32f1xx_hal_rtc_ex.c ****         
 663              		.loc 1 415 0
 664 0038 FFF7FEFF 		bl	HAL_RTCEx_RTCEventCallback
 665              	.LVL60:
 418:Libraries/STM32F1xx_HAL_Driver/Src/stm32f1xx_hal_rtc_ex.c ****       }
 666              		.loc 1 418 0
 667 003c 0123     		movs	r3, #1
 668 003e 6374     		strb	r3, [r4, #17]
 669 0040 F5E7     		b	.L63
 670              	.LVL61:
 671              	.L65:
 672              	.LCFI7:
 673              		.cfi_def_cfa_offset 0
 674              		.cfi_restore 4
 675              		.cfi_restore 14
ARM GAS  /tmp/cckmEZIO.s 			page 21


 676 0042 7047     		bx	lr
 677              		.cfi_endproc
 678              	.LFE72:
 680              		.section	.text.HAL_RTCEx_BKUPWrite,"ax",%progbits
 681              		.align	1
 682              		.global	HAL_RTCEx_BKUPWrite
 683              		.syntax unified
 684              		.thumb
 685              		.thumb_func
 686              		.fpu softvfp
 688              	HAL_RTCEx_BKUPWrite:
 689              	.LFB75:
 450:Libraries/STM32F1xx_HAL_Driver/Src/stm32f1xx_hal_rtc_ex.c ****   /* Prevent unused argument(s) compilation warning */
 451:Libraries/STM32F1xx_HAL_Driver/Src/stm32f1xx_hal_rtc_ex.c ****   UNUSED(hrtc);
 452:Libraries/STM32F1xx_HAL_Driver/Src/stm32f1xx_hal_rtc_ex.c ****   /* NOTE : This function Should not be modified, when the callback is needed,
 453:Libraries/STM32F1xx_HAL_Driver/Src/stm32f1xx_hal_rtc_ex.c ****             the HAL_RTCEx_RTCEventErrorCallback could be implemented in the user file
 454:Libraries/STM32F1xx_HAL_Driver/Src/stm32f1xx_hal_rtc_ex.c ****    */
 455:Libraries/STM32F1xx_HAL_Driver/Src/stm32f1xx_hal_rtc_ex.c **** }
 456:Libraries/STM32F1xx_HAL_Driver/Src/stm32f1xx_hal_rtc_ex.c **** 
 457:Libraries/STM32F1xx_HAL_Driver/Src/stm32f1xx_hal_rtc_ex.c **** /**
 458:Libraries/STM32F1xx_HAL_Driver/Src/stm32f1xx_hal_rtc_ex.c ****   * @}
 459:Libraries/STM32F1xx_HAL_Driver/Src/stm32f1xx_hal_rtc_ex.c ****   */
 460:Libraries/STM32F1xx_HAL_Driver/Src/stm32f1xx_hal_rtc_ex.c ****   
 461:Libraries/STM32F1xx_HAL_Driver/Src/stm32f1xx_hal_rtc_ex.c **** /** @defgroup RTCEx_Exported_Functions_Group3 Extended Peripheral Control functions
 462:Libraries/STM32F1xx_HAL_Driver/Src/stm32f1xx_hal_rtc_ex.c ****   * @brief    Extended Peripheral Control functions
 463:Libraries/STM32F1xx_HAL_Driver/Src/stm32f1xx_hal_rtc_ex.c ****   *
 464:Libraries/STM32F1xx_HAL_Driver/Src/stm32f1xx_hal_rtc_ex.c **** @verbatim   
 465:Libraries/STM32F1xx_HAL_Driver/Src/stm32f1xx_hal_rtc_ex.c ****  ===============================================================================
 466:Libraries/STM32F1xx_HAL_Driver/Src/stm32f1xx_hal_rtc_ex.c ****               ##### Extension Peripheral Control functions #####
 467:Libraries/STM32F1xx_HAL_Driver/Src/stm32f1xx_hal_rtc_ex.c ****  ===============================================================================  
 468:Libraries/STM32F1xx_HAL_Driver/Src/stm32f1xx_hal_rtc_ex.c ****     [..]
 469:Libraries/STM32F1xx_HAL_Driver/Src/stm32f1xx_hal_rtc_ex.c ****     This subsection provides functions allowing to
 470:Libraries/STM32F1xx_HAL_Driver/Src/stm32f1xx_hal_rtc_ex.c ****       (+) Writes a data in a specified RTC Backup data register
 471:Libraries/STM32F1xx_HAL_Driver/Src/stm32f1xx_hal_rtc_ex.c ****       (+) Read a data in a specified RTC Backup data register
 472:Libraries/STM32F1xx_HAL_Driver/Src/stm32f1xx_hal_rtc_ex.c ****       (+) Sets the Smooth calibration parameters.
 473:Libraries/STM32F1xx_HAL_Driver/Src/stm32f1xx_hal_rtc_ex.c **** 
 474:Libraries/STM32F1xx_HAL_Driver/Src/stm32f1xx_hal_rtc_ex.c **** @endverbatim
 475:Libraries/STM32F1xx_HAL_Driver/Src/stm32f1xx_hal_rtc_ex.c ****   * @{
 476:Libraries/STM32F1xx_HAL_Driver/Src/stm32f1xx_hal_rtc_ex.c ****   */
 477:Libraries/STM32F1xx_HAL_Driver/Src/stm32f1xx_hal_rtc_ex.c **** 
 478:Libraries/STM32F1xx_HAL_Driver/Src/stm32f1xx_hal_rtc_ex.c **** /**
 479:Libraries/STM32F1xx_HAL_Driver/Src/stm32f1xx_hal_rtc_ex.c ****   * @brief  Writes a data in a specified RTC Backup data register.
 480:Libraries/STM32F1xx_HAL_Driver/Src/stm32f1xx_hal_rtc_ex.c ****   * @param  hrtc: pointer to a RTC_HandleTypeDef structure that contains
 481:Libraries/STM32F1xx_HAL_Driver/Src/stm32f1xx_hal_rtc_ex.c ****   *                the configuration information for RTC. 
 482:Libraries/STM32F1xx_HAL_Driver/Src/stm32f1xx_hal_rtc_ex.c ****   * @param  BackupRegister: RTC Backup data Register number.
 483:Libraries/STM32F1xx_HAL_Driver/Src/stm32f1xx_hal_rtc_ex.c ****   *          This parameter can be: RTC_BKP_DRx where x can be from 1 to 10 (or 42) to 
 484:Libraries/STM32F1xx_HAL_Driver/Src/stm32f1xx_hal_rtc_ex.c ****   *                                 specify the register (depending devices).
 485:Libraries/STM32F1xx_HAL_Driver/Src/stm32f1xx_hal_rtc_ex.c ****   * @param  Data: Data to be written in the specified RTC Backup data register.                    
 486:Libraries/STM32F1xx_HAL_Driver/Src/stm32f1xx_hal_rtc_ex.c ****   * @retval None
 487:Libraries/STM32F1xx_HAL_Driver/Src/stm32f1xx_hal_rtc_ex.c ****   */
 488:Libraries/STM32F1xx_HAL_Driver/Src/stm32f1xx_hal_rtc_ex.c **** void HAL_RTCEx_BKUPWrite(RTC_HandleTypeDef *hrtc, uint32_t BackupRegister, uint32_t Data)
 489:Libraries/STM32F1xx_HAL_Driver/Src/stm32f1xx_hal_rtc_ex.c **** {
 690              		.loc 1 489 0
 691              		.cfi_startproc
 692              		@ args = 0, pretend = 0, frame = 0
 693              		@ frame_needed = 0, uses_anonymous_args = 0
 694              		@ link register save eliminated.
ARM GAS  /tmp/cckmEZIO.s 			page 22


 695              	.LVL62:
 490:Libraries/STM32F1xx_HAL_Driver/Src/stm32f1xx_hal_rtc_ex.c ****   uint32_t tmp = 0U;
 491:Libraries/STM32F1xx_HAL_Driver/Src/stm32f1xx_hal_rtc_ex.c **** 
 492:Libraries/STM32F1xx_HAL_Driver/Src/stm32f1xx_hal_rtc_ex.c ****   /* Prevent unused argument(s) compilation warning */
 493:Libraries/STM32F1xx_HAL_Driver/Src/stm32f1xx_hal_rtc_ex.c ****   UNUSED(hrtc);
 494:Libraries/STM32F1xx_HAL_Driver/Src/stm32f1xx_hal_rtc_ex.c **** 
 495:Libraries/STM32F1xx_HAL_Driver/Src/stm32f1xx_hal_rtc_ex.c ****   /* Check the parameters */
 496:Libraries/STM32F1xx_HAL_Driver/Src/stm32f1xx_hal_rtc_ex.c ****   assert_param(IS_RTC_BKP(BackupRegister));
 497:Libraries/STM32F1xx_HAL_Driver/Src/stm32f1xx_hal_rtc_ex.c ****   
 498:Libraries/STM32F1xx_HAL_Driver/Src/stm32f1xx_hal_rtc_ex.c ****   tmp = (uint32_t)BKP_BASE; 
 499:Libraries/STM32F1xx_HAL_Driver/Src/stm32f1xx_hal_rtc_ex.c ****   tmp += (BackupRegister * 4U);
 696              		.loc 1 499 0
 697 0000 8900     		lsls	r1, r1, #2
 698              	.LVL63:
 699 0002 01F18041 		add	r1, r1, #1073741824
 700 0006 01F5D841 		add	r1, r1, #27648
 701              	.LVL64:
 500:Libraries/STM32F1xx_HAL_Driver/Src/stm32f1xx_hal_rtc_ex.c **** 
 501:Libraries/STM32F1xx_HAL_Driver/Src/stm32f1xx_hal_rtc_ex.c ****   *(__IO uint32_t *) tmp = (Data & BKP_DR1_D);
 702              		.loc 1 501 0
 703 000a 92B2     		uxth	r2, r2
 704              	.LVL65:
 705 000c 0A60     		str	r2, [r1]
 706 000e 7047     		bx	lr
 707              		.cfi_endproc
 708              	.LFE75:
 710              		.section	.text.HAL_RTCEx_BKUPRead,"ax",%progbits
 711              		.align	1
 712              		.global	HAL_RTCEx_BKUPRead
 713              		.syntax unified
 714              		.thumb
 715              		.thumb_func
 716              		.fpu softvfp
 718              	HAL_RTCEx_BKUPRead:
 719              	.LFB76:
 502:Libraries/STM32F1xx_HAL_Driver/Src/stm32f1xx_hal_rtc_ex.c **** }
 503:Libraries/STM32F1xx_HAL_Driver/Src/stm32f1xx_hal_rtc_ex.c **** 
 504:Libraries/STM32F1xx_HAL_Driver/Src/stm32f1xx_hal_rtc_ex.c **** /**
 505:Libraries/STM32F1xx_HAL_Driver/Src/stm32f1xx_hal_rtc_ex.c ****   * @brief  Reads data from the specified RTC Backup data Register.
 506:Libraries/STM32F1xx_HAL_Driver/Src/stm32f1xx_hal_rtc_ex.c ****   * @param  hrtc: pointer to a RTC_HandleTypeDef structure that contains
 507:Libraries/STM32F1xx_HAL_Driver/Src/stm32f1xx_hal_rtc_ex.c ****   *                the configuration information for RTC. 
 508:Libraries/STM32F1xx_HAL_Driver/Src/stm32f1xx_hal_rtc_ex.c ****   * @param  BackupRegister: RTC Backup data Register number.
 509:Libraries/STM32F1xx_HAL_Driver/Src/stm32f1xx_hal_rtc_ex.c ****   *          This parameter can be: RTC_BKP_DRx where x can be from 1 to 10 (or 42) to 
 510:Libraries/STM32F1xx_HAL_Driver/Src/stm32f1xx_hal_rtc_ex.c ****   *                                 specify the register (depending devices).
 511:Libraries/STM32F1xx_HAL_Driver/Src/stm32f1xx_hal_rtc_ex.c ****   * @retval Read value
 512:Libraries/STM32F1xx_HAL_Driver/Src/stm32f1xx_hal_rtc_ex.c ****   */
 513:Libraries/STM32F1xx_HAL_Driver/Src/stm32f1xx_hal_rtc_ex.c **** uint32_t HAL_RTCEx_BKUPRead(RTC_HandleTypeDef *hrtc, uint32_t BackupRegister)
 514:Libraries/STM32F1xx_HAL_Driver/Src/stm32f1xx_hal_rtc_ex.c **** {
 720              		.loc 1 514 0
 721              		.cfi_startproc
 722              		@ args = 0, pretend = 0, frame = 0
 723              		@ frame_needed = 0, uses_anonymous_args = 0
 724              		@ link register save eliminated.
 725              	.LVL66:
 515:Libraries/STM32F1xx_HAL_Driver/Src/stm32f1xx_hal_rtc_ex.c ****   uint32_t backupregister = 0U;
 516:Libraries/STM32F1xx_HAL_Driver/Src/stm32f1xx_hal_rtc_ex.c ****   uint32_t pvalue = 0U;
 517:Libraries/STM32F1xx_HAL_Driver/Src/stm32f1xx_hal_rtc_ex.c **** 
ARM GAS  /tmp/cckmEZIO.s 			page 23


 518:Libraries/STM32F1xx_HAL_Driver/Src/stm32f1xx_hal_rtc_ex.c ****   /* Prevent unused argument(s) compilation warning */
 519:Libraries/STM32F1xx_HAL_Driver/Src/stm32f1xx_hal_rtc_ex.c ****   UNUSED(hrtc);
 520:Libraries/STM32F1xx_HAL_Driver/Src/stm32f1xx_hal_rtc_ex.c **** 
 521:Libraries/STM32F1xx_HAL_Driver/Src/stm32f1xx_hal_rtc_ex.c ****   /* Check the parameters */
 522:Libraries/STM32F1xx_HAL_Driver/Src/stm32f1xx_hal_rtc_ex.c ****   assert_param(IS_RTC_BKP(BackupRegister));
 523:Libraries/STM32F1xx_HAL_Driver/Src/stm32f1xx_hal_rtc_ex.c **** 
 524:Libraries/STM32F1xx_HAL_Driver/Src/stm32f1xx_hal_rtc_ex.c ****   backupregister = (uint32_t)BKP_BASE; 
 525:Libraries/STM32F1xx_HAL_Driver/Src/stm32f1xx_hal_rtc_ex.c ****   backupregister += (BackupRegister * 4U);
 726              		.loc 1 525 0
 727 0000 8900     		lsls	r1, r1, #2
 728              	.LVL67:
 729 0002 01F18041 		add	r1, r1, #1073741824
 730 0006 01F5D841 		add	r1, r1, #27648
 731              	.LVL68:
 526:Libraries/STM32F1xx_HAL_Driver/Src/stm32f1xx_hal_rtc_ex.c ****   
 527:Libraries/STM32F1xx_HAL_Driver/Src/stm32f1xx_hal_rtc_ex.c ****   pvalue = (*(__IO uint32_t *)(backupregister)) & BKP_DR1_D;
 732              		.loc 1 527 0
 733 000a 0868     		ldr	r0, [r1]
 734              	.LVL69:
 528:Libraries/STM32F1xx_HAL_Driver/Src/stm32f1xx_hal_rtc_ex.c **** 
 529:Libraries/STM32F1xx_HAL_Driver/Src/stm32f1xx_hal_rtc_ex.c ****   /* Read the specified register */
 530:Libraries/STM32F1xx_HAL_Driver/Src/stm32f1xx_hal_rtc_ex.c ****   return pvalue;
 531:Libraries/STM32F1xx_HAL_Driver/Src/stm32f1xx_hal_rtc_ex.c **** }
 735              		.loc 1 531 0
 736 000c 80B2     		uxth	r0, r0
 737              	.LVL70:
 738 000e 7047     		bx	lr
 739              		.cfi_endproc
 740              	.LFE76:
 742              		.section	.text.HAL_RTCEx_SetSmoothCalib,"ax",%progbits
 743              		.align	1
 744              		.global	HAL_RTCEx_SetSmoothCalib
 745              		.syntax unified
 746              		.thumb
 747              		.thumb_func
 748              		.fpu softvfp
 750              	HAL_RTCEx_SetSmoothCalib:
 751              	.LFB77:
 532:Libraries/STM32F1xx_HAL_Driver/Src/stm32f1xx_hal_rtc_ex.c **** 
 533:Libraries/STM32F1xx_HAL_Driver/Src/stm32f1xx_hal_rtc_ex.c **** 
 534:Libraries/STM32F1xx_HAL_Driver/Src/stm32f1xx_hal_rtc_ex.c **** /**
 535:Libraries/STM32F1xx_HAL_Driver/Src/stm32f1xx_hal_rtc_ex.c ****   * @brief  Sets the Smooth calibration parameters.
 536:Libraries/STM32F1xx_HAL_Driver/Src/stm32f1xx_hal_rtc_ex.c ****   * @param  hrtc: RTC handle  
 537:Libraries/STM32F1xx_HAL_Driver/Src/stm32f1xx_hal_rtc_ex.c ****   * @param  SmoothCalibPeriod: Not used (only present for compatibility with another families)
 538:Libraries/STM32F1xx_HAL_Driver/Src/stm32f1xx_hal_rtc_ex.c ****   * @param  SmoothCalibPlusPulses: Not used (only present for compatibility with another families)
 539:Libraries/STM32F1xx_HAL_Driver/Src/stm32f1xx_hal_rtc_ex.c ****   * @param  SmouthCalibMinusPulsesValue: specifies the RTC Clock Calibration value.
 540:Libraries/STM32F1xx_HAL_Driver/Src/stm32f1xx_hal_rtc_ex.c ****   *          This parameter must be a number between 0 and 0x7F.
 541:Libraries/STM32F1xx_HAL_Driver/Src/stm32f1xx_hal_rtc_ex.c ****   * @retval HAL status
 542:Libraries/STM32F1xx_HAL_Driver/Src/stm32f1xx_hal_rtc_ex.c ****   */
 543:Libraries/STM32F1xx_HAL_Driver/Src/stm32f1xx_hal_rtc_ex.c **** HAL_StatusTypeDef HAL_RTCEx_SetSmoothCalib(RTC_HandleTypeDef* hrtc, uint32_t SmoothCalibPeriod, uin
 544:Libraries/STM32F1xx_HAL_Driver/Src/stm32f1xx_hal_rtc_ex.c **** {
 752              		.loc 1 544 0
 753              		.cfi_startproc
 754              		@ args = 0, pretend = 0, frame = 0
 755              		@ frame_needed = 0, uses_anonymous_args = 0
 756              		@ link register save eliminated.
 757              	.LVL71:
ARM GAS  /tmp/cckmEZIO.s 			page 24


 545:Libraries/STM32F1xx_HAL_Driver/Src/stm32f1xx_hal_rtc_ex.c ****   /* Check input parameters */
 546:Libraries/STM32F1xx_HAL_Driver/Src/stm32f1xx_hal_rtc_ex.c ****   if(hrtc == NULL)
 758              		.loc 1 546 0
 759 0000 98B1     		cbz	r0, .L72
 760 0002 0246     		mov	r2, r0
 761              	.LVL72:
 547:Libraries/STM32F1xx_HAL_Driver/Src/stm32f1xx_hal_rtc_ex.c ****   {
 548:Libraries/STM32F1xx_HAL_Driver/Src/stm32f1xx_hal_rtc_ex.c ****      return HAL_ERROR;
 549:Libraries/STM32F1xx_HAL_Driver/Src/stm32f1xx_hal_rtc_ex.c ****   }
 550:Libraries/STM32F1xx_HAL_Driver/Src/stm32f1xx_hal_rtc_ex.c ****   /* Prevent unused argument(s) compilation warning */
 551:Libraries/STM32F1xx_HAL_Driver/Src/stm32f1xx_hal_rtc_ex.c ****   UNUSED(SmoothCalibPeriod);
 552:Libraries/STM32F1xx_HAL_Driver/Src/stm32f1xx_hal_rtc_ex.c ****   UNUSED(SmoothCalibPlusPulses);
 553:Libraries/STM32F1xx_HAL_Driver/Src/stm32f1xx_hal_rtc_ex.c **** 
 554:Libraries/STM32F1xx_HAL_Driver/Src/stm32f1xx_hal_rtc_ex.c ****   /* Check the parameters */
 555:Libraries/STM32F1xx_HAL_Driver/Src/stm32f1xx_hal_rtc_ex.c ****   assert_param(IS_RTC_SMOOTH_CALIB_MINUS(SmouthCalibMinusPulsesValue));
 556:Libraries/STM32F1xx_HAL_Driver/Src/stm32f1xx_hal_rtc_ex.c ****   
 557:Libraries/STM32F1xx_HAL_Driver/Src/stm32f1xx_hal_rtc_ex.c ****   /* Process Locked */
 558:Libraries/STM32F1xx_HAL_Driver/Src/stm32f1xx_hal_rtc_ex.c ****   __HAL_LOCK(hrtc);
 762              		.loc 1 558 0
 763 0004 017C     		ldrb	r1, [r0, #16]	@ zero_extendqisi2
 764              	.LVL73:
 765 0006 0129     		cmp	r1, #1
 766 0008 11D0     		beq	.L73
 544:Libraries/STM32F1xx_HAL_Driver/Src/stm32f1xx_hal_rtc_ex.c ****   /* Check input parameters */
 767              		.loc 1 544 0 discriminator 2
 768 000a 10B4     		push	{r4}
 769              	.LCFI8:
 770              		.cfi_def_cfa_offset 4
 771              		.cfi_offset 4, -4
 772              		.loc 1 558 0 discriminator 2
 773 000c 0120     		movs	r0, #1
 774              	.LVL74:
 775 000e 1074     		strb	r0, [r2, #16]
 559:Libraries/STM32F1xx_HAL_Driver/Src/stm32f1xx_hal_rtc_ex.c **** 
 560:Libraries/STM32F1xx_HAL_Driver/Src/stm32f1xx_hal_rtc_ex.c ****   hrtc->State = HAL_RTC_STATE_BUSY;
 776              		.loc 1 560 0 discriminator 2
 777 0010 0221     		movs	r1, #2
 778 0012 5174     		strb	r1, [r2, #17]
 561:Libraries/STM32F1xx_HAL_Driver/Src/stm32f1xx_hal_rtc_ex.c **** 
 562:Libraries/STM32F1xx_HAL_Driver/Src/stm32f1xx_hal_rtc_ex.c ****   /* Sets RTC Clock Calibration value.*/
 563:Libraries/STM32F1xx_HAL_Driver/Src/stm32f1xx_hal_rtc_ex.c ****   MODIFY_REG(BKP->RTCCR, BKP_RTCCR_CAL, SmouthCalibMinusPulsesValue);
 779              		.loc 1 563 0 discriminator 2
 780 0014 074C     		ldr	r4, .L78
 781 0016 E16A     		ldr	r1, [r4, #44]
 782 0018 21F07F01 		bic	r1, r1, #127
 783 001c 0B43     		orrs	r3, r3, r1
 784              	.LVL75:
 785 001e E362     		str	r3, [r4, #44]
 564:Libraries/STM32F1xx_HAL_Driver/Src/stm32f1xx_hal_rtc_ex.c **** 
 565:Libraries/STM32F1xx_HAL_Driver/Src/stm32f1xx_hal_rtc_ex.c ****   /* Change RTC state */
 566:Libraries/STM32F1xx_HAL_Driver/Src/stm32f1xx_hal_rtc_ex.c ****   hrtc->State = HAL_RTC_STATE_READY;
 786              		.loc 1 566 0 discriminator 2
 787 0020 5074     		strb	r0, [r2, #17]
 567:Libraries/STM32F1xx_HAL_Driver/Src/stm32f1xx_hal_rtc_ex.c **** 
 568:Libraries/STM32F1xx_HAL_Driver/Src/stm32f1xx_hal_rtc_ex.c ****   /* Process Unlocked */
 569:Libraries/STM32F1xx_HAL_Driver/Src/stm32f1xx_hal_rtc_ex.c ****   __HAL_UNLOCK(hrtc);
 788              		.loc 1 569 0 discriminator 2
ARM GAS  /tmp/cckmEZIO.s 			page 25


 789 0022 0020     		movs	r0, #0
 790 0024 1074     		strb	r0, [r2, #16]
 570:Libraries/STM32F1xx_HAL_Driver/Src/stm32f1xx_hal_rtc_ex.c **** 
 571:Libraries/STM32F1xx_HAL_Driver/Src/stm32f1xx_hal_rtc_ex.c ****   return HAL_OK;
 572:Libraries/STM32F1xx_HAL_Driver/Src/stm32f1xx_hal_rtc_ex.c **** }
 791              		.loc 1 572 0 discriminator 2
 792 0026 10BC     		pop	{r4}
 793              	.LCFI9:
 794              		.cfi_restore 4
 795              		.cfi_def_cfa_offset 0
 796 0028 7047     		bx	lr
 797              	.LVL76:
 798              	.L72:
 548:Libraries/STM32F1xx_HAL_Driver/Src/stm32f1xx_hal_rtc_ex.c ****   }
 799              		.loc 1 548 0
 800 002a 0120     		movs	r0, #1
 801              	.LVL77:
 802 002c 7047     		bx	lr
 803              	.LVL78:
 804              	.L73:
 558:Libraries/STM32F1xx_HAL_Driver/Src/stm32f1xx_hal_rtc_ex.c **** 
 805              		.loc 1 558 0
 806 002e 0220     		movs	r0, #2
 807              	.LVL79:
 808 0030 7047     		bx	lr
 809              	.L79:
 810 0032 00BF     		.align	2
 811              	.L78:
 812 0034 006C0040 		.word	1073769472
 813              		.cfi_endproc
 814              	.LFE77:
 816              		.text
 817              	.Letext0:
 818              		.file 2 "/usr/include/newlib/machine/_default_types.h"
 819              		.file 3 "/usr/include/newlib/sys/_stdint.h"
 820              		.file 4 "Libraries/CMSIS/Include/core_cm3.h"
 821              		.file 5 "Libraries/CMSIS/Device/ST/STM32F1xx/Include/system_stm32f1xx.h"
 822              		.file 6 "Libraries/CMSIS/Device/ST/STM32F1xx/Include/stm32f103xe.h"
 823              		.file 7 "/usr/include/newlib/sys/lock.h"
 824              		.file 8 "/usr/include/newlib/sys/_types.h"
 825              		.file 9 "/usr/lib/gcc/arm-none-eabi/6.3.1/include/stddef.h"
 826              		.file 10 "/usr/include/newlib/sys/reent.h"
 827              		.file 11 "Libraries/CMSIS/Device/ST/STM32F1xx/Include/stm32f1xx.h"
 828              		.file 12 "Libraries/STM32F1xx_HAL_Driver/Inc/stm32f1xx_hal_def.h"
 829              		.file 13 "Libraries/STM32F1xx_HAL_Driver/Inc/stm32f1xx_hal_rtc.h"
 830              		.file 14 "Libraries/STM32F1xx_HAL_Driver/Inc/stm32f1xx_hal_rtc_ex.h"
 831              		.file 15 "Libraries/STM32F1xx_HAL_Driver/Inc/stm32f1xx_hal.h"
ARM GAS  /tmp/cckmEZIO.s 			page 26

